; Listing generated by Microsoft (R) Optimizing Compiler Version 19.16.27027.1 

	TITLE	C:\Users\USER\Documents\GitHub\Pedalboard-Display\VerticalGUI\Project\TouchGFX\generated\images\src\Be_Nice_to_Fat_People_small.cpp
	.686P
	.XMM
	include listing.inc
	.model	flat

INCLUDELIB MSVCRTD
INCLUDELIB OLDNAMES

PUBLIC	?_Be_Nice_to_Fat_People_small@@3QBEB		; _Be_Nice_to_Fat_People_small
CONST	SEGMENT
?_Be_Nice_to_Fat_People_small@@3QBEB DB 0bbH		; _Be_Nice_to_Fat_People_small
	DB	0d6H
	DB	0bbH
	DB	0deH
	DB	0bbH
	DB	0d6H
	DB	0bbH
	DB	0d6H
	DB	0bbH
	DB	0d6H
	DB	0bbH
	DB	0deH
	DB	0bbH
	DB	0d6H
	DB	0bbH
	DB	0deH
	DB	0bbH
	DB	0deH
	DB	0bbH
	DB	0d6H
	DB	0bbH
	DB	0deH
	DB	0bbH
	DB	0deH
	DB	0bbH
	DB	0d6H
	DB	0bbH
	DB	0deH
	DB	0bbH
	DB	0d6H
	DB	0bbH
	DB	0d6H
	DB	0bbH
	DB	0deH
	DB	0dbH
	DB	0deH
	DB	0bbH
	DB	0d6H
	DB	0bbH
	DB	0d6H
	DB	0bbH
	DB	0deH
	DB	0bbH
	DB	0deH
	DB	0bbH
	DB	0d6H
	DB	0dbH
	DB	0deH
	DB	0bbH
	DB	0d6H
	DB	0bbH
	DB	0d6H
	DB	0bbH
	DB	0deH
	DB	0bbH
	DB	0d6H
	DB	0bbH
	DB	0deH
	DB	0bbH
	DB	0d6H
	DB	0bbH
	DB	0d6H
	DB	0bbH
	DB	0deH
	DB	0bbH
	DB	0deH
	DB	0bbH
	DB	0d6H
	DB	0bbH
	DB	0d6H
	DB	0bbH
	DB	0d6H
	DB	0bbH
	DB	0d6H
	DB	0bbH
	DB	0d6H
	DB	0bbH
	DB	0deH
	DB	0bbH
	DB	0d6H
	DB	0bbH
	DB	0d6H
	DB	09bH
	DB	0d6H
	DB	0bbH
	DB	0d6H
	DB	0bbH
	DB	0deH
	DB	0bbH
	DB	0deH
	DB	0dcH
	DB	0deH
	DB	09aH
	DB	0d6H
	DB	0fcH
	DB	0e6H
	DB	07aH
	DB	0ceH
	DB	0fcH
	DB	0deH
	DB	07aH
	DB	0ceH
	DB	0dbH
	DB	0deH
	DB	0bbH
	DB	0deH
	DB	0bbH
	DB	0d6H
	DB	0bbH
	DB	0deH
	DB	0bbH
	DB	0deH
	DB	0dbH
	DB	0d6H
	DB	0bbH
	DB	0deH
	DB	0bbH
	DB	0d6H
	DB	0bbH
	DB	0deH
	DB	0bbH
	DB	0d6H
	DB	0bbH
	DB	0d6H
	DB	0bbH
	DB	0deH
	DB	0bbH
	DB	0d6H
	DB	0bbH
	DB	0deH
	DB	0bbH
	DB	0d6H
	DB	0bbH
	DB	0d6H
	DB	0bbH
	DB	0deH
	DB	0bbH
	DB	0d6H
	DB	0bbH
	DB	0d6H
	DB	0bbH
	DB	0deH
	DB	0bbH
	DB	0deH
	DB	0dbH
	DB	0d6H
	DB	0bbH
	DB	0d6H
	DB	0bbH
	DB	0deH
	DB	0bbH
	DB	0deH
	DB	0bbH
	DB	0d6H
	DB	0bbH
	DB	0d6H
	DB	0bbH
	DB	0deH
	DB	0bbH
	DB	0d6H
	DB	0bbH
	DB	0d6H
	DB	0bbH
	DB	0deH
	DB	0bbH
	DB	0deH
	DB	0bbH
	DB	0d6H
	DB	0bbH
	DB	0d6H
	DB	0bbH
	DB	0deH
	DB	0bbH
	DB	0d6H
	DB	0bbH
	DB	0deH
	DB	0bbH
	DB	0deH
	DB	0dbH
	DB	0d6H
	DB	0bbH
	DB	0deH
	DB	0bbH
	DB	0d6H
	DB	0bbH
	DB	0d6H
	DB	0bbH
	DB	0deH
	DB	0bbH
	DB	0d6H
	DB	0dbH
	DB	0deH
	DB	0bbH
	DB	0deH
	DB	0bbH
	DB	0d6H
	DB	0bbH
	DB	0d6H
	DB	0bbH
	DB	0deH
	DB	0bbH
	DB	0d6H
	DB	0bbH
	DB	0d6H
	DB	0bbH
	DB	0deH
	DB	0bbH
	DB	0deH
	DB	0dbH
	DB	0d6H
	DB	0bbH
	DB	0deH
	DB	0bbH
	DB	0deH
	DB	0bbH
	DB	0d6H
	DB	0bbH
	DB	0d6H
	DB	0bbH
	DB	0deH
	DB	0bbH
	DB	0d6H
	DB	0bbH
	DB	0deH
	DB	0bbH
	DB	0d6H
	DB	0bbH
	DB	0deH
	DB	0bbH
	DB	0d6H
	DB	0bbH
	DB	0d6H
	DB	0bbH
	DB	0deH
	DB	0bbH
	DB	0d6H
	DB	0bbH
	DB	0d6H
	DB	0bbH
	DB	0d6H
	DB	0bbH
	DB	0deH
	DB	0bbH
	DB	0d6H
	DB	0bbH
	DB	0d6H
	DB	0bbH
	DB	0deH
	DB	0bbH
	DB	0d6H
	DB	0bbH
	DB	0d6H
	DB	0bbH
	DB	0deH
	DB	0bbH
	DB	0deH
	DB	0dbH
	DB	0d6H
	DB	0bbH
	DB	0d6H
	DB	0bbH
	DB	0deH
	DB	0bbH
	DB	0deH
	DB	0bbH
	DB	0d6H
	DB	0dbH
	DB	0deH
	DB	0bbH
	DB	0deH
	DB	0bbH
	DB	0d6H
	DB	0bbH
	DB	0d6H
	DB	0bbH
	DB	0deH
	DB	0bbH
	DB	0d6H
	DB	0bbH
	DB	0deH
	DB	0bbH
	DB	0d6H
	DB	0bbH
	DB	0deH
	DB	0bbH
	DB	0deH
	DB	0bbH
	DB	0d6H
	DB	0bbH
	DB	0deH
	DB	0dbH
	DB	0deH
	DB	0bbH
	DB	0d6H
	DB	0bbH
	DB	0d6H
	DB	0bbH
	DB	0deH
	DB	0bbH
	DB	0d6H
	DB	0bbH
	DB	0d6H
	DB	0bbH
	DB	0deH
	DB	0bbH
	DB	0d6H
	DB	0bbH
	DB	0deH
	DB	0dbH
	DB	0deH
	DB	0bbH
	DB	0d6H
	DB	0bbH
	DB	0d6H
	DB	0bbH
	DB	0deH
	DB	0bbH
	DB	0d6H
	DB	0bbH
	DB	0deH
	DB	0bbH
	DB	0deH
	DB	0bbH
	DB	0d6H
	DB	0bbH
	DB	0d6H
	DB	0bbH
	DB	0deH
	DB	0bbH
	DB	0d6H
	DB	0bbH
	DB	0d6H
	DB	0bbH
	DB	0deH
	DB	0bbH
	DB	0deH
	DB	0bbH
	DB	0d6H
	DB	0bbH
	DB	0d6H
	DB	0bbH
	DB	0deH
	DB	0bbH
	DB	0d6H
	DB	0bbH
	DB	0deH
	DB	0bbH
	DB	0d6H
	DB	0bbH
	DB	0d6H
	DB	0bbH
	DB	0deH
	DB	0bbH
	DB	0d6H
	DB	0bbH
	DB	0d6H
	DB	0bbH
	DB	0deH
	DB	0bbH
	DB	0d6H
	DB	0bbH
	DB	0d6H
	DB	0bbH
	DB	0d6H
	DB	0bbH
	DB	0deH
	DB	0bbH
	DB	0deH
	DB	0bbH
	DB	0d6H
	DB	0bbH
	DB	0d6H
	DB	0bbH
	DB	0deH
	DB	0bbH
	DB	0deH
	DB	0bbH
	DB	0d6H
	DB	0bbH
	DB	0d6H
	DB	0bbH
	DB	0deH
	DB	0bbH
	DB	0d6H
	DB	0bbH
	DB	0d6H
	DB	0bbH
	DB	0deH
	DB	0bbH
	DB	0d6H
	DB	0bbH
	DB	0d6H
	DB	0bbH
	DB	0deH
	DB	0bbH
	DB	0deH
	DB	0dbH
	DB	0d6H
	DB	0bbH
	DB	0d6H
	DB	0bbH
	DB	0deH
	DB	0bbH
	DB	0deH
	DB	0dbH
	DB	0d6H
	DB	0bbH
	DB	0d6H
	DB	0bbH
	DB	0deH
	DB	0bbH
	DB	0d6H
	DB	0bbH
	DB	0d6H
	DB	0bbH
	DB	0d6H
	DB	0bbH
	DB	0deH
	DB	0bbH
	DB	0deH
	DB	0dbH
	DB	0deH
	DB	0bbH
	DB	0deH
	DB	0bbH
	DB	0d6H
	DB	0dbH
	DB	0deH
	DB	0dbH
	DB	0deH
	DB	0bbH
	DB	0d6H
	DB	0dbH
	DB	0d6H
	DB	0dbH
	DB	0deH
	DB	0bbH
	DB	0d6H
	DB	0dbH
	DB	0deH
	DB	0dbH
	DB	0deH
	DB	0bbH
	DB	0d6H
	DB	0dbH
	DB	0deH
	DB	0bbH
	DB	0d6H
	DB	0bbH
	DB	0d6H
	DB	0bbH
	DB	0deH
	DB	0dbH
	DB	0deH
	DB	0dbH
	DB	0deH
	DB	0bbH
	DB	0d6H
	DB	0dbH
	DB	0deH
	DB	0bbH
	DB	0deH
	DB	0dbH
	DB	0deH
	DB	0bbH
	DB	0d6H
	DB	0dbH
	DB	0deH
	DB	0dbH
	DB	0deH
	DB	0bbH
	DB	0deH
	DB	0bbH
	DB	0d6H
	DB	0bbH
	DB	0d6H
	DB	0dbH
	DB	0deH
	DB	0dbH
	DB	0deH
	DB	0bbH
	DB	0d6H
	DB	0bbH
	DB	0d6H
	DB	0bbH
	DB	0deH
	DB	0bbH
	DB	0deH
	DB	0bbH
	DB	0d6H
	DB	0bbH
	DB	0deH
	DB	0bbH
	DB	0deH
	DB	0bbH
	DB	0d6H
	DB	0bbH
	DB	0d6H
	DB	0bbH
	DB	0d6H
	DB	0bbH
	DB	0deH
	DB	0dbH
	DB	0d6H
	DB	0dcH
	DB	0deH
	DB	0bbH
	DB	0d6H
	DB	0dbH
	DB	0deH
	DB	09bH
	DB	0d6H
	DB	0dcH
	DB	0deH
	DB	0dbH
	DB	0deH
	DB	0dcH
	DB	0deH
	DB	0bbH
	DB	0d6H
	DB	0bbH
	DB	0d6H
	DB	0dbH
	DB	0deH
	DB	0bbH
	DB	0deH
	DB	0bbH
	DB	0d6H
	DB	0bbH
	DB	0d6H
	DB	0dbH
	DB	0deH
	DB	0dbH
	DB	0deH
	DB	0bbH
	DB	0d6H
	DB	0bbH
	DB	0deH
	DB	0bbH
	DB	0d6H
	DB	0dbH
	DB	0deH
	DB	0dbH
	DB	0deH
	DB	0dbH
	DB	0deH
	DB	0dbH
	DB	0deH
	DB	0bbH
	DB	0deH
	DB	0bbH
	DB	0d6H
	DB	0bbH
	DB	0deH
	DB	0dbH
	DB	0deH
	DB	0dbH
	DB	0deH
	DB	0bbH
	DB	0d6H
	DB	0bbH
	DB	0deH
	DB	0bbH
	DB	0d6H
	DB	0bbH
	DB	0deH
	DB	0bbH
	DB	0d6H
	DB	0dbH
	DB	0d6H
	DB	0dbH
	DB	0deH
	DB	0bbH
	DB	0deH
	DB	0bbH
	DB	0d6H
	DB	0dbH
	DB	0deH
	DB	0bbH
	DB	0d6H
	DB	0bbH
	DB	0deH
	DB	0bbH
	DB	0deH
	DB	0bbH
	DB	0d6H
	DB	0dbH
	DB	0deH
	DB	0bbH
	DB	0d6H
	DB	0bbH
	DB	0d6H
	DB	0bbH
	DB	0deH
	DB	0bbH
	DB	0d6H
	DB	0bbH
	DB	0deH
	DB	0bbH
	DB	0deH
	DB	0bbH
	DB	0deH
	DB	0bbH
	DB	0d6H
	DB	0bbH
	DB	0d6H
	DB	0dbH
	DB	0deH
	DB	0dbH
	DB	0deH
	DB	0bbH
	DB	0deH
	DB	0dbH
	DB	0deH
	DB	0bbH
	DB	0d6H
	DB	0bbH
	DB	0deH
	DB	0bbH
	DB	0d6H
	DB	0dbH
	DB	0deH
	DB	0bbH
	DB	0d6H
	DB	0bbH
	DB	0d6H
	DB	0bbH
	DB	0deH
	DB	0bbH
	DB	0d6H
	DB	0bbH
	DB	0deH
	DB	0bbH
	DB	0d6H
	DB	0bbH
	DB	0deH
	DB	0bbH
	DB	0d6H
	DB	0bbH
	DB	0deH
	DB	0dbH
	DB	0d6H
	DB	0bbH
	DB	0deH
	DB	0bbH
	DB	0d6H
	DB	0dbH
	DB	0deH
	DB	0dbH
	DB	0deH
	DB	0bbH
	DB	0deH
	DB	0bbH
	DB	0d6H
	DB	0bbH
	DB	0deH
	DB	0dbH
	DB	0deH
	DB	0dbH
	DB	0deH
	DB	0dbH
	DB	0deH
	DB	0bbH
	DB	0d6H
	DB	0dbH
	DB	0deH
	DB	0bbH
	DB	0deH
	DB	0dbH
	DB	0deH
	DB	0bbH
	DB	0d6H
	DB	0bbH
	DB	0deH
	DB	0bbH
	DB	0d6H
	DB	0dbH
	DB	0deH
	DB	0dbH
	DB	0deH
	DB	0bbH
	DB	0d6H
	DB	0bbH
	DB	0deH
	DB	0dbH
	DB	0deH
	DB	0bbH
	DB	0d6H
	DB	0bbH
	DB	0deH
	DB	0dbH
	DB	0deH
	DB	0dbH
	DB	0d6H
	DB	0bbH
	DB	0d6H
	DB	0dbH
	DB	0deH
	DB	0bbH
	DB	0d6H
	DB	0dbH
	DB	0deH
	DB	0bbH
	DB	0d6H
	DB	0bbH
	DB	0deH
	DB	0dbH
	DB	0deH
	DB	0bbH
	DB	0deH
	DB	0dbH
	DB	0deH
	DB	0dbH
	DB	0deH
	DB	0bbH
	DB	0deH
	DB	0bbH
	DB	0d6H
	DB	0dbH
	DB	0deH
	DB	0dbH
	DB	0deH
	DB	0bbH
	DB	0deH
	DB	0dbH
	DB	0deH
	DB	0dbH
	DB	0deH
	DB	0bbH
	DB	0d6H
	DB	0bbH
	DB	0d6H
	DB	0dbH
	DB	0deH
	DB	0bbH
	DB	0d6H
	DB	0bbH
	DB	0deH
	DB	0dbH
	DB	0deH
	DB	0bbH
	DB	0d6H
	DB	0bbH
	DB	0deH
	DB	0bbH
	DB	0d6H
	DB	0bbH
	DB	0d6H
	DB	0dbH
	DB	0deH
	DB	0bbH
	DB	0d6H
	DB	0dbH
	DB	0deH
	DB	0dbH
	DB	0deH
	DB	0dbH
	DB	0deH
	DB	0bbH
	DB	0d6H
	DB	0bbH
	DB	0deH
	DB	0bbH
	DB	0deH
	DB	0bbH
	DB	0deH
	DB	0bbH
	DB	0deH
	DB	0dbH
	DB	0deH
	DB	0dbH
	DB	0deH
	DB	0bbH
	DB	0d6H
	DB	0dbH
	DB	0deH
	DB	0bbH
	DB	0deH
	DB	0dbH
	DB	0deH
	DB	0bbH
	DB	0d6H
	DB	0bbH
	DB	0deH
	DB	0bbH
	DB	0d6H
	DB	0bbH
	DB	0d6H
	DB	0dbH
	DB	0deH
	DB	0bbH
	DB	0d6H
	DB	0bbH
	DB	0deH
	DB	0bbH
	DB	0deH
	DB	0dbH
	DB	0deH
	DB	0dbH
	DB	0deH
	DB	0bbH
	DB	0d6H
	DB	0bbH
	DB	0deH
	DB	0bbH
	DB	0d6H
	DB	0dbH
	DB	0deH
	DB	0bbH
	DB	0deH
	DB	0dbH
	DB	0deH
	DB	0bbH
	DB	0deH
	DB	0bbH
	DB	0d6H
	DB	0bbH
	DB	0d6H
	DB	0bbH
	DB	0d6H
	DB	0bbH
	DB	0deH
	DB	0bbH
	DB	0deH
	DB	0bbH
	DB	0d6H
	DB	0dbH
	DB	0deH
	DB	0dbH
	DB	0deH
	DB	0bbH
	DB	0d6H
	DB	0bbH
	DB	0d6H
	DB	0dbH
	DB	0deH
	DB	0dbH
	DB	0deH
	DB	0bcH
	DB	0d6H
	DB	0dbH
	DB	0deH
	DB	0dbH
	DB	0deH
	DB	0bcH
	DB	0d6H
	DB	0bbH
	DB	0deH
	DB	0bbH
	DB	0d6H
	DB	0dcH
	DB	0deH
	DB	0bbH
	DB	0d6H
	DB	0bbH
	DB	0d6H
	DB	0dcH
	DB	0deH
	DB	0dbH
	DB	0deH
	DB	0bbH
	DB	0deH
	DB	0bbH
	DB	0d6H
	DB	0bbH
	DB	0deH
	DB	0dcH
	DB	0deH
	DB	0dbH
	DB	0d6H
	DB	0bcH
	DB	0deH
	DB	0dcH
	DB	0d6H
	DB	0bbH
	DB	0d6H
	DB	0bbH
	DB	0d6H
	DB	0bbH
	DB	0deH
	DB	0bbH
	DB	0d6H
	DB	0bbH
	DB	0d6H
	DB	0bbH
	DB	0d6H
	DB	0dbH
	DB	0deH
	DB	0dcH
	DB	0deH
	DB	0bbH
	DB	0deH
	DB	0bbH
	DB	0d6H
	DB	0bbH
	DB	0d6H
	DB	0bbH
	DB	0deH
	DB	0dbH
	DB	0deH
	DB	0bbH
	DB	0deH
	DB	0dbH
	DB	0d6H
	DB	0bbH
	DB	0d6H
	DB	0bbH
	DB	0d6H
	DB	0dbH
	DB	0deH
	DB	0dbH
	DB	0deH
	DB	0dbH
	DB	0deH
	DB	0bbH
	DB	0d6H
	DB	09bH
	DB	0d6H
	DB	0bbH
	DB	0d6H
	DB	0dbH
	DB	0deH
	DB	0bbH
	DB	0d6H
	DB	0dbH
	DB	0deH
	DB	07aH
	DB	0ceH
	DB	0dbH
	DB	0deH
	DB	0bbH
	DB	0d6H
	DB	0bbH
	DB	0d6H
	DB	0bbH
	DB	0deH
	DB	0dbH
	DB	0d6H
	DB	0dcH
	DB	0deH
	DB	0dbH
	DB	0deH
	DB	0bcH
	DB	0deH
	DB	0dbH
	DB	0deH
	DB	0dbH
	DB	0d6H
	DB	0bcH
	DB	0deH
	DB	0bbH
	DB	0deH
	DB	0bbH
	DB	0d6H
	DB	0dcH
	DB	0deH
	DB	0bbH
	DB	0d6H
	DB	0bbH
	DB	0d6H
	DB	0bbH
	DB	0deH
	DB	0dcH
	DB	0deH
	DB	0dbH
	DB	0deH
	DB	0dbH
	DB	0d6H
	DB	0bbH
	DB	0d6H
	DB	0bbH
	DB	0d6H
	DB	0dcH
	DB	0deH
	DB	0dbH
	DB	0deH
	DB	0dbH
	DB	0deH
	DB	0bbH
	DB	0d6H
	DB	0bbH
	DB	0deH
	DB	0dcH
	DB	0deH
	DB	0bbH
	DB	0deH
	DB	0bbH
	DB	0d6H
	DB	0bbH
	DB	0deH
	DB	0dcH
	DB	0deH
	DB	0dbH
	DB	0d6H
	DB	0bbH
	DB	0d6H
	DB	0dbH
	DB	0deH
	DB	0dbH
	DB	0deH
	DB	0dcH
	DB	0deH
	DB	0bbH
	DB	0d6H
	DB	0bbH
	DB	0deH
	DB	0dcH
	DB	0deH
	DB	0dbH
	DB	0d6H
	DB	0dbH
	DB	0d6H
	DB	0dcH
	DB	0deH
	DB	0dbH
	DB	0d6H
	DB	0dcH
	DB	0deH
	DB	0bbH
	DB	0deH
	DB	0dcH
	DB	0d6H
	DB	0bbH
	DB	0d6H
	DB	0bbH
	DB	0deH
	DB	0bbH
	DB	0d6H
	DB	0dcH
	DB	0deH
	DB	0bbH
	DB	0d6H
	DB	0bbH
	DB	0deH
	DB	0bbH
	DB	0d6H
	DB	0bbH
	DB	0deH
	DB	0dcH
	DB	0deH
	DB	0dbH
	DB	0deH
	DB	0dbH
	DB	0deH
	DB	0dcH
	DB	0deH
	DB	0dbH
	DB	0deH
	DB	0bbH
	DB	0d6H
	DB	0dbH
	DB	0deH
	DB	0dbH
	DB	0deH
	DB	0dcH
	DB	0deH
	DB	0dbH
	DB	0deH
	DB	0bbH
	DB	0deH
	DB	0bbH
	DB	0d6H
	DB	0bbH
	DB	0d6H
	DB	0bbH
	DB	0deH
	DB	0bbH
	DB	0deH
	DB	0dcH
	DB	0d6H
	DB	0bbH
	DB	0deH
	DB	0bbH
	DB	0d6H
	DB	0bbH
	DB	0d6H
	DB	0bbH
	DB	0deH
	DB	0bbH
	DB	0d6H
	DB	0dcH
	DB	0deH
	DB	0dbH
	DB	0d6H
	DB	0bbH
	DB	0deH
	DB	0dcH
	DB	0deH
	DB	0dbH
	DB	0d6H
	DB	0bbH
	DB	0d6H
	DB	0dcH
	DB	0deH
	DB	0bbH
	DB	0d6H
	DB	0bbH
	DB	0d6H
	DB	0dcH
	DB	0deH
	DB	0dbH
	DB	0deH
	DB	0bbH
	DB	0d6H
	DB	0dcH
	DB	0deH
	DB	0bbH
	DB	0d6H
	DB	0bbH
	DB	0deH
	DB	0dcH
	DB	0deH
	DB	0dbH
	DB	0deH
	DB	0bbH
	DB	0d6H
	DB	0bbH
	DB	0d6H
	DB	0dcH
	DB	0deH
	DB	0dbH
	DB	0d6H
	DB	0bcH
	DB	0d6H
	DB	0dbH
	DB	0deH
	DB	0dbH
	DB	0deH
	DB	0bcH
	DB	0d6H
	DB	0dbH
	DB	0deH
	DB	0dcH
	DB	0deH
	DB	0bbH
	DB	0d6H
	DB	0bbH
	DB	0d6H
	DB	0bcH
	DB	0deH
	DB	0dbH
	DB	0deH
	DB	0dbH
	DB	0deH
	DB	0bbH
	DB	0d6H
	DB	0dcH
	DB	0deH
	DB	0bbH
	DB	0d6H
	DB	0bbH
	DB	0d6H
	DB	0dbH
	DB	0deH
	DB	0dcH
	DB	0deH
	DB	0dbH
	DB	0deH
	DB	0bbH
	DB	0deH
	DB	0bbH
	DB	0d6H
	DB	0dbH
	DB	0deH
	DB	0dcH
	DB	0deH
	DB	0bbH
	DB	0deH
	DB	0bbH
	DB	0d6H
	DB	0bbH
	DB	0d6H
	DB	0dbH
	DB	0deH
	DB	0bbH
	DB	0d6H
	DB	0dbH
	DB	0d6H
	DB	0bbH
	DB	0d6H
	DB	0bbH
	DB	0d6H
	DB	0bbH
	DB	0deH
	DB	0dcH
	DB	0deH
	DB	0bbH
	DB	0d6H
	DB	0bbH
	DB	0deH
	DB	0bbH
	DB	0d6H
	DB	0bbH
	DB	0d6H
	DB	0dcH
	DB	0deH
	DB	0dbH
	DB	0deH
	DB	0dbH
	DB	0deH
	DB	0dcH
	DB	0deH
	DB	0dbH
	DB	0deH
	DB	0bbH
	DB	0d6H
	DB	0bbH
	DB	0d6H
	DB	0dbH
	DB	0deH
	DB	0bbH
	DB	0d6H
	DB	0dcH
	DB	0deH
	DB	0bbH
	DB	0d6H
	DB	0bbH
	DB	0deH
	DB	0bbH
	DB	0d6H
	DB	0dbH
	DB	0d6H
	DB	0dcH
	DB	0deH
	DB	0bbH
	DB	0d6H
	DB	0bbH
	DB	0d6H
	DB	0bbH
	DB	0deH
	DB	0dbH
	DB	0deH
	DB	0dcH
	DB	0deH
	DB	0dbH
	DB	0deH
	DB	0bbH
	DB	0d6H
	DB	0bbH
	DB	0d6H
	DB	0bbH
	DB	0deH
	DB	0bbH
	DB	0deH
	DB	0bbH
	DB	0d6H
	DB	0bbH
	DB	0d6H
	DB	0dcH
	DB	0deH
	DB	0bbH
	DB	0d6H
	DB	0bbH
	DB	0deH
	DB	0dcH
	DB	0deH
	DB	0bbH
	DB	0d6H
	DB	0bbH
	DB	0d6H
	DB	0dcH
	DB	0deH
	DB	0bbH
	DB	0deH
	DB	0bbH
	DB	0d6H
	DB	0bbH
	DB	0deH
	DB	0bbH
	DB	0deH
	DB	0dcH
	DB	0deH
	DB	0bbH
	DB	0d6H
	DB	0dbH
	DB	0deH
	DB	0bbH
	DB	0d6H
	DB	0bbH
	DB	0d6H
	DB	0dbH
	DB	0deH
	DB	0bbH
	DB	0deH
	DB	0bbH
	DB	0deH
	DB	0bbH
	DB	0d6H
	DB	0bbH
	DB	0deH
	DB	0bbH
	DB	0d6H
	DB	0bbH
	DB	0d6H
	DB	0bbH
	DB	0d6H
	DB	0bbH
	DB	0deH
	DB	0bbH
	DB	0d6H
	DB	0dcH
	DB	0deH
	DB	0dbH
	DB	0deH
	DB	0bbH
	DB	0d6H
	DB	0bbH
	DB	0d6H
	DB	0bbH
	DB	0d6H
	DB	0dbH
	DB	0deH
	DB	0bbH
	DB	0deH
	DB	0bcH
	DB	0d6H
	DB	0dbH
	DB	0deH
	DB	0bbH
	DB	0d6H
	DB	0bbH
	DB	0deH
	DB	0bbH
	DB	0deH
	DB	0bbH
	DB	0d6H
	DB	0bbH
	DB	0deH
	DB	0bbH
	DB	0d6H
	DB	0bbH
	DB	0d6H
	DB	0bbH
	DB	0d6H
	DB	0dcH
	DB	0deH
	DB	09bH
	DB	0d6H
	DB	01cH
	DB	0e7H
	DB	07aH
	DB	0ceH
	DB	0bbH
	DB	0deH
	DB	09aH
	DB	0d6H
	DB	0bbH
	DB	0deH
	DB	0bbH
	DB	0d6H
	DB	0bbH
	DB	0deH
	DB	0bbH
	DB	0d6H
	DB	0bbH
	DB	0d6H
	DB	0dbH
	DB	0deH
	DB	0bbH
	DB	0d6H
	DB	0bbH
	DB	0deH
	DB	0dbH
	DB	0deH
	DB	0bbH
	DB	0d6H
	DB	0bbH
	DB	0d6H
	DB	0dbH
	DB	0deH
	DB	0bcH
	DB	0deH
	DB	0bbH
	DB	0d6H
	DB	0bbH
	DB	0d6H
	DB	0bbH
	DB	0d6H
	DB	0bbH
	DB	0d6H
	DB	0bbH
	DB	0deH
	DB	0bbH
	DB	0d6H
	DB	0bcH
	DB	0deH
	DB	0bbH
	DB	0deH
	DB	0bbH
	DB	0d6H
	DB	0dcH
	DB	0deH
	DB	0bbH
	DB	0deH
	DB	0dbH
	DB	0d6H
	DB	0bbH
	DB	0d6H
	DB	0dcH
	DB	0deH
	DB	0bbH
	DB	0d6H
	DB	0bbH
	DB	0d6H
	DB	0dbH
	DB	0deH
	DB	0bbH
	DB	0deH
	DB	0bbH
	DB	0d6H
	DB	0dcH
	DB	0deH
	DB	0bbH
	DB	0d6H
	DB	0bbH
	DB	0deH
	DB	0dbH
	DB	0deH
	DB	0bbH
	DB	0d6H
	DB	0bbH
	DB	0deH
	DB	0dbH
	DB	0deH
	DB	0bbH
	DB	0d6H
	DB	0bbH
	DB	0deH
	DB	0dbH
	DB	0deH
	DB	0bbH
	DB	0d6H
	DB	0dbH
	DB	0deH
	DB	0bbH
	DB	0d6H
	DB	0bcH
	DB	0deH
	DB	0bbH
	DB	0d6H
	DB	0dbH
	DB	0deH
	DB	0dbH
	DB	0deH
	DB	0bbH
	DB	0d6H
	DB	0bbH
	DB	0deH
	DB	0dcH
	DB	0deH
	DB	0bbH
	DB	0d6H
	DB	0dbH
	DB	0deH
	DB	0bbH
	DB	0d6H
	DB	0bbH
	DB	0d6H
	DB	0bbH
	DB	0d6H
	DB	0dcH
	DB	0deH
	DB	0bbH
	DB	0d6H
	DB	0bbH
	DB	0d6H
	DB	0bbH
	DB	0deH
	DB	0bbH
	DB	0d6H
	DB	0dcH
	DB	0d6H
	DB	0dcH
	DB	0deH
	DB	0bbH
	DB	0d6H
	DB	0bbH
	DB	0deH
	DB	0bbH
	DB	0d6H
	DB	0dbH
	DB	0d6H
	DB	0dbH
	DB	0deH
	DB	0bbH
	DB	0d6H
	DB	0bbH
	DB	0deH
	DB	0dcH
	DB	0deH
	DB	0bbH
	DB	0d6H
	DB	0bbH
	DB	0deH
	DB	0bbH
	DB	0d6H
	DB	0bbH
	DB	0d6H
	DB	0bbH
	DB	0deH
	DB	0bbH
	DB	0d6H
	DB	0bbH
	DB	0deH
	DB	0bcH
	DB	0deH
	DB	0bbH
	DB	0d6H
	DB	0dbH
	DB	0deH
	DB	0bbH
	DB	0deH
	DB	0bbH
	DB	0d6H
	DB	0dbH
	DB	0deH
	DB	0bbH
	DB	0deH
	DB	0bbH
	DB	0d6H
	DB	0dbH
	DB	0deH
	DB	0bbH
	DB	0deH
	DB	0bcH
	DB	0d6H
	DB	0dbH
	DB	0deH
	DB	0bbH
	DB	0d6H
	DB	0bbH
	DB	0deH
	DB	0dbH
	DB	0deH
	DB	0bcH
	DB	0d6H
	DB	0bbH
	DB	0deH
	DB	0bbH
	DB	0d6H
	DB	0dcH
	DB	0d6H
	DB	0bbH
	DB	0deH
	DB	0bbH
	DB	0deH
	DB	0bbH
	DB	0d6H
	DB	0bbH
	DB	0d6H
	DB	0bbH
	DB	0d6H
	DB	0dcH
	DB	0deH
	DB	0bbH
	DB	0d6H
	DB	0bbH
	DB	0deH
	DB	0bbH
	DB	0deH
	DB	0bbH
	DB	0d6H
	DB	0bbH
	DB	0d6H
	DB	0bbH
	DB	0deH
	DB	0dcH
	DB	0deH
	DB	0bbH
	DB	0d6H
	DB	0dbH
	DB	0deH
	DB	0bbH
	DB	0d6H
	DB	0bbH
	DB	0d6H
	DB	0dbH
	DB	0deH
	DB	0bcH
	DB	0deH
	DB	0dbH
	DB	0d6H
	DB	0bcH
	DB	0deH
	DB	0bbH
	DB	0deH
	DB	0bbH
	DB	0d6H
	DB	0dcH
	DB	0deH
	DB	0dbH
	DB	0deH
	DB	0bbH
	DB	0d6H
	DB	0bbH
	DB	0d6H
	DB	0bbH
	DB	0deH
	DB	0bbH
	DB	0d6H
	DB	0dbH
	DB	0deH
	DB	0bcH
	DB	0deH
	DB	0dbH
	DB	0d6H
	DB	0dbH
	DB	0deH
	DB	0bbH
	DB	0d6H
	DB	0bbH
	DB	0deH
	DB	0bbH
	DB	0d6H
	DB	0dbH
	DB	0deH
	DB	0bbH
	DB	0d6H
	DB	0bbH
	DB	0deH
	DB	0bbH
	DB	0d6H
	DB	0bbH
	DB	0d6H
	DB	0dcH
	DB	0deH
	DB	0bbH
	DB	0d6H
	DB	0bbH
	DB	0deH
	DB	0bbH
	DB	0d6H
	DB	0bbH
	DB	0d6H
	DB	0dbH
	DB	0deH
	DB	0bcH
	DB	0deH
	DB	0bbH
	DB	0d6H
	DB	0bbH
	DB	0d6H
	DB	0dcH
	DB	0deH
	DB	0bbH
	DB	0d6H
	DB	0bbH
	DB	0deH
	DB	0bbH
	DB	0d6H
	DB	0bbH
	DB	0deH
	DB	0bbH
	DB	0deH
	DB	0dbH
	DB	0d6H
	DB	0dbH
	DB	0deH
	DB	0bbH
	DB	0deH
	DB	0bbH
	DB	0d6H
	DB	0bbH
	DB	0deH
	DB	0dbH
	DB	0deH
	DB	0bbH
	DB	0d6H
	DB	0bbH
	DB	0d6H
	DB	0dbH
	DB	0deH
	DB	0bbH
	DB	0deH
	DB	0dbH
	DB	0deH
	DB	0bbH
	DB	0d6H
	DB	0bbH
	DB	0d6H
	DB	0dbH
	DB	0deH
	DB	0dbH
	DB	0deH
	DB	0bbH
	DB	0d6H
	DB	0dcH
	DB	0deH
	DB	0dbH
	DB	0deH
	DB	0bcH
	DB	0deH
	DB	0bbH
	DB	0d6H
	DB	0bbH
	DB	0d6H
	DB	0bbH
	DB	0d6H
	DB	0dbH
	DB	0deH
	DB	0dbH
	DB	0deH
	DB	0bbH
	DB	0d6H
	DB	0bbH
	DB	0deH
	DB	0bbH
	DB	0d6H
	DB	0bbH
	DB	0deH
	DB	0bbH
	DB	0d6H
	DB	0bbH
	DB	0deH
	DB	0bbH
	DB	0d6H
	DB	0dcH
	DB	0deH
	DB	0bbH
	DB	0d6H
	DB	0bbH
	DB	0deH
	DB	0bbH
	DB	0d6H
	DB	0bbH
	DB	0d6H
	DB	0bbH
	DB	0deH
	DB	0bbH
	DB	0d6H
	DB	0bbH
	DB	0d6H
	DB	0bbH
	DB	0d6H
	DB	0bbH
	DB	0d6H
	DB	09bH
	DB	0d6H
	DB	0bbH
	DB	0d6H
	DB	0bbH
	DB	0d6H
	DB	0bbH
	DB	0deH
	DB	0dbH
	DB	0deH
	DB	0dbH
	DB	0deH
	DB	0dcH
	DB	0deH
	DB	09aH
	DB	0d6H
	DB	0fcH
	DB	0deH
	DB	0dcH
	DB	0deH
	DB	0dcH
	DB	0deH
	DB	0bbH
	DB	0d6H
	DB	0bbH
	DB	0d6H
	DB	0bbH
	DB	0d6H
	DB	0bbH
	DB	0deH
	DB	0bbH
	DB	0d6H
	DB	0bbH
	DB	0d6H
	DB	0bbH
	DB	0deH
	DB	0bbH
	DB	0d6H
	DB	0dcH
	DB	0deH
	DB	0bbH
	DB	0d6H
	DB	0bbH
	DB	0d6H
	DB	0dbH
	DB	0deH
	DB	0bbH
	DB	0deH
	DB	0bbH
	DB	0d6H
	DB	0dbH
	DB	0deH
	DB	0dcH
	DB	0deH
	DB	0dbH
	DB	0deH
	DB	0bcH
	DB	0deH
	DB	0dbH
	DB	0deH
	DB	0dbH
	DB	0deH
	DB	0dcH
	DB	0deH
	DB	0bbH
	DB	0d6H
	DB	0bbH
	DB	0d6H
	DB	0bbH
	DB	0d6H
	DB	0bbH
	DB	0deH
	DB	0bbH
	DB	0deH
	DB	0dbH
	DB	0d6H
	DB	0bbH
	DB	0deH
	DB	0bbH
	DB	0deH
	DB	0dbH
	DB	0d6H
	DB	0dcH
	DB	0deH
	DB	0bbH
	DB	0deH
	DB	0dbH
	DB	0deH
	DB	0bbH
	DB	0d6H
	DB	0bcH
	DB	0deH
	DB	0bbH
	DB	0d6H
	DB	0bbH
	DB	0d6H
	DB	0dcH
	DB	0deH
	DB	0bbH
	DB	0d6H
	DB	0bbH
	DB	0d6H
	DB	0bcH
	DB	0deH
	DB	0bbH
	DB	0deH
	DB	0bbH
	DB	0d6H
	DB	0dcH
	DB	0deH
	DB	0bbH
	DB	0d6H
	DB	0dbH
	DB	0deH
	DB	0bbH
	DB	0deH
	DB	0dbH
	DB	0deH
	DB	0dcH
	DB	0d6H
	DB	0bbH
	DB	0deH
	DB	0bbH
	DB	0d6H
	DB	0dbH
	DB	0d6H
	DB	0bbH
	DB	0deH
	DB	0bbH
	DB	0d6H
	DB	0bbH
	DB	0d6H
	DB	0dcH
	DB	0deH
	DB	0bbH
	DB	0d6H
	DB	0dbH
	DB	0deH
	DB	0bbH
	DB	0deH
	DB	0dbH
	DB	0deH
	DB	0bbH
	DB	0d6H
	DB	0dcH
	DB	0deH
	DB	0bbH
	DB	0d6H
	DB	0bbH
	DB	0d6H
	DB	0bbH
	DB	0deH
	DB	0bbH
	DB	0d6H
	DB	0bbH
	DB	0deH
	DB	0dcH
	DB	0deH
	DB	0dbH
	DB	0deH
	DB	0bbH
	DB	0d6H
	DB	0bbH
	DB	0deH
	DB	0bbH
	DB	0d6H
	DB	0dcH
	DB	0deH
	DB	0dbH
	DB	0deH
	DB	0bbH
	DB	0d6H
	DB	0dcH
	DB	0deH
	DB	0dbH
	DB	0deH
	DB	0bbH
	DB	0d6H
	DB	0dcH
	DB	0deH
	DB	0dbH
	DB	0deH
	DB	0bbH
	DB	0deH
	DB	0bbH
	DB	0d6H
	DB	0dbH
	DB	0deH
	DB	0bcH
	DB	0deH
	DB	0dbH
	DB	0d6H
	DB	0bbH
	DB	0d6H
	DB	0bbH
	DB	0deH
	DB	0bbH
	DB	0d6H
	DB	0dcH
	DB	0deH
	DB	0dbH
	DB	0d6H
	DB	0bbH
	DB	0deH
	DB	0dbH
	DB	0deH
	DB	0bcH
	DB	0d6H
	DB	0bbH
	DB	0deH
	DB	0bbH
	DB	0d6H
	DB	0bbH
	DB	0deH
	DB	0dbH
	DB	0deH
	DB	0dbH
	DB	0deH
	DB	0bbH
	DB	0d6H
	DB	0bbH
	DB	0d6H
	DB	0dbH
	DB	0deH
	DB	0bbH
	DB	0d6H
	DB	0dcH
	DB	0deH
	DB	0dbH
	DB	0deH
	DB	0bbH
	DB	0d6H
	DB	0bbH
	DB	0d6H
	DB	0bbH
	DB	0d6H
	DB	0dcH
	DB	0deH
	DB	0bbH
	DB	0deH
	DB	0dbH
	DB	0deH
	DB	0dbH
	DB	0deH
	DB	0bbH
	DB	0d6H
	DB	0bbH
	DB	0deH
	DB	0dcH
	DB	0deH
	DB	0bbH
	DB	0d6H
	DB	0bbH
	DB	0deH
	DB	0dcH
	DB	0deH
	DB	0bbH
	DB	0d6H
	DB	0bbH
	DB	0d6H
	DB	0dbH
	DB	0deH
	DB	0dbH
	DB	0deH
	DB	0bcH
	DB	0d6H
	DB	0bbH
	DB	0deH
	DB	0bbH
	DB	0deH
	DB	0bcH
	DB	0deH
	DB	0dcH
	DB	0deH
	DB	0bbH
	DB	0d6H
	DB	0dbH
	DB	0deH
	DB	0bbH
	DB	0deH
	DB	0dbH
	DB	0d6H
	DB	0bbH
	DB	0deH
	DB	0bbH
	DB	0d6H
	DB	0bbH
	DB	0deH
	DB	0bbH
	DB	0d6H
	DB	0bbH
	DB	0d6H
	DB	0bbH
	DB	0d6H
	DB	0dcH
	DB	0deH
	DB	0bbH
	DB	0d6H
	DB	0dbH
	DB	0deH
	DB	0bcH
	DB	0deH
	DB	0bbH
	DB	0d6H
	DB	0dbH
	DB	0deH
	DB	0dbH
	DB	0deH
	DB	0bbH
	DB	0deH
	DB	0dcH
	DB	0deH
	DB	0bbH
	DB	0deH
	DB	0dbH
	DB	0deH
	DB	0dbH
	DB	0deH
	DB	0dbH
	DB	0deH
	DB	0bbH
	DB	0d6H
	DB	0dbH
	DB	0deH
	DB	0bbH
	DB	0deH
	DB	0dcH
	DB	0d6H
	DB	0bbH
	DB	0d6H
	DB	0dbH
	DB	0deH
	DB	0bcH
	DB	0deH
	DB	0bbH
	DB	0deH
	DB	0bbH
	DB	0d6H
	DB	0bbH
	DB	0d6H
	DB	0bbH
	DB	0deH
	DB	0bbH
	DB	0d6H
	DB	0bbH
	DB	0d6H
	DB	0bbH
	DB	0deH
	DB	0dcH
	DB	0deH
	DB	0bbH
	DB	0d6H
	DB	0dbH
	DB	0deH
	DB	0bbH
	DB	0d6H
	DB	0bbH
	DB	0deH
	DB	0dcH
	DB	0deH
	DB	0dbH
	DB	0d6H
	DB	0bbH
	DB	0d6H
	DB	0bbH
	DB	0deH
	DB	0bbH
	DB	0d6H
	DB	0bbH
	DB	0deH
	DB	0dcH
	DB	0deH
	DB	0bbH
	DB	0d6H
	DB	0bbH
	DB	0deH
	DB	0bcH
	DB	0d6H
	DB	0dcH
	DB	0deH
	DB	0dbH
	DB	0deH
	DB	0dcH
	DB	0deH
	DB	0bbH
	DB	0deH
	DB	0dcH
	DB	0deH
	DB	0dbH
	DB	0deH
	DB	0bbH
	DB	0d6H
	DB	0bbH
	DB	0d6H
	DB	0bbH
	DB	0d6H
	DB	0bbH
	DB	0deH
	DB	0bbH
	DB	0deH
	DB	0fcH
	DB	0deH
	DB	0fcH
	DB	0deH
	DB	0fcH
	DB	0e6H
	DB	0fcH
	DB	0deH
	DB	01dH
	DB	0e7H
	DB	01dH
	DB	0e7H
	DB	03dH
	DB	0efH
	DB	03dH
	DB	0e7H
	DB	01cH
	DB	0e7H
	DB	0bbH
	DB	0deH
	DB	0fcH
	DB	0deH
	DB	01dH
	DB	0e7H
	DB	01dH
	DB	0e7H
	DB	0fcH
	DB	0e6H
	DB	09eH
	DB	0f7H
	DB	05aH
	DB	0ceH
	DB	01dH
	DB	0e7H
	DB	0fcH
	DB	0deH
	DB	0fcH
	DB	0e6H
	DB	09bH
	DB	0d6H
	DB	0bbH
	DB	0d6H
	DB	0bbH
	DB	0deH
	DB	0bbH
	DB	0d6H
	DB	0bbH
	DB	0deH
	DB	0bbH
	DB	0d6H
	DB	0bbH
	DB	0deH
	DB	0dcH
	DB	0deH
	DB	0bbH
	DB	0d6H
	DB	0bbH
	DB	0d6H
	DB	0bbH
	DB	0deH
	DB	0bbH
	DB	0d6H
	DB	0dcH
	DB	0deH
	DB	0dbH
	DB	0deH
	DB	0bbH
	DB	0d6H
	DB	0bbH
	DB	0deH
	DB	0dbH
	DB	0d6H
	DB	0bcH
	DB	0d6H
	DB	0bbH
	DB	0deH
	DB	0dbH
	DB	0d6H
	DB	0dbH
	DB	0deH
	DB	0bbH
	DB	0deH
	DB	0bbH
	DB	0d6H
	DB	0dcH
	DB	0deH
	DB	0bbH
	DB	0deH
	DB	0bbH
	DB	0d6H
	DB	0dcH
	DB	0deH
	DB	0dbH
	DB	0deH
	DB	0bbH
	DB	0d6H
	DB	0bbH
	DB	0d6H
	DB	0bbH
	DB	0d6H
	DB	0dcH
	DB	0deH
	DB	0bbH
	DB	0d6H
	DB	0dbH
	DB	0deH
	DB	0bbH
	DB	0d6H
	DB	0bbH
	DB	0deH
	DB	0bbH
	DB	0d6H
	DB	0bbH
	DB	0deH
	DB	0bbH
	DB	0d6H
	DB	0dbH
	DB	0deH
	DB	0dbH
	DB	0deH
	DB	0dcH
	DB	0d6H
	DB	0bbH
	DB	0deH
	DB	0bbH
	DB	0deH
	DB	0dbH
	DB	0d6H
	DB	0bbH
	DB	0deH
	DB	0bcH
	DB	0d6H
	DB	0bbH
	DB	0d6H
	DB	0dbH
	DB	0deH
	DB	0dcH
	DB	0deH
	DB	0dbH
	DB	0deH
	DB	0bbH
	DB	0d6H
	DB	0bbH
	DB	0deH
	DB	0bbH
	DB	0deH
	DB	0dcH
	DB	0deH
	DB	0dbH
	DB	0deH
	DB	0bbH
	DB	0d6H
	DB	0dcH
	DB	0deH
	DB	0bbH
	DB	0deH
	DB	0bbH
	DB	0d6H
	DB	0bbH
	DB	0deH
	DB	0bbH
	DB	0deH
	DB	0bbH
	DB	0deH
	DB	0dbH
	DB	0deH
	DB	0bbH
	DB	0d6H
	DB	0dbH
	DB	0deH
	DB	0bcH
	DB	0deH
	DB	0bbH
	DB	0d6H
	DB	0bbH
	DB	0deH
	DB	0dcH
	DB	0deH
	DB	0dbH
	DB	0d6H
	DB	0bbH
	DB	0deH
	DB	0bbH
	DB	0deH
	DB	0dbH
	DB	0d6H
	DB	0bcH
	DB	0deH
	DB	0bbH
	DB	0d6H
	DB	0dbH
	DB	0deH
	DB	0bbH
	DB	0d6H
	DB	0dbH
	DB	0d6H
	DB	0bbH
	DB	0d6H
	DB	0bbH
	DB	0d6H
	DB	0dbH
	DB	0deH
	DB	0bbH
	DB	0d6H
	DB	0bcH
	DB	0deH
	DB	0dcH
	DB	0deH
	DB	0bbH
	DB	0d6H
	DB	0dbH
	DB	0deH
	DB	0bcH
	DB	0deH
	DB	0bbH
	DB	0d6H
	DB	0dbH
	DB	0deH
	DB	0dcH
	DB	0deH
	DB	0bbH
	DB	0d6H
	DB	0bbH
	DB	0d6H
	DB	0bbH
	DB	0deH
	DB	0bbH
	DB	0d6H
	DB	0bbH
	DB	0d6H
	DB	0dcH
	DB	0deH
	DB	0bbH
	DB	0deH
	DB	0dbH
	DB	0deH
	DB	0dcH
	DB	0deH
	DB	0bbH
	DB	0d6H
	DB	0bbH
	DB	0deH
	DB	0bbH
	DB	0deH
	DB	0dbH
	DB	0deH
	DB	0dcH
	DB	0deH
	DB	0bbH
	DB	0d6H
	DB	0bbH
	DB	0d6H
	DB	0dcH
	DB	0deH
	DB	0bbH
	DB	0d6H
	DB	0dbH
	DB	0deH
	DB	0bcH
	DB	0d6H
	DB	0dbH
	DB	0deH
	DB	0bbH
	DB	0d6H
	DB	0dbH
	DB	0deH
	DB	0bbH
	DB	0d6H
	DB	0dbH
	DB	0deH
	DB	0dbH
	DB	0deH
	DB	0bbH
	DB	0d6H
	DB	0dbH
	DB	0deH
	DB	0bbH
	DB	0deH
	DB	0bbH
	DB	0d6H
	DB	0dbH
	DB	0d6H
	DB	0bbH
	DB	0d6H
	DB	0bbH
	DB	0deH
	DB	0bbH
	DB	0d6H
	DB	0bbH
	DB	0d6H
	DB	0dcH
	DB	0deH
	DB	0bbH
	DB	0d6H
	DB	0dcH
	DB	0deH
	DB	0bbH
	DB	0deH
	DB	0dcH
	DB	0deH
	DB	0bbH
	DB	0d6H
	DB	0bbH
	DB	0deH
	DB	0bbH
	DB	0d6H
	DB	0bbH
	DB	0deH
	DB	0bbH
	DB	0deH
	DB	0bbH
	DB	0d6H
	DB	0dbH
	DB	0deH
	DB	0bbH
	DB	0deH
	DB	0bbH
	DB	0d6H
	DB	0bbH
	DB	0d6H
	DB	0bbH
	DB	0d6H
	DB	0dcH
	DB	0deH
	DB	0bbH
	DB	0d6H
	DB	0bbH
	DB	0d6H
	DB	0dbH
	DB	0deH
	DB	0bcH
	DB	0d6H
	DB	0bbH
	DB	0deH
	DB	0bbH
	DB	0d6H
	DB	0bbH
	DB	0d6H
	DB	0dcH
	DB	0deH
	DB	0dbH
	DB	0deH
	DB	0bbH
	DB	0d6H
	DB	0bbH
	DB	0d6H
	DB	0bbH
	DB	0d6H
	DB	0dbH
	DB	0deH
	DB	0bbH
	DB	0d6H
	DB	0bbH
	DB	0d6H
	DB	0dcH
	DB	0deH
	DB	0dcH
	DB	0deH
	DB	0dbH
	DB	0deH
	DB	0dbH
	DB	0deH
	DB	0bbH
	DB	0d6H
	DB	0bcH
	DB	0deH
	DB	0dbH
	DB	0d6H
	DB	0dbH
	DB	0deH
	DB	0bbH
	DB	0d6H
	DB	0bbH
	DB	0d6H
	DB	0bcH
	DB	0deH
	DB	0bbH
	DB	0deH
	DB	0bbH
	DB	0d6H
	DB	0dbH
	DB	0deH
	DB	0bbH
	DB	0d6H
	DB	0dbH
	DB	0deH
	DB	0bbH
	DB	0deH
	DB	0dbH
	DB	0deH
	DB	0dbH
	DB	0d6H
	DB	0bbH
	DB	0d6H
	DB	0bbH
	DB	0deH
	DB	0bbH
	DB	0d6H
	DB	0dbH
	DB	0d6H
	DB	0bbH
	DB	0deH
	DB	0bcH
	DB	0deH
	DB	0bbH
	DB	0d6H
	DB	0dcH
	DB	0deH
	DB	0bbH
	DB	0deH
	DB	0fcH
	DB	0deH
	DB	09aH
	DB	0d6H
	DB	076H
	DB	0b5H
	DB	0f4H
	DB	09cH
	DB	072H
	DB	094H
	DB	072H
	DB	08cH
	DB	0f0H
	DB	083H
	DB	04dH
	DB	06bH
	DB	0f0H
	DB	07bH
	DB	02dH
	DB	063H
	DB	072H
	DB	094H
	DB	03dH
	DB	0efH
	DB	097H
	DB	0b5H
	DB	0ccH
	DB	05aH
	DB	0abH
	DB	052H
	DB	0cbH
	DB	05aH
	DB	0cbH
	DB	05aH
	DB	0c8H
	DB	039H
	DB	06aH
	DB	04aH
	DB	0cbH
	DB	05aH
	DB	05aH
	DB	0ceH
	DB	01dH
	DB	0e7H
	DB	0bbH
	DB	0d6H
	DB	0bbH
	DB	0d6H
	DB	0dcH
	DB	0deH
	DB	0bbH
	DB	0d6H
	DB	0bbH
	DB	0d6H
	DB	0bbH
	DB	0deH
	DB	0bbH
	DB	0d6H
	DB	0dbH
	DB	0deH
	DB	0bbH
	DB	0deH
	DB	0dcH
	DB	0deH
	DB	0dbH
	DB	0d6H
	DB	0bbH
	DB	0deH
	DB	0bbH
	DB	0d6H
	DB	0dbH
	DB	0deH
	DB	0bcH
	DB	0deH
	DB	0dbH
	DB	0d6H
	DB	0dbH
	DB	0deH
	DB	0bbH
	DB	0deH
	DB	0bbH
	DB	0d6H
	DB	0dcH
	DB	0deH
	DB	0dbH
	DB	0deH
	DB	0bbH
	DB	0d6H
	DB	0dbH
	DB	0deH
	DB	0dbH
	DB	0d6H
	DB	0bbH
	DB	0deH
	DB	0bbH
	DB	0d6H
	DB	0bbH
	DB	0d6H
	DB	0dcH
	DB	0deH
	DB	0bbH
	DB	0deH
	DB	0dbH
	DB	0deH
	DB	0bbH
	DB	0d6H
	DB	0dbH
	DB	0deH
	DB	0bbH
	DB	0d6H
	DB	0dcH
	DB	0deH
	DB	0bbH
	DB	0d6H
	DB	0dbH
	DB	0deH
	DB	0dcH
	DB	0deH
	DB	0dbH
	DB	0deH
	DB	0bbH
	DB	0d6H
	DB	0dbH
	DB	0deH
	DB	0bbH
	DB	0deH
	DB	0bbH
	DB	0d6H
	DB	0bcH
	DB	0deH
	DB	0bbH
	DB	0d6H
	DB	0dbH
	DB	0deH
	DB	0dbH
	DB	0deH
	DB	0bbH
	DB	0deH
	DB	0bbH
	DB	0deH
	DB	0dcH
	DB	0d6H
	DB	0bbH
	DB	0d6H
	DB	0dbH
	DB	0deH
	DB	0dcH
	DB	0deH
	DB	0dbH
	DB	0d6H
	DB	0bbH
	DB	0deH
	DB	0bbH
	DB	0d6H
	DB	0dbH
	DB	0deH
	DB	0dcH
	DB	0d6H
	DB	0bbH
	DB	0deH
	DB	0dbH
	DB	0d6H
	DB	0dbH
	DB	0deH
	DB	0bbH
	DB	0d6H
	DB	0bbH
	DB	0d6H
	DB	0bbH
	DB	0d6H
	DB	0dcH
	DB	0deH
	DB	0dbH
	DB	0deH
	DB	0dbH
	DB	0d6H
	DB	0bbH
	DB	0d6H
	DB	0dcH
	DB	0deH
	DB	0dbH
	DB	0deH
	DB	0bbH
	DB	0d6H
	DB	0bbH
	DB	0d6H
	DB	0dcH
	DB	0deH
	DB	0bbH
	DB	0deH
	DB	0bbH
	DB	0d6H
	DB	0dbH
	DB	0deH
	DB	0bbH
	DB	0d6H
	DB	0bcH
	DB	0deH
	DB	0bbH
	DB	0deH
	DB	0dcH
	DB	0deH
	DB	0bbH
	DB	0deH
	DB	0dbH
	DB	0d6H
	DB	0dbH
	DB	0deH
	DB	0bbH
	DB	0d6H
	DB	0dbH
	DB	0deH
	DB	0dbH
	DB	0deH
	DB	0bbH
	DB	0d6H
	DB	0dbH
	DB	0deH
	DB	0bbH
	DB	0deH
	DB	0bbH
	DB	0d6H
	DB	0dbH
	DB	0deH
	DB	0dbH
	DB	0deH
	DB	0dbH
	DB	0deH
	DB	0dcH
	DB	0deH
	DB	0dbH
	DB	0deH
	DB	0bbH
	DB	0d6H
	DB	0bcH
	DB	0deH
	DB	0bbH
	DB	0d6H
	DB	0bbH
	DB	0d6H
	DB	0bbH
	DB	0deH
	DB	0dbH
	DB	0deH
	DB	0bbH
	DB	0d6H
	DB	0dcH
	DB	0d6H
	DB	0bbH
	DB	0deH
	DB	0dbH
	DB	0deH
	DB	0bbH
	DB	0d6H
	DB	0bbH
	DB	0deH
	DB	0dbH
	DB	0deH
	DB	0bbH
	DB	0d6H
	DB	0bcH
	DB	0deH
	DB	0dbH
	DB	0deH
	DB	0dbH
	DB	0d6H
	DB	0bcH
	DB	0deH
	DB	0bbH
	DB	0deH
	DB	0bbH
	DB	0d6H
	DB	0dcH
	DB	0deH
	DB	0bbH
	DB	0deH
	DB	0bcH
	DB	0d6H
	DB	0dcH
	DB	0deH
	DB	0dbH
	DB	0deH
	DB	0bbH
	DB	0deH
	DB	0dcH
	DB	0deH
	DB	0dbH
	DB	0deH
	DB	0bbH
	DB	0d6H
	DB	0bbH
	DB	0deH
	DB	0bbH
	DB	0deH
	DB	0dbH
	DB	0deH
	DB	0bbH
	DB	0d6H
	DB	0bbH
	DB	0deH
	DB	0dcH
	DB	0d6H
	DB	0dbH
	DB	0deH
	DB	0bbH
	DB	0d6H
	DB	0bbH
	DB	0deH
	DB	0dcH
	DB	0deH
	DB	0bbH
	DB	0d6H
	DB	0bbH
	DB	0d6H
	DB	0bbH
	DB	0deH
	DB	0dcH
	DB	0deH
	DB	0dbH
	DB	0d6H
	DB	0dbH
	DB	0deH
	DB	0bcH
	DB	0deH
	DB	0dbH
	DB	0deH
	DB	0dbH
	DB	0deH
	DB	0bbH
	DB	0d6H
	DB	0dbH
	DB	0deH
	DB	0bcH
	DB	0deH
	DB	0dbH
	DB	0d6H
	DB	0bbH
	DB	0deH
	DB	0dcH
	DB	0deH
	DB	0bbH
	DB	0deH
	DB	0bbH
	DB	0d6H
	DB	0dbH
	DB	0deH
	DB	0bbH
	DB	0deH
	DB	0bbH
	DB	0deH
	DB	0dbH
	DB	0deH
	DB	0dbH
	DB	0deH
	DB	0bbH
	DB	0d6H
	DB	0bbH
	DB	0deH
	DB	0dbH
	DB	0deH
	DB	0bbH
	DB	0d6H
	DB	0bbH
	DB	0deH
	DB	0bbH
	DB	0d6H
	DB	0dbH
	DB	0deH
	DB	0bbH
	DB	0d6H
	DB	0bcH
	DB	0deH
	DB	0dbH
	DB	0deH
	DB	0bcH
	DB	0deH
	DB	0dbH
	DB	0deH
	DB	0bbH
	DB	0d6H
	DB	0dcH
	DB	0deH
	DB	0bbH
	DB	0d6H
	DB	0bbH
	DB	0d6H
	DB	0bbH
	DB	0deH
	DB	0bbH
	DB	0d6H
	DB	0dcH
	DB	0d6H
	DB	0bbH
	DB	0deH
	DB	0bbH
	DB	0d6H
	DB	0dbH
	DB	0deH
	DB	0bbH
	DB	0d6H
	DB	0bbH
	DB	0d6H
	DB	0bbH
	DB	0d6H
	DB	0bbH
	DB	0d6H
	DB	0bbH
	DB	0d6H
	DB	0bbH
	DB	0deH
	DB	0bbH
	DB	0d6H
	DB	0bbH
	DB	0d6H
	DB	0bbH
	DB	0d6H
	DB	0d0H
	DB	07bH
	DB	083H
	DB	010H
	DB	062H
	DB	010H
	DB	042H
	DB	08H
	DB	041H
	DB	08H
	DB	021H
	DB	00H
	DB	00H
	DB	00H
	DB	021H
	DB	00H
	DB	00H
	DB	00H
	DB	042H
	DB	08H
	DB	055H
	DB	0adH
	DB	0abH
	DB	052H
	DB	00H
	DB	00H
	DB	083H
	DB	010H
	DB	00H
	DB	00H
	DB	00H
	DB	00H
	DB	00H
	DB	00H
	DB	00H
	DB	00H
	DB	082H
	DB	010H
	DB	076H
	DB	0adH
	DB	03dH
	DB	0e7H
	DB	0bbH
	DB	0d6H
	DB	0bbH
	DB	0deH
	DB	0dbH
	DB	0deH
	DB	0bbH
	DB	0d6H
	DB	0bbH
	DB	0d6H
	DB	0bbH
	DB	0d6H
	DB	0dcH
	DB	0deH
	DB	0bbH
	DB	0d6H
	DB	0bbH
	DB	0d6H
	DB	0dbH
	DB	0deH
	DB	0bbH
	DB	0d6H
	DB	0bbH
	DB	0d6H
	DB	0dcH
	DB	0deH
	DB	0dbH
	DB	0deH
	DB	0bbH
	DB	0d6H
	DB	0bcH
	DB	0deH
	DB	0bbH
	DB	0d6H
	DB	0bbH
	DB	0d6H
	DB	0dcH
	DB	0deH
	DB	0bbH
	DB	0deH
	DB	0bbH
	DB	0d6H
	DB	0dcH
	DB	0deH
	DB	0bbH
	DB	0deH
	DB	0bbH
	DB	0d6H
	DB	0dcH
	DB	0deH
	DB	0bbH
	DB	0deH
	DB	0dbH
	DB	0deH
	DB	0bbH
	DB	0d6H
	DB	0dcH
	DB	0deH
	DB	0bbH
	DB	0deH
	DB	0bbH
	DB	0d6H
	DB	0bbH
	DB	0deH
	DB	0dbH
	DB	0deH
	DB	0bbH
	DB	0d6H
	DB	0dbH
	DB	0deH
	DB	0dbH
	DB	0deH
	DB	0bbH
	DB	0d6H
	DB	0bbH
	DB	0d6H
	DB	0dcH
	DB	0deH
	DB	0bbH
	DB	0d6H
	DB	0bbH
	DB	0d6H
	DB	0bbH
	DB	0deH
	DB	0dbH
	DB	0deH
	DB	0bbH
	DB	0d6H
	DB	0dbH
	DB	0d6H
	DB	0bbH
	DB	0d6H
	DB	0bbH
	DB	0d6H
	DB	0dbH
	DB	0deH
	DB	0bbH
	DB	0deH
	DB	0bbH
	DB	0d6H
	DB	0bcH
	DB	0deH
	DB	0bbH
	DB	0d6H
	DB	0bbH
	DB	0d6H
	DB	0bbH
	DB	0d6H
	DB	0bbH
	DB	0deH
	DB	0dcH
	DB	0deH
	DB	0bbH
	DB	0d6H
	DB	0bbH
	DB	0d6H
	DB	0dcH
	DB	0deH
	DB	0bbH
	DB	0d6H
	DB	0bbH
	DB	0deH
	DB	0bbH
	DB	0d6H
	DB	0dcH
	DB	0deH
	DB	0bbH
	DB	0d6H
	DB	0bbH
	DB	0deH
	DB	0dbH
	DB	0deH
	DB	0bbH
	DB	0deH
	DB	0bbH
	DB	0d6H
	DB	0bbH
	DB	0d6H
	DB	0bbH
	DB	0deH
	DB	0dcH
	DB	0deH
	DB	0dbH
	DB	0d6H
	DB	0bbH
	DB	0d6H
	DB	0dbH
	DB	0deH
	DB	0bbH
	DB	0d6H
	DB	0bbH
	DB	0deH
	DB	0dbH
	DB	0deH
	DB	0dbH
	DB	0deH
	DB	0bbH
	DB	0d6H
	DB	0bcH
	DB	0deH
	DB	0bbH
	DB	0deH
	DB	0dcH
	DB	0deH
	DB	0bbH
	DB	0d6H
	DB	0bbH
	DB	0deH
	DB	0bbH
	DB	0d6H
	DB	0dcH
	DB	0deH
	DB	0dbH
	DB	0d6H
	DB	0bcH
	DB	0deH
	DB	0dbH
	DB	0d6H
	DB	0bbH
	DB	0d6H
	DB	0bbH
	DB	0d6H
	DB	0bbH
	DB	0d6H
	DB	0bbH
	DB	0d6H
	DB	0bbH
	DB	0deH
	DB	0bbH
	DB	0d6H
	DB	0bbH
	DB	0deH
	DB	0dbH
	DB	0deH
	DB	0dbH
	DB	0d6H
	DB	0bcH
	DB	0deH
	DB	0bbH
	DB	0d6H
	DB	0bbH
	DB	0d6H
	DB	0dbH
	DB	0deH
	DB	0bbH
	DB	0deH
	DB	0bbH
	DB	0d6H
	DB	0bbH
	DB	0d6H
	DB	0bbH
	DB	0deH
	DB	0bbH
	DB	0d6H
	DB	0dbH
	DB	0deH
	DB	0bbH
	DB	0d6H
	DB	0bbH
	DB	0d6H
	DB	0dbH
	DB	0deH
	DB	0bbH
	DB	0d6H
	DB	0bbH
	DB	0d6H
	DB	0bbH
	DB	0d6H
	DB	0dbH
	DB	0deH
	DB	0bbH
	DB	0deH
	DB	0dbH
	DB	0d6H
	DB	0bbH
	DB	0d6H
	DB	0dbH
	DB	0deH
	DB	0bcH
	DB	0d6H
	DB	0bbH
	DB	0deH
	DB	0bbH
	DB	0d6H
	DB	0dbH
	DB	0deH
	DB	0dcH
	DB	0d6H
	DB	0dbH
	DB	0deH
	DB	0bbH
	DB	0d6H
	DB	0dbH
	DB	0deH
	DB	0bbH
	DB	0d6H
	DB	0bbH
	DB	0d6H
	DB	0bbH
	DB	0d6H
	DB	0dbH
	DB	0deH
	DB	0bbH
	DB	0d6H
	DB	0bbH
	DB	0d6H
	DB	0dcH
	DB	0deH
	DB	0dbH
	DB	0deH
	DB	0bbH
	DB	0d6H
	DB	0bbH
	DB	0d6H
	DB	0bbH
	DB	0d6H
	DB	0bbH
	DB	0d6H
	DB	0bbH
	DB	0deH
	DB	0bbH
	DB	0d6H
	DB	0bbH
	DB	0d6H
	DB	0bbH
	DB	0deH
	DB	0bbH
	DB	0d6H
	DB	0dbH
	DB	0deH
	DB	0bbH
	DB	0d6H
	DB	0dbH
	DB	0deH
	DB	0bbH
	DB	0d6H
	DB	0dbH
	DB	0deH
	DB	0bbH
	DB	0d6H
	DB	0bcH
	DB	0deH
	DB	0dbH
	DB	0deH
	DB	0bbH
	DB	0d6H
	DB	0bbH
	DB	0d6H
	DB	0bbH
	DB	0deH
	DB	0bbH
	DB	0d6H
	DB	0bbH
	DB	0d6H
	DB	0dcH
	DB	0deH
	DB	0bbH
	DB	0d6H
	DB	0dcH
	DB	0deH
	DB	0dbH
	DB	0deH
	DB	0bbH
	DB	0d6H
	DB	0dbH
	DB	0deH
	DB	0bbH
	DB	0d6H
	DB	0bbH
	DB	0d6H
	DB	0bbH
	DB	0d6H
	DB	0bbH
	DB	0d6H
	DB	0bbH
	DB	0deH
	DB	0bbH
	DB	0d6H
	DB	0dbH
	DB	0deH
	DB	0bbH
	DB	0d6H
	DB	0bbH
	DB	0d6H
	DB	0bbH
	DB	0d6H
	DB	0bbH
	DB	0d6H
	DB	0bcH
	DB	0deH
	DB	0bbH
	DB	0deH
	DB	0dcH
	DB	0deH
	DB	0dbH
	DB	0deH
	DB	0bcH
	DB	0deH
	DB	0dbH
	DB	0deH
	DB	0dbH
	DB	0deH
	DB	0bbH
	DB	0d6H
	DB	0dcH
	DB	0deH
	DB	07aH
	DB	0d6H
	DB	0bbH
	DB	0d6H
	DB	0fcH
	DB	0deH
	DB	0afH
	DB	07bH
	DB	00H
	DB	00H
	DB	01H
	DB	00H
	DB	00H
	DB	00H
	DB	042H
	DB	08H
	DB	021H
	DB	00H
	DB	021H
	DB	00H
	DB	062H
	DB	08H
	DB	00H
	DB	00H
	DB	0ccH
	DB	05aH
	DB	0afH
	DB	073H
	DB	021H
	DB	00H
	DB	00H
	DB	00H
	DB	00H
	DB	00H
	DB	00H
	DB	00H
	DB	041H
	DB	08H
	DB	021H
	DB	00H
	DB	01H
	DB	00H
	DB	062H
	DB	010H
	DB	0f8H
	DB	0bdH
	DB	0dcH
	DB	0deH
	DB	09bH
	DB	0deH
	DB	0bbH
	DB	0deH
	DB	0dbH
	DB	0deH
	DB	0bbH
	DB	0d6H
	DB	0bbH
	DB	0deH
	DB	0bbH
	DB	0deH
	DB	0bbH
	DB	0deH
	DB	0dbH
	DB	0deH
	DB	0bbH
	DB	0d6H
	DB	0bbH
	DB	0deH
	DB	0dcH
	DB	0deH
	DB	0bbH
	DB	0d6H
	DB	0bbH
	DB	0deH
	DB	0bbH
	DB	0d6H
	DB	0dbH
	DB	0deH
	DB	0dbH
	DB	0deH
	DB	0bbH
	DB	0deH
	DB	0dbH
	DB	0deH
	DB	0bbH
	DB	0d6H
	DB	0bbH
	DB	0d6H
	DB	0dbH
	DB	0deH
	DB	0bbH
	DB	0d6H
	DB	0bcH
	DB	0deH
	DB	0dbH
	DB	0deH
	DB	0bbH
	DB	0d6H
	DB	0dcH
	DB	0deH
	DB	0bbH
	DB	0d6H
	DB	0dbH
	DB	0deH
	DB	0bbH
	DB	0d6H
	DB	0bbH
	DB	0d6H
	DB	0bbH
	DB	0d6H
	DB	0dcH
	DB	0deH
	DB	0bbH
	DB	0deH
	DB	0bbH
	DB	0d6H
	DB	0bbH
	DB	0d6H
	DB	0bbH
	DB	0deH
	DB	0bbH
	DB	0d6H
	DB	0bcH
	DB	0deH
	DB	0dbH
	DB	0deH
	DB	0dbH
	DB	0deH
	DB	0bcH
	DB	0d6H
	DB	0dbH
	DB	0deH
	DB	0bbH
	DB	0d6H
	DB	0bbH
	DB	0deH
	DB	0bcH
	DB	0deH
	DB	0dcH
	DB	0deH
	DB	0bbH
	DB	0deH
	DB	0dcH
	DB	0d6H
	DB	0dbH
	DB	0deH
	DB	0bbH
	DB	0deH
	DB	0bbH
	DB	0d6H
	DB	0dbH
	DB	0deH
	DB	0dbH
	DB	0deH
	DB	0bcH
	DB	0deH
	DB	0dbH
	DB	0deH
	DB	0bbH
	DB	0deH
	DB	0bbH
	DB	0deH
	DB	0dbH
	DB	0deH
	DB	0bbH
	DB	0d6H
	DB	0dcH
	DB	0deH
	DB	0bbH
	DB	0deH
	DB	0dbH
	DB	0deH
	DB	0dbH
	DB	0deH
	DB	0bbH
	DB	0d6H
	DB	0bbH
	DB	0d6H
	DB	0bbH
	DB	0deH
	DB	0bbH
	DB	0d6H
	DB	0dcH
	DB	0deH
	DB	0bbH
	DB	0deH
	DB	0bbH
	DB	0d6H
	DB	0bbH
	DB	0deH
	DB	0bbH
	DB	0deH
	DB	0dbH
	DB	0deH
	DB	0bcH
	DB	0deH
	DB	0bbH
	DB	0deH
	DB	0dcH
	DB	0d6H
	DB	0bbH
	DB	0d6H
	DB	0bbH
	DB	0d6H
	DB	0dbH
	DB	0deH
	DB	0dbH
	DB	0d6H
	DB	0bbH
	DB	0deH
	DB	0bbH
	DB	0d6H
	DB	0dcH
	DB	0deH
	DB	0bbH
	DB	0d6H
	DB	0bbH
	DB	0deH
	DB	0bbH
	DB	0d6H
	DB	0dcH
	DB	0deH
	DB	0bbH
	DB	0deH
	DB	0dbH
	DB	0deH
	DB	0bcH
	DB	0deH
	DB	0bcH
	DB	0deH
	DB	0dbH
	DB	0deH
	DB	0bbH
	DB	0deH
	DB	0dcH
	DB	0d6H
	DB	0dbH
	DB	0deH
	DB	0dbH
	DB	0deH
	DB	0bbH
	DB	0d6H
	DB	0bbH
	DB	0d6H
	DB	0bbH
	DB	0deH
	DB	0bbH
	DB	0deH
	DB	0dcH
	DB	0deH
	DB	0bbH
	DB	0d6H
	DB	0bbH
	DB	0d6H
	DB	0bbH
	DB	0deH
	DB	0dcH
	DB	0deH
	DB	0dcH
	DB	0deH
	DB	0dbH
	DB	0d6H
	DB	0bbH
	DB	0d6H
	DB	0bcH
	DB	0deH
	DB	0dbH
	DB	0deH
	DB	0bbH
	DB	0d6H
	DB	0dcH
	DB	0deH
	DB	0dbH
	DB	0deH
	DB	0bbH
	DB	0d6H
	DB	0bbH
	DB	0d6H
	DB	0dcH
	DB	0deH
	DB	0bbH
	DB	0deH
	DB	0dbH
	DB	0deH
	DB	0bbH
	DB	0d6H
	DB	0dbH
	DB	0deH
	DB	0dbH
	DB	0d6H
	DB	0bbH
	DB	0deH
	DB	0bbH
	DB	0d6H
	DB	0bbH
	DB	0d6H
	DB	0bbH
	DB	0d6H
	DB	0bcH
	DB	0deH
	DB	0bbH
	DB	0d6H
	DB	0dbH
	DB	0deH
	DB	0bbH
	DB	0deH
	DB	0dcH
	DB	0deH
	DB	0bbH
	DB	0deH
	DB	0bbH
	DB	0d6H
	DB	0dbH
	DB	0deH
	DB	0bbH
	DB	0d6H
	DB	0bbH
	DB	0deH
	DB	0dbH
	DB	0deH
	DB	0bcH
	DB	0deH
	DB	0dbH
	DB	0deH
	DB	0bbH
	DB	0deH
	DB	0dcH
	DB	0deH
	DB	0dbH
	DB	0deH
	DB	0dcH
	DB	0deH
	DB	0bbH
	DB	0d6H
	DB	0dcH
	DB	0deH
	DB	0bbH
	DB	0deH
	DB	0dcH
	DB	0deH
	DB	0bbH
	DB	0d6H
	DB	0bbH
	DB	0d6H
	DB	0dcH
	DB	0deH
	DB	0dbH
	DB	0deH
	DB	0bbH
	DB	0d6H
	DB	0bbH
	DB	0d6H
	DB	0dcH
	DB	0deH
	DB	0bbH
	DB	0deH
	DB	0dbH
	DB	0deH
	DB	0bbH
	DB	0d6H
	DB	0bbH
	DB	0deH
	DB	0dbH
	DB	0deH
	DB	0bbH
	DB	0d6H
	DB	0dcH
	DB	0deH
	DB	0bbH
	DB	0d6H
	DB	0bbH
	DB	0deH
	DB	0bbH
	DB	0d6H
	DB	0bbH
	DB	0deH
	DB	0bbH
	DB	0deH
	DB	0bbH
	DB	0d6H
	DB	0dbH
	DB	0deH
	DB	0bbH
	DB	0d6H
	DB	0bbH
	DB	0deH
	DB	0dcH
	DB	0deH
	DB	0bbH
	DB	0d6H
	DB	0bbH
	DB	0deH
	DB	0bbH
	DB	0deH
	DB	0bbH
	DB	0d6H
	DB	0bbH
	DB	0d6H
	DB	0bbH
	DB	0deH
	DB	0dbH
	DB	0d6H
	DB	0bbH
	DB	0d6H
	DB	0bbH
	DB	0deH
	DB	0bbH
	DB	0d6H
	DB	0bbH
	DB	0deH
	DB	0bbH
	DB	0deH
	DB	0bbH
	DB	0d6H
	DB	0dbH
	DB	0deH
	DB	0fcH
	DB	0e6H
	DB	01cH
	DB	0e7H
	DB	0d4H
	DB	09cH
	DB	0c3H
	DB	018H
	DB	021H
	DB	00H
	DB	021H
	DB	00H
	DB	021H
	DB	00H
	DB	00H
	DB	00H
	DB	00H
	DB	00H
	DB	062H
	DB	010H
	DB	00H
	DB	00H
	DB	02dH
	DB	063H
	DB	072H
	DB	08cH
	DB	021H
	DB	08H
	DB	087H
	DB	031H
	DB	05H
	DB	021H
	DB	087H
	DB	031H
	DB	046H
	DB	029H
	DB	01H
	DB	00H
	DB	062H
	DB	010H
	DB	0c3H
	DB	018H
	DB	0f8H
	DB	0c5H
	DB	03dH
	DB	0e7H
	DB	09aH
	DB	0d6H
	DB	0bbH
	DB	0d6H
	DB	0bbH
	DB	0d6H
	DB	0bbH
	DB	0deH
	DB	0bbH
	DB	0d6H
	DB	0bbH
	DB	0d6H
	DB	0bbH
	DB	0d6H
	DB	0dbH
	DB	0deH
	DB	0bbH
	DB	0d6H
	DB	0bbH
	DB	0d6H
	DB	0bbH
	DB	0deH
	DB	0dbH
	DB	0deH
	DB	0bbH
	DB	0d6H
	DB	0bbH
	DB	0d6H
	DB	0dcH
	DB	0deH
	DB	0bbH
	DB	0d6H
	DB	0bbH
	DB	0d6H
	DB	0dcH
	DB	0deH
	DB	0bbH
	DB	0d6H
	DB	0bbH
	DB	0deH
	DB	0dcH
	DB	0deH
	DB	0bbH
	DB	0d6H
	DB	0dbH
	DB	0d6H
	DB	0bbH
	DB	0d6H
	DB	0bbH
	DB	0deH
	DB	0bbH
	DB	0d6H
	DB	0dbH
	DB	0deH
	DB	0bbH
	DB	0d6H
	DB	0dcH
	DB	0deH
	DB	0bbH
	DB	0deH
	DB	0dbH
	DB	0deH
	DB	0bbH
	DB	0d6H
	DB	0dcH
	DB	0deH
	DB	0dcH
	DB	0deH
	DB	0bbH
	DB	0deH
	DB	0bbH
	DB	0d6H
	DB	0bbH
	DB	0d6H
	DB	0dbH
	DB	0deH
	DB	0bbH
	DB	0d6H
	DB	0bbH
	DB	0d6H
	DB	0dcH
	DB	0deH
	DB	0bbH
	DB	0d6H
	DB	0dbH
	DB	0deH
	DB	0bcH
	DB	0d6H
	DB	0bbH
	DB	0d6H
	DB	0bbH
	DB	0deH
	DB	0bbH
	DB	0d6H
	DB	0dbH
	DB	0deH
	DB	0bcH
	DB	0deH
	DB	0dbH
	DB	0d6H
	DB	0dbH
	DB	0deH
	DB	0bbH
	DB	0d6H
	DB	0bbH
	DB	0d6H
	DB	0dbH
	DB	0deH
	DB	0dbH
	DB	0d6H
	DB	0bcH
	DB	0d6H
	DB	0bbH
	DB	0d6H
	DB	0dbH
	DB	0deH
	DB	0bbH
	DB	0d6H
	DB	0bbH
	DB	0deH
	DB	0dcH
	DB	0deH
	DB	0bbH
	DB	0d6H
	DB	0dbH
	DB	0deH
	DB	0bbH
	DB	0d6H
	DB	0bcH
	DB	0deH
	DB	0bbH
	DB	0d6H
	DB	0bbH
	DB	0d6H
	DB	0dbH
	DB	0deH
	DB	0dbH
	DB	0deH
	DB	0bbH
	DB	0d6H
	DB	0bbH
	DB	0d6H
	DB	0dcH
	DB	0deH
	DB	0bbH
	DB	0d6H
	DB	0bbH
	DB	0d6H
	DB	0bbH
	DB	0deH
	DB	0bbH
	DB	0d6H
	DB	0dcH
	DB	0deH
	DB	0bbH
	DB	0deH
	DB	0dcH
	DB	0deH
	DB	0bbH
	DB	0d6H
	DB	0bbH
	DB	0d6H
	DB	0bbH
	DB	0d6H
	DB	0bbH
	DB	0deH
	DB	0dbH
	DB	0deH
	DB	0dbH
	DB	0d6H
	DB	0bbH
	DB	0d6H
	DB	0bbH
	DB	0deH
	DB	0bbH
	DB	0d6H
	DB	0bbH
	DB	0d6H
	DB	0dbH
	DB	0deH
	DB	0dbH
	DB	0deH
	DB	0bbH
	DB	0d6H
	DB	0dcH
	DB	0deH
	DB	0bbH
	DB	0deH
	DB	0dbH
	DB	0d6H
	DB	0bcH
	DB	0deH
	DB	0dcH
	DB	0deH
	DB	0dbH
	DB	0deH
	DB	0bbH
	DB	0d6H
	DB	0dbH
	DB	0deH
	DB	0dbH
	DB	0deH
	DB	0bcH
	DB	0d6H
	DB	0bbH
	DB	0d6H
	DB	0dbH
	DB	0deH
	DB	0dbH
	DB	0deH
	DB	0bbH
	DB	0d6H
	DB	0bbH
	DB	0deH
	DB	0dbH
	DB	0deH
	DB	0bcH
	DB	0deH
	DB	0bbH
	DB	0d6H
	DB	0dbH
	DB	0deH
	DB	0bbH
	DB	0deH
	DB	0bcH
	DB	0deH
	DB	0dbH
	DB	0deH
	DB	0bbH
	DB	0d6H
	DB	0bcH
	DB	0deH
	DB	0dbH
	DB	0deH
	DB	0bcH
	DB	0d6H
	DB	0bbH
	DB	0d6H
	DB	0dbH
	DB	0deH
	DB	0dcH
	DB	0deH
	DB	0bcH
	DB	0deH
	DB	0bbH
	DB	0d6H
	DB	0bbH
	DB	0deH
	DB	0bbH
	DB	0deH
	DB	0dbH
	DB	0deH
	DB	0bcH
	DB	0deH
	DB	0dbH
	DB	0d6H
	DB	0bbH
	DB	0deH
	DB	0dcH
	DB	0deH
	DB	0bbH
	DB	0d6H
	DB	0bbH
	DB	0deH
	DB	0bbH
	DB	0d6H
	DB	0bbH
	DB	0d6H
	DB	0dcH
	DB	0deH
	DB	0bbH
	DB	0d6H
	DB	0bbH
	DB	0deH
	DB	0bbH
	DB	0d6H
	DB	0dcH
	DB	0deH
	DB	0bbH
	DB	0d6H
	DB	0bbH
	DB	0d6H
	DB	0bbH
	DB	0d6H
	DB	0bbH
	DB	0deH
	DB	0bbH
	DB	0d6H
	DB	0dbH
	DB	0deH
	DB	0bbH
	DB	0d6H
	DB	0bbH
	DB	0deH
	DB	0dcH
	DB	0deH
	DB	0bbH
	DB	0d6H
	DB	0bbH
	DB	0deH
	DB	0bbH
	DB	0d6H
	DB	0dcH
	DB	0deH
	DB	0dbH
	DB	0deH
	DB	0bbH
	DB	0d6H
	DB	0bbH
	DB	0deH
	DB	0bbH
	DB	0d6H
	DB	0bcH
	DB	0deH
	DB	0dbH
	DB	0deH
	DB	0bbH
	DB	0d6H
	DB	0bbH
	DB	0d6H
	DB	0bbH
	DB	0deH
	DB	0dcH
	DB	0deH
	DB	0bbH
	DB	0d6H
	DB	0bbH
	DB	0d6H
	DB	0bcH
	DB	0deH
	DB	0dbH
	DB	0deH
	DB	0bbH
	DB	0d6H
	DB	0bbH
	DB	0d6H
	DB	0bbH
	DB	0d6H
	DB	0bbH
	DB	0d6H
	DB	0bbH
	DB	0d6H
	DB	0bbH
	DB	0deH
	DB	0bbH
	DB	0d6H
	DB	0bbH
	DB	0d6H
	DB	0bbH
	DB	0deH
	DB	0dbH
	DB	0deH
	DB	0bbH
	DB	0d6H
	DB	0dcH
	DB	0deH
	DB	0bbH
	DB	0deH
	DB	0dbH
	DB	0d6H
	DB	0dcH
	DB	0deH
	DB	0bbH
	DB	0d6H
	DB	0dbH
	DB	0deH
	DB	09aH
	DB	0d6H
	DB	09bH
	DB	0d6H
	DB	01dH
	DB	0e7H
	DB	014H
	DB	09dH
	DB	083H
	DB	010H
	DB	01H
	DB	00H
	DB	083H
	DB	010H
	DB	0f4H
	DB	09cH
	DB	097H
	DB	0b5H
	DB	015H
	DB	0a5H
	DB	097H
	DB	0b5H
	DB	076H
	DB	0b5H
	DB	035H
	DB	0adH
	DB	09H
	DB	042H
	DB	0cfH
	DB	07bH
	DB	0dbH
	DB	0deH
	DB	09aH
	DB	0ceH
	DB	059H
	DB	0ceH
	DB	055H
	DB	0adH
	DB	082H
	DB	010H
	DB	00H
	DB	00H
	DB	0c4H
	DB	018H
	DB	055H
	DB	0adH
	DB	03dH
	DB	0e7H
	DB	0bbH
	DB	0d6H
	DB	0bbH
	DB	0d6H
	DB	0bbH
	DB	0d6H
	DB	0bbH
	DB	0deH
	DB	0bbH
	DB	0d6H
	DB	0bbH
	DB	0d6H
	DB	0bbH
	DB	0deH
	DB	0dcH
	DB	0deH
	DB	0bcH
	DB	0deH
	DB	0bbH
	DB	0d6H
	DB	0bbH
	DB	0d6H
	DB	0dcH
	DB	0deH
	DB	0dbH
	DB	0deH
	DB	0bbH
	DB	0deH
	DB	0dcH
	DB	0deH
	DB	0bbH
	DB	0d6H
	DB	0dbH
	DB	0deH
	DB	0dbH
	DB	0deH
	DB	0bbH
	DB	0deH
	DB	0bbH
	DB	0d6H
	DB	0dbH
	DB	0deH
	DB	0bbH
	DB	0d6H
	DB	0bbH
	DB	0deH
	DB	0bbH
	DB	0deH
	DB	0dcH
	DB	0deH
	DB	0dbH
	DB	0d6H
	DB	0bbH
	DB	0deH
	DB	0bcH
	DB	0deH
	DB	0dbH
	DB	0d6H
	DB	0bbH
	DB	0deH
	DB	0bbH
	DB	0deH
	DB	0dbH
	DB	0d6H
	DB	0bbH
	DB	0d6H
	DB	0dbH
	DB	0deH
	DB	0bbH
	DB	0d6H
	DB	0bbH
	DB	0deH
	DB	0dcH
	DB	0deH
	DB	0dbH
	DB	0deH
	DB	0bbH
	DB	0deH
	DB	0bbH
	DB	0deH
	DB	0dbH
	DB	0deH
	DB	0bbH
	DB	0deH
	DB	0dbH
	DB	0deH
	DB	0dbH
	DB	0deH
	DB	0bbH
	DB	0d6H
	DB	0bbH
	DB	0d6H
	DB	0dbH
	DB	0deH
	DB	0bbH
	DB	0deH
	DB	0bbH
	DB	0d6H
	DB	0dcH
	DB	0deH
	DB	0bbH
	DB	0deH
	DB	0bcH
	DB	0deH
	DB	0dbH
	DB	0deH
	DB	0bbH
	DB	0d6H
	DB	0dcH
	DB	0deH
	DB	0dbH
	DB	0deH
	DB	0bbH
	DB	0deH
	DB	0bbH
	DB	0d6H
	DB	0dcH
	DB	0deH
	DB	0dbH
	DB	0d6H
	DB	0bbH
	DB	0d6H
	DB	0bcH
	DB	0deH
	DB	0dbH
	DB	0deH
	DB	0dbH
	DB	0deH
	DB	0bbH
	DB	0d6H
	DB	0dcH
	DB	0deH
	DB	0bbH
	DB	0deH
	DB	0bbH
	DB	0d6H
	DB	0dcH
	DB	0deH
	DB	0dbH
	DB	0deH
	DB	0bbH
	DB	0d6H
	DB	0bbH
	DB	0d6H
	DB	0bbH
	DB	0deH
	DB	0dbH
	DB	0deH
	DB	0dbH
	DB	0d6H
	DB	0dbH
	DB	0deH
	DB	0bbH
	DB	0deH
	DB	0bbH
	DB	0d6H
	DB	0dbH
	DB	0deH
	DB	0bcH
	DB	0deH
	DB	0bbH
	DB	0d6H
	DB	0dbH
	DB	0deH
	DB	0dbH
	DB	0deH
	DB	0bcH
	DB	0deH
	DB	0bbH
	DB	0deH
	DB	0dcH
	DB	0deH
	DB	0dbH
	DB	0deH
	DB	0bbH
	DB	0d6H
	DB	0dcH
	DB	0deH
	DB	0dbH
	DB	0d6H
	DB	0bbH
	DB	0d6H
	DB	0dbH
	DB	0deH
	DB	0bbH
	DB	0d6H
	DB	0dbH
	DB	0deH
	DB	0bbH
	DB	0d6H
	DB	0bbH
	DB	0d6H
	DB	0dbH
	DB	0deH
	DB	0dcH
	DB	0deH
	DB	0bbH
	DB	0d6H
	DB	0dbH
	DB	0d6H
	DB	0bbH
	DB	0deH
	DB	0dbH
	DB	0deH
	DB	0dcH
	DB	0deH
	DB	0bbH
	DB	0d6H
	DB	0bbH
	DB	0deH
	DB	0dcH
	DB	0deH
	DB	0dbH
	DB	0d6H
	DB	0bbH
	DB	0deH
	DB	0dbH
	DB	0deH
	DB	0bbH
	DB	0d6H
	DB	0dbH
	DB	0deH
	DB	0bbH
	DB	0d6H
	DB	0bbH
	DB	0d6H
	DB	0dbH
	DB	0deH
	DB	0bbH
	DB	0d6H
	DB	0dbH
	DB	0deH
	DB	0dbH
	DB	0deH
	DB	0bbH
	DB	0d6H
	DB	0bcH
	DB	0deH
	DB	0bbH
	DB	0d6H
	DB	0bbH
	DB	0deH
	DB	0dbH
	DB	0d6H
	DB	0dbH
	DB	0deH
	DB	0dcH
	DB	0deH
	DB	0bbH
	DB	0d6H
	DB	0bbH
	DB	0d6H
	DB	0bbH
	DB	0d6H
	DB	0bbH
	DB	0d6H
	DB	0bbH
	DB	0d6H
	DB	0dbH
	DB	0deH
	DB	0dbH
	DB	0deH
	DB	0bcH
	DB	0deH
	DB	0dbH
	DB	0deH
	DB	0bbH
	DB	0d6H
	DB	0bbH
	DB	0d6H
	DB	0dbH
	DB	0deH
	DB	0bbH
	DB	0d6H
	DB	0bbH
	DB	0d6H
	DB	0bbH
	DB	0d6H
	DB	0dbH
	DB	0deH
	DB	0bbH
	DB	0d6H
	DB	0bbH
	DB	0deH
	DB	0dbH
	DB	0deH
	DB	0bbH
	DB	0d6H
	DB	0dcH
	DB	0deH
	DB	0dbH
	DB	0deH
	DB	0bbH
	DB	0d6H
	DB	0bbH
	DB	0deH
	DB	0dbH
	DB	0deH
	DB	0dbH
	DB	0d6H
	DB	0bcH
	DB	0deH
	DB	0dbH
	DB	0deH
	DB	0bbH
	DB	0d6H
	DB	0bbH
	DB	0d6H
	DB	0dbH
	DB	0deH
	DB	0bbH
	DB	0d6H
	DB	0bbH
	DB	0d6H
	DB	0dcH
	DB	0deH
	DB	0bbH
	DB	0d6H
	DB	0bbH
	DB	0deH
	DB	0bbH
	DB	0d6H
	DB	0dbH
	DB	0deH
	DB	0bbH
	DB	0d6H
	DB	0dcH
	DB	0deH
	DB	0bbH
	DB	0d6H
	DB	0dcH
	DB	0deH
	DB	0bbH
	DB	0d6H
	DB	0dcH
	DB	0deH
	DB	0fcH
	DB	0e6H
	DB	0fcH
	DB	0e6H
	DB	01dH
	DB	0e7H
	DB	01dH
	DB	0e7H
	DB	01dH
	DB	0e7H
	DB	01cH
	DB	0e7H
	DB	0fcH
	DB	0e6H
	DB	0dcH
	DB	0deH
	DB	0bbH
	DB	0d6H
	DB	0bbH
	DB	0deH
	DB	0bbH
	DB	0d6H
	DB	0dbH
	DB	0deH
	DB	0bbH
	DB	0deH
	DB	0bbH
	DB	0d6H
	DB	0bbH
	DB	0d6H
	DB	09bH
	DB	0d6H
	DB	0bbH
	DB	0d6H
	DB	0dcH
	DB	0deH
	DB	0d3H
	DB	09cH
	DB	025H
	DB	021H
	DB	06aH
	DB	04aH
	DB	066H
	DB	029H
	DB	09aH
	DB	0d6H
	DB	05eH
	DB	0efH
	DB	01dH
	DB	0e7H
	DB	0dbH
	DB	0deH
	DB	0ffH
	DB	0ffH
	DB	051H
	DB	08cH
	DB	042H
	DB	08H
	DB	0f8H
	DB	0bdH
	DB	03dH
	DB	0e7H
	DB	0dbH
	DB	0deH
	DB	03dH
	DB	0e7H
	DB	0b7H
	DB	0b5H
	DB	042H
	DB	08H
	DB	00H
	DB	00H
	DB	0ecH
	DB	05aH
	DB	01dH
	DB	0e7H
	DB	0bbH
	DB	0d6H
	DB	0bbH
	DB	0d6H
	DB	0bbH
	DB	0deH
	DB	0bbH
	DB	0d6H
	DB	0dbH
	DB	0deH
	DB	0bbH
	DB	0deH
	DB	0bbH
	DB	0d6H
	DB	0bbH
	DB	0d6H
	DB	0dbH
	DB	0deH
	DB	0dbH
	DB	0deH
	DB	0bbH
	DB	0deH
	DB	0dbH
	DB	0deH
	DB	0bbH
	DB	0d6H
	DB	0bbH
	DB	0deH
	DB	0bbH
	DB	0d6H
	DB	0bbH
	DB	0d6H
	DB	0bbH
	DB	0deH
	DB	0bbH
	DB	0deH
	DB	0dcH
	DB	0d6H
	DB	0dbH
	DB	0deH
	DB	0bbH
	DB	0deH
	DB	0dcH
	DB	0d6H
	DB	0bbH
	DB	0d6H
	DB	0bbH
	DB	0deH
	DB	0bbH
	DB	0d6H
	DB	0bbH
	DB	0d6H
	DB	0dbH
	DB	0deH
	DB	0bbH
	DB	0deH
	DB	0bbH
	DB	0d6H
	DB	0dbH
	DB	0d6H
	DB	0bcH
	DB	0deH
	DB	0dbH
	DB	0deH
	DB	0bbH
	DB	0d6H
	DB	0bcH
	DB	0deH
	DB	0bbH
	DB	0d6H
	DB	0bbH
	DB	0d6H
	DB	0dcH
	DB	0deH
	DB	0bbH
	DB	0d6H
	DB	0bbH
	DB	0d6H
	DB	0bbH
	DB	0d6H
	DB	0bbH
	DB	0d6H
	DB	0dcH
	DB	0deH
	DB	0bbH
	DB	0d6H
	DB	0bbH
	DB	0d6H
	DB	0dcH
	DB	0deH
	DB	0bbH
	DB	0deH
	DB	0dbH
	DB	0deH
	DB	0dcH
	DB	0deH
	DB	0bbH
	DB	0d6H
	DB	0dbH
	DB	0deH
	DB	0dbH
	DB	0d6H
	DB	0bbH
	DB	0d6H
	DB	0dbH
	DB	0deH
	DB	0bbH
	DB	0d6H
	DB	0bbH
	DB	0d6H
	DB	0bbH
	DB	0deH
	DB	0dbH
	DB	0deH
	DB	0bbH
	DB	0d6H
	DB	0dcH
	DB	0deH
	DB	0bbH
	DB	0deH
	DB	0bbH
	DB	0d6H
	DB	0bbH
	DB	0d6H
	DB	0bbH
	DB	0deH
	DB	0bbH
	DB	0d6H
	DB	0dbH
	DB	0deH
	DB	0bbH
	DB	0d6H
	DB	0bbH
	DB	0d6H
	DB	0dbH
	DB	0deH
	DB	0bbH
	DB	0d6H
	DB	0bbH
	DB	0d6H
	DB	0bbH
	DB	0deH
	DB	0bbH
	DB	0d6H
	DB	0dcH
	DB	0deH
	DB	0dbH
	DB	0deH
	DB	0bbH
	DB	0d6H
	DB	0dcH
	DB	0deH
	DB	0bbH
	DB	0d6H
	DB	0bbH
	DB	0deH
	DB	0dbH
	DB	0d6H
	DB	0bbH
	DB	0d6H
	DB	0bbH
	DB	0d6H
	DB	0bbH
	DB	0deH
	DB	0dbH
	DB	0deH
	DB	0bcH
	DB	0d6H
	DB	0bbH
	DB	0d6H
	DB	0dbH
	DB	0deH
	DB	0bbH
	DB	0d6H
	DB	0dcH
	DB	0deH
	DB	0bbH
	DB	0deH
	DB	0bbH
	DB	0deH
	DB	0dcH
	DB	0deH
	DB	0bbH
	DB	0deH
	DB	0bcH
	DB	0deH
	DB	0dbH
	DB	0deH
	DB	0dcH
	DB	0d6H
	DB	0bbH
	DB	0deH
	DB	0dbH
	DB	0deH
	DB	0bbH
	DB	0d6H
	DB	0bbH
	DB	0d6H
	DB	0bbH
	DB	0deH
	DB	0bbH
	DB	0d6H
	DB	0bbH
	DB	0d6H
	DB	0dbH
	DB	0deH
	DB	0bbH
	DB	0deH
	DB	0dcH
	DB	0d6H
	DB	0bbH
	DB	0deH
	DB	0dbH
	DB	0deH
	DB	0bcH
	DB	0d6H
	DB	0dbH
	DB	0deH
	DB	0bbH
	DB	0d6H
	DB	0dcH
	DB	0deH
	DB	0bbH
	DB	0d6H
	DB	0bbH
	DB	0d6H
	DB	0bbH
	DB	0deH
	DB	0bbH
	DB	0d6H
	DB	0bcH
	DB	0deH
	DB	0dbH
	DB	0d6H
	DB	0bbH
	DB	0deH
	DB	0dbH
	DB	0d6H
	DB	0dbH
	DB	0deH
	DB	0bbH
	DB	0deH
	DB	0bbH
	DB	0d6H
	DB	0bbH
	DB	0d6H
	DB	0dbH
	DB	0deH
	DB	0bbH
	DB	0d6H
	DB	0dbH
	DB	0deH
	DB	0dbH
	DB	0deH
	DB	0dbH
	DB	0deH
	DB	0bbH
	DB	0d6H
	DB	0bbH
	DB	0deH
	DB	0bbH
	DB	0d6H
	DB	0dcH
	DB	0d6H
	DB	0bbH
	DB	0d6H
	DB	0bbH
	DB	0deH
	DB	0bbH
	DB	0deH
	DB	0dcH
	DB	0deH
	DB	0bbH
	DB	0d6H
	DB	0bbH
	DB	0deH
	DB	0bbH
	DB	0deH
	DB	0dbH
	DB	0deH
	DB	0bbH
	DB	0d6H
	DB	0dcH
	DB	0deH
	DB	0bbH
	DB	0deH
	DB	0bbH
	DB	0d6H
	DB	0bbH
	DB	0d6H
	DB	0bbH
	DB	0d6H
	DB	0bbH
	DB	0deH
	DB	0bbH
	DB	0d6H
	DB	0bbH
	DB	0d6H
	DB	0bbH
	DB	0deH
	DB	0dcH
	DB	0deH
	DB	0bbH
	DB	0d6H
	DB	0bbH
	DB	0d6H
	DB	0bbH
	DB	0deH
	DB	0dbH
	DB	0deH
	DB	0dbH
	DB	0deH
	DB	0bbH
	DB	0d6H
	DB	0bbH
	DB	0deH
	DB	0dbH
	DB	0deH
	DB	0dbH
	DB	0deH
	DB	0dcH
	DB	0deH
	DB	0bbH
	DB	0d6H
	DB	0dbH
	DB	0deH
	DB	0dcH
	DB	0deH
	DB	0bbH
	DB	0d6H
	DB	0dbH
	DB	0deH
	DB	0bbH
	DB	0d6H
	DB	01dH
	DB	0e7H
	DB	07aH
	DB	0ceH
	DB	097H
	DB	0b5H
	DB	0d7H
	DB	0bdH
	DB	0d7H
	DB	0bdH
	DB	0b7H
	DB	0b5H
	DB	097H
	DB	0b5H
	DB	097H
	DB	0b5H
	DB	097H
	DB	0b5H
	DB	0dcH
	DB	0deH
	DB	0fcH
	DB	0deH
	DB	0bbH
	DB	0d6H
	DB	0dcH
	DB	0deH
	DB	0bbH
	DB	0d6H
	DB	0bbH
	DB	0d6H
	DB	0bbH
	DB	0d6H
	DB	0dcH
	DB	0deH
	DB	0fcH
	DB	0deH
	DB	05aH
	DB	0ceH
	DB	03dH
	DB	0e7H
	DB	018H
	DB	0c6H
	DB	0d3H
	DB	09cH
	DB	0b7H
	DB	0b5H
	DB	0c7H
	DB	039H
	DB	0f8H
	DB	0bdH
	DB	0bbH
	DB	0deH
	DB	0bbH
	DB	0d6H
	DB	01cH
	DB	0e7H
	DB	0dbH
	DB	0deH
	DB	04dH
	DB	063H
	DB	01H
	DB	00H
	DB	0f4H
	DB	0a4H
	DB	0dcH
	DB	0deH
	DB	09bH
	DB	0d6H
	DB	05dH
	DB	0efH
	DB	011H
	DB	084H
	DB	021H
	DB	00H
	DB	00H
	DB	00H
	DB	0e4H
	DB	018H
	DB	018H
	DB	0c6H
	DB	03dH
	DB	0e7H
	DB	09bH
	DB	0d6H
	DB	0dbH
	DB	0deH
	DB	09bH
	DB	0d6H
	DB	0dbH
	DB	0deH
	DB	0bbH
	DB	0d6H
	DB	0bbH
	DB	0d6H
	DB	0bbH
	DB	0deH
	DB	0bbH
	DB	0d6H
	DB	0bbH
	DB	0d6H
	DB	0dcH
	DB	0deH
	DB	0bbH
	DB	0d6H
	DB	0bbH
	DB	0deH
	DB	0dcH
	DB	0d6H
	DB	0dbH
	DB	0deH
	DB	0bbH
	DB	0deH
	DB	0bbH
	DB	0d6H
	DB	0dcH
	DB	0d6H
	DB	0bbH
	DB	0d6H
	DB	0bbH
	DB	0d6H
	DB	0bbH
	DB	0deH
	DB	0dbH
	DB	0deH
	DB	0bbH
	DB	0d6H
	DB	0dbH
	DB	0deH
	DB	0dcH
	DB	0deH
	DB	0bbH
	DB	0d6H
	DB	0bbH
	DB	0d6H
	DB	0dcH
	DB	0deH
	DB	0dbH
	DB	0deH
	DB	0bbH
	DB	0deH
	DB	0dbH
	DB	0d6H
	DB	0dcH
	DB	0deH
	DB	0bbH
	DB	0deH
	DB	0dbH
	DB	0deH
	DB	0dbH
	DB	0deH
	DB	0dbH
	DB	0deH
	DB	0bbH
	DB	0deH
	DB	0bbH
	DB	0d6H
	DB	0bbH
	DB	0deH
	DB	0dcH
	DB	0deH
	DB	0bbH
	DB	0d6H
	DB	0dbH
	DB	0deH
	DB	0bcH
	DB	0deH
	DB	0bbH
	DB	0d6H
	DB	0bbH
	DB	0d6H
	DB	0bbH
	DB	0d6H
	DB	0dbH
	DB	0deH
	DB	0bcH
	DB	0d6H
	DB	0bbH
	DB	0deH
	DB	0dbH
	DB	0deH
	DB	0bcH
	DB	0deH
	DB	0bbH
	DB	0d6H
	DB	0bbH
	DB	0d6H
	DB	0dcH
	DB	0deH
	DB	0bbH
	DB	0deH
	DB	0bbH
	DB	0d6H
	DB	0dcH
	DB	0deH
	DB	0dbH
	DB	0d6H
	DB	0bbH
	DB	0deH
	DB	0dbH
	DB	0deH
	DB	0dbH
	DB	0deH
	DB	0dbH
	DB	0deH
	DB	0bcH
	DB	0d6H
	DB	0dbH
	DB	0deH
	DB	0bcH
	DB	0deH
	DB	0bbH
	DB	0d6H
	DB	0bbH
	DB	0deH
	DB	0dcH
	DB	0deH
	DB	0dbH
	DB	0deH
	DB	0bbH
	DB	0deH
	DB	0bbH
	DB	0d6H
	DB	0dcH
	DB	0deH
	DB	0bbH
	DB	0d6H
	DB	0bbH
	DB	0d6H
	DB	0bbH
	DB	0deH
	DB	0dcH
	DB	0deH
	DB	0bbH
	DB	0deH
	DB	0dcH
	DB	0d6H
	DB	0bbH
	DB	0deH
	DB	0dbH
	DB	0deH
	DB	0bbH
	DB	0d6H
	DB	0dbH
	DB	0deH
	DB	0bcH
	DB	0deH
	DB	0dbH
	DB	0d6H
	DB	0dbH
	DB	0deH
	DB	0bbH
	DB	0d6H
	DB	0dbH
	DB	0deH
	DB	0bbH
	DB	0d6H
	DB	0dbH
	DB	0d6H
	DB	0bbH
	DB	0d6H
	DB	0dbH
	DB	0deH
	DB	0bbH
	DB	0d6H
	DB	0dbH
	DB	0d6H
	DB	0bcH
	DB	0deH
	DB	0bbH
	DB	0deH
	DB	0dbH
	DB	0deH
	DB	0bbH
	DB	0d6H
	DB	0bcH
	DB	0deH
	DB	0dbH
	DB	0deH
	DB	0dcH
	DB	0deH
	DB	0bcH
	DB	0deH
	DB	0dbH
	DB	0deH
	DB	0bbH
	DB	0d6H
	DB	0dcH
	DB	0deH
	DB	0bbH
	DB	0deH
	DB	0dbH
	DB	0d6H
	DB	0bbH
	DB	0deH
	DB	0dbH
	DB	0deH
	DB	0bcH
	DB	0d6H
	DB	0dbH
	DB	0deH
	DB	0bbH
	DB	0d6H
	DB	0bbH
	DB	0deH
	DB	0dcH
	DB	0deH
	DB	0dbH
	DB	0deH
	DB	0bbH
	DB	0deH
	DB	0dcH
	DB	0d6H
	DB	0bbH
	DB	0deH
	DB	0bbH
	DB	0d6H
	DB	0bbH
	DB	0deH
	DB	0dcH
	DB	0deH
	DB	0bbH
	DB	0d6H
	DB	0bbH
	DB	0d6H
	DB	0bbH
	DB	0deH
	DB	0bcH
	DB	0deH
	DB	0bbH
	DB	0d6H
	DB	0bbH
	DB	0d6H
	DB	0bcH
	DB	0deH
	DB	0bbH
	DB	0deH
	DB	0dcH
	DB	0deH
	DB	0bbH
	DB	0d6H
	DB	0bbH
	DB	0deH
	DB	0bbH
	DB	0d6H
	DB	0bbH
	DB	0d6H
	DB	0bbH
	DB	0d6H
	DB	0bbH
	DB	0deH
	DB	0dbH
	DB	0deH
	DB	0dcH
	DB	0d6H
	DB	0bbH
	DB	0deH
	DB	0dcH
	DB	0deH
	DB	0dbH
	DB	0deH
	DB	0bbH
	DB	0d6H
	DB	0bbH
	DB	0deH
	DB	0bbH
	DB	0d6H
	DB	0dcH
	DB	0deH
	DB	0dbH
	DB	0deH
	DB	0bbH
	DB	0deH
	DB	0dcH
	DB	0deH
	DB	0dbH
	DB	0d6H
	DB	0bbH
	DB	0d6H
	DB	0bbH
	DB	0deH
	DB	0dbH
	DB	0deH
	DB	0bbH
	DB	0d6H
	DB	0dbH
	DB	0deH
	DB	0dbH
	DB	0deH
	DB	0bbH
	DB	0deH
	DB	0bbH
	DB	0deH
	DB	0bbH
	DB	0d6H
	DB	0bbH
	DB	0d6H
	DB	0dbH
	DB	0deH
	DB	0bbH
	DB	0d6H
	DB	0bbH
	DB	0d6H
	DB	0bbH
	DB	0deH
	DB	0bbH
	DB	0d6H
	DB	0dcH
	DB	0deH
	DB	09bH
	DB	0d6H
	DB	0dcH
	DB	0deH
	DB	0bbH
	DB	0d6H
	DB	076H
	DB	0adH
	DB	04aH
	DB	04aH
	DB	062H
	DB	010H
	DB	0c3H
	DB	010H
	DB	082H
	DB	010H
	DB	0c4H
	DB	018H
	DB	066H
	DB	029H
	DB	0cbH
	DB	05aH
	DB	086H
	DB	031H
	DB	02dH
	DB	063H
	DB	0bbH
	DB	0d6H
	DB	03dH
	DB	0e7H
	DB	09aH
	DB	0d6H
	DB	0bbH
	DB	0deH
	DB	0bbH
	DB	0d6H
	DB	0fcH
	DB	0e6H
	DB	0bbH
	DB	0deH
	DB	0dcH
	DB	0deH
	DB	09aH
	DB	0d6H
	DB	01cH
	DB	0e7H
	DB	0f8H
	DB	0c5H
	DB	076H
	DB	0adH
	DB	072H
	DB	094H
	DB	042H
	DB	08H
	DB	0d3H
	DB	09cH
	DB	01cH
	DB	0e7H
	DB	09bH
	DB	0d6H
	DB	01dH
	DB	0e7H
	DB	05aH
	DB	0ceH
	DB	046H
	DB	029H
	DB	00H
	DB	00H
	DB	0cfH
	DB	07bH
	DB	0fcH
	DB	0deH
	DB	0dbH
	DB	0deH
	DB	01cH
	DB	0e7H
	DB	0d4H
	DB	09cH
	DB	021H
	DB	00H
	DB	00H
	DB	00H
	DB	0e4H
	DB	020H
	DB	018H
	DB	0c6H
	DB	0fcH
	DB	0deH
	DB	0bbH
	DB	0deH
	DB	0dbH
	DB	0deH
	DB	0bbH
	DB	0d6H
	DB	0bbH
	DB	0d6H
	DB	0bcH
	DB	0deH
	DB	0bbH
	DB	0deH
	DB	0dbH
	DB	0deH
	DB	0bbH
	DB	0d6H
	DB	0bbH
	DB	0d6H
	DB	0dcH
	DB	0deH
	DB	0dbH
	DB	0deH
	DB	0bbH
	DB	0d6H
	DB	0bbH
	DB	0deH
	DB	0bbH
	DB	0d6H
	DB	0dcH
	DB	0deH
	DB	0bbH
	DB	0d6H
	DB	0bbH
	DB	0deH
	DB	0bbH
	DB	0deH
	DB	0bbH
	DB	0d6H
	DB	0dcH
	DB	0deH
	DB	0bbH
	DB	0deH
	DB	0bbH
	DB	0d6H
	DB	0bbH
	DB	0d6H
	DB	0dcH
	DB	0deH
	DB	0dbH
	DB	0deH
	DB	0bbH
	DB	0d6H
	DB	0bbH
	DB	0d6H
	DB	0bbH
	DB	0deH
	DB	0bbH
	DB	0d6H
	DB	0bbH
	DB	0deH
	DB	0dbH
	DB	0d6H
	DB	0bcH
	DB	0d6H
	DB	0bbH
	DB	0deH
	DB	0bbH
	DB	0d6H
	DB	0bbH
	DB	0d6H
	DB	0bbH
	DB	0deH
	DB	0dcH
	DB	0deH
	DB	0bbH
	DB	0d6H
	DB	0dbH
	DB	0deH
	DB	0bbH
	DB	0d6H
	DB	0bbH
	DB	0d6H
	DB	0dbH
	DB	0deH
	DB	0dbH
	DB	0deH
	DB	0bbH
	DB	0deH
	DB	0bbH
	DB	0d6H
	DB	0dcH
	DB	0deH
	DB	0bbH
	DB	0d6H
	DB	0bbH
	DB	0d6H
	DB	0dbH
	DB	0deH
	DB	0dcH
	DB	0deH
	DB	0bbH
	DB	0d6H
	DB	0dbH
	DB	0deH
	DB	0dcH
	DB	0deH
	DB	0bbH
	DB	0deH
	DB	0bbH
	DB	0d6H
	DB	0bbH
	DB	0d6H
	DB	0bbH
	DB	0deH
	DB	0bcH
	DB	0d6H
	DB	0bbH
	DB	0d6H
	DB	0bbH
	DB	0deH
	DB	0bbH
	DB	0d6H
	DB	0bbH
	DB	0d6H
	DB	0bbH
	DB	0deH
	DB	0bbH
	DB	0d6H
	DB	0dbH
	DB	0deH
	DB	0dcH
	DB	0deH
	DB	0bbH
	DB	0d6H
	DB	0bbH
	DB	0d6H
	DB	0bbH
	DB	0d6H
	DB	0dcH
	DB	0deH
	DB	0bbH
	DB	0d6H
	DB	0bbH
	DB	0deH
	DB	0bbH
	DB	0d6H
	DB	0dbH
	DB	0deH
	DB	0bbH
	DB	0deH
	DB	0dbH
	DB	0d6H
	DB	0bbH
	DB	0d6H
	DB	0bbH
	DB	0deH
	DB	0bbH
	DB	0deH
	DB	0bbH
	DB	0d6H
	DB	0dcH
	DB	0deH
	DB	0bbH
	DB	0deH
	DB	0bbH
	DB	0d6H
	DB	0bbH
	DB	0d6H
	DB	0bbH
	DB	0deH
	DB	0bbH
	DB	0d6H
	DB	0dcH
	DB	0deH
	DB	0bbH
	DB	0deH
	DB	0dbH
	DB	0deH
	DB	0bbH
	DB	0d6H
	DB	0bbH
	DB	0d6H
	DB	0bbH
	DB	0d6H
	DB	0bbH
	DB	0d6H
	DB	0bbH
	DB	0deH
	DB	0dbH
	DB	0d6H
	DB	0dcH
	DB	0deH
	DB	0bbH
	DB	0deH
	DB	0dbH
	DB	0d6H
	DB	0bbH
	DB	0d6H
	DB	0bbH
	DB	0deH
	DB	0bbH
	DB	0d6H
	DB	0dbH
	DB	0deH
	DB	0bbH
	DB	0d6H
	DB	0bbH
	DB	0d6H
	DB	0bbH
	DB	0d6H
	DB	0bbH
	DB	0d6H
	DB	0dbH
	DB	0deH
	DB	0bbH
	DB	0d6H
	DB	0bcH
	DB	0deH
	DB	0dbH
	DB	0deH
	DB	0bbH
	DB	0deH
	DB	0bbH
	DB	0d6H
	DB	0bbH
	DB	0d6H
	DB	0dbH
	DB	0deH
	DB	0bbH
	DB	0d6H
	DB	0dcH
	DB	0deH
	DB	0bbH
	DB	0d6H
	DB	0bbH
	DB	0deH
	DB	0dbH
	DB	0d6H
	DB	0bbH
	DB	0d6H
	DB	0dbH
	DB	0deH
	DB	0dbH
	DB	0deH
	DB	0bbH
	DB	0d6H
	DB	0dbH
	DB	0deH
	DB	0bbH
	DB	0d6H
	DB	0bbH
	DB	0deH
	DB	0dbH
	DB	0d6H
	DB	0bbH
	DB	0d6H
	DB	0bbH
	DB	0deH
	DB	0dbH
	DB	0deH
	DB	0bbH
	DB	0deH
	DB	0bbH
	DB	0d6H
	DB	0bbH
	DB	0deH
	DB	0bbH
	DB	0d6H
	DB	0bbH
	DB	0d6H
	DB	0bbH
	DB	0d6H
	DB	0bbH
	DB	0d6H
	DB	0bbH
	DB	0d6H
	DB	0dcH
	DB	0deH
	DB	0bbH
	DB	0deH
	DB	0bbH
	DB	0d6H
	DB	0bbH
	DB	0d6H
	DB	0dcH
	DB	0deH
	DB	0bbH
	DB	0d6H
	DB	0bbH
	DB	0d6H
	DB	0dcH
	DB	0deH
	DB	0bbH
	DB	0deH
	DB	0bbH
	DB	0d6H
	DB	0bbH
	DB	0d6H
	DB	0bbH
	DB	0d6H
	DB	0dcH
	DB	0deH
	DB	0bbH
	DB	0d6H
	DB	0bbH
	DB	0d6H
	DB	0bbH
	DB	0d6H
	DB	0dbH
	DB	0deH
	DB	0bbH
	DB	0d6H
	DB	0bcH
	DB	0d6H
	DB	0dcH
	DB	0deH
	DB	0bbH
	DB	0d6H
	DB	0bbH
	DB	0d6H
	DB	0bbH
	DB	0deH
	DB	0bbH
	DB	0d6H
	DB	0bbH
	DB	0d6H
	DB	0dbH
	DB	0deH
	DB	0dbH
	DB	0deH
	DB	0bbH
	DB	0deH
	DB	086H
	DB	031H
	DB	00H
	DB	00H
	DB	00H
	DB	00H
	DB	062H
	DB	08H
	DB	041H
	DB	08H
	DB	0c4H
	DB	018H
	DB	025H
	DB	021H
	DB	0dH
	DB	063H
	DB	025H
	DB	021H
	DB	00H
	DB	00H
	DB	06aH
	DB	04aH
	DB	07aH
	DB	0ceH
	DB	09bH
	DB	0d6H
	DB	0dbH
	DB	0deH
	DB	0bbH
	DB	0deH
	DB	0dcH
	DB	0deH
	DB	05aH
	DB	0ceH
	DB	0bbH
	DB	0d6H
	DB	0dcH
	DB	0deH
	DB	07aH
	DB	0ceH
	DB	07aH
	DB	0ceH
	DB	031H
	DB	08cH
	DB	0ecH
	DB	05aH
	DB	021H
	DB	08H
	DB	0cfH
	DB	07bH
	DB	0fcH
	DB	0deH
	DB	0dcH
	DB	0deH
	DB	0fcH
	DB	0deH
	DB	0f8H
	DB	0bdH
	DB	041H
	DB	08H
	DB	00H
	DB	00H
	DB	029H
	DB	042H
	DB	0dcH
	DB	0deH
	DB	0bbH
	DB	0d6H
	DB	05dH
	DB	0efH
	DB	015H
	DB	0a5H
	DB	042H
	DB	08H
	DB	021H
	DB	00H
	DB	042H
	DB	08H
	DB	076H
	DB	0b5H
	DB	01cH
	DB	0e7H
	DB	0bbH
	DB	0d6H
	DB	0bbH
	DB	0deH
	DB	0bbH
	DB	0d6H
	DB	0bbH
	DB	0d6H
	DB	0dbH
	DB	0deH
	DB	0bbH
	DB	0d6H
	DB	0dcH
	DB	0deH
	DB	0bbH
	DB	0d6H
	DB	0bbH
	DB	0deH
	DB	0bbH
	DB	0deH
	DB	0dbH
	DB	0d6H
	DB	0bcH
	DB	0deH
	DB	0dbH
	DB	0deH
	DB	0bbH
	DB	0d6H
	DB	0bbH
	DB	0deH
	DB	0bbH
	DB	0d6H
	DB	0dbH
	DB	0deH
	DB	0dbH
	DB	0deH
	DB	0bbH
	DB	0d6H
	DB	0bbH
	DB	0d6H
	DB	0dcH
	DB	0deH
	DB	0dbH
	DB	0deH
	DB	0bbH
	DB	0deH
	DB	0bbH
	DB	0deH
	DB	0dbH
	DB	0deH
	DB	0bbH
	DB	0deH
	DB	0bcH
	DB	0deH
	DB	0bbH
	DB	0d6H
	DB	0dcH
	DB	0deH
	DB	0dbH
	DB	0deH
	DB	0bbH
	DB	0d6H
	DB	0bbH
	DB	0d6H
	DB	0dcH
	DB	0deH
	DB	0bbH
	DB	0d6H
	DB	0bbH
	DB	0d6H
	DB	0bbH
	DB	0d6H
	DB	0dbH
	DB	0deH
	DB	0dcH
	DB	0deH
	DB	0bbH
	DB	0d6H
	DB	0dbH
	DB	0deH
	DB	0bcH
	DB	0deH
	DB	0dbH
	DB	0d6H
	DB	0dbH
	DB	0deH
	DB	0bcH
	DB	0deH
	DB	0bbH
	DB	0d6H
	DB	0dbH
	DB	0deH
	DB	0dbH
	DB	0deH
	DB	0bbH
	DB	0d6H
	DB	0bbH
	DB	0deH
	DB	0dbH
	DB	0d6H
	DB	0bbH
	DB	0deH
	DB	0bbH
	DB	0d6H
	DB	0dbH
	DB	0deH
	DB	0bbH
	DB	0d6H
	DB	0dcH
	DB	0deH
	DB	0dbH
	DB	0deH
	DB	0dbH
	DB	0deH
	DB	0dbH
	DB	0deH
	DB	0bbH
	DB	0d6H
	DB	0dcH
	DB	0deH
	DB	0dbH
	DB	0deH
	DB	0bbH
	DB	0d6H
	DB	0dcH
	DB	0deH
	DB	0bbH
	DB	0d6H
	DB	0bbH
	DB	0d6H
	DB	0bbH
	DB	0d6H
	DB	0dbH
	DB	0deH
	DB	0bbH
	DB	0d6H
	DB	0dbH
	DB	0deH
	DB	0bbH
	DB	0deH
	DB	0bbH
	DB	0d6H
	DB	0dbH
	DB	0deH
	DB	0dcH
	DB	0deH
	DB	0bbH
	DB	0d6H
	DB	0bbH
	DB	0d6H
	DB	0dcH
	DB	0deH
	DB	0bbH
	DB	0d6H
	DB	0bbH
	DB	0deH
	DB	0bbH
	DB	0d6H
	DB	0dcH
	DB	0deH
	DB	0dbH
	DB	0d6H
	DB	0bbH
	DB	0deH
	DB	0dbH
	DB	0deH
	DB	0dcH
	DB	0deH
	DB	0bbH
	DB	0deH
	DB	0dbH
	DB	0deH
	DB	0bcH
	DB	0d6H
	DB	0bbH
	DB	0deH
	DB	0bbH
	DB	0d6H
	DB	0dcH
	DB	0deH
	DB	0dcH
	DB	0deH
	DB	0bbH
	DB	0deH
	DB	0dbH
	DB	0deH
	DB	0dbH
	DB	0d6H
	DB	0bcH
	DB	0deH
	DB	0bbH
	DB	0deH
	DB	0dbH
	DB	0d6H
	DB	0bbH
	DB	0deH
	DB	0dbH
	DB	0deH
	DB	0dbH
	DB	0d6H
	DB	0bcH
	DB	0deH
	DB	0bbH
	DB	0d6H
	DB	0bbH
	DB	0deH
	DB	0bbH
	DB	0deH
	DB	0bbH
	DB	0d6H
	DB	0dcH
	DB	0deH
	DB	0bbH
	DB	0deH
	DB	0bbH
	DB	0d6H
	DB	0dbH
	DB	0deH
	DB	0bbH
	DB	0d6H
	DB	0bbH
	DB	0d6H
	DB	0dcH
	DB	0deH
	DB	0dbH
	DB	0deH
	DB	0bbH
	DB	0d6H
	DB	0bbH
	DB	0deH
	DB	0bbH
	DB	0d6H
	DB	0bbH
	DB	0deH
	DB	0bbH
	DB	0d6H
	DB	0dcH
	DB	0deH
	DB	0bbH
	DB	0deH
	DB	0bcH
	DB	0deH
	DB	0bbH
	DB	0d6H
	DB	0dbH
	DB	0deH
	DB	0bbH
	DB	0deH
	DB	0bbH
	DB	0d6H
	DB	0dcH
	DB	0deH
	DB	0bbH
	DB	0d6H
	DB	0dbH
	DB	0deH
	DB	0bbH
	DB	0d6H
	DB	0bbH
	DB	0d6H
	DB	0bbH
	DB	0deH
	DB	0dcH
	DB	0deH
	DB	0dbH
	DB	0deH
	DB	0dbH
	DB	0deH
	DB	0dcH
	DB	0deH
	DB	0bbH
	DB	0deH
	DB	0bbH
	DB	0d6H
	DB	0dbH
	DB	0deH
	DB	0bbH
	DB	0d6H
	DB	0bcH
	DB	0d6H
	DB	0dbH
	DB	0deH
	DB	0dbH
	DB	0deH
	DB	0bbH
	DB	0deH
	DB	0dbH
	DB	0deH
	DB	0bbH
	DB	0d6H
	DB	0bbH
	DB	0d6H
	DB	0dbH
	DB	0deH
	DB	0bbH
	DB	0deH
	DB	0dcH
	DB	0deH
	DB	0dbH
	DB	0deH
	DB	0bbH
	DB	0deH
	DB	0bbH
	DB	0d6H
	DB	0bbH
	DB	0deH
	DB	0dcH
	DB	0deH
	DB	0bbH
	DB	0deH
	DB	0bbH
	DB	0deH
	DB	0bbH
	DB	0deH
	DB	0dbH
	DB	0deH
	DB	0bbH
	DB	0deH
	DB	0dcH
	DB	0deH
	DB	0bbH
	DB	0d6H
	DB	0bbH
	DB	0d6H
	DB	07aH
	DB	0ceH
	DB	01dH
	DB	0e7H
	DB	0bbH
	DB	0d6H
	DB	031H
	DB	084H
	DB	0cbH
	DB	05aH
	DB	0e4H
	DB	020H
	DB	0abH
	DB	05aH
	DB	0f8H
	DB	0bdH
	DB	0f8H
	DB	0bdH
	DB	0d7H
	DB	0bdH
	DB	0f8H
	DB	0c5H
	DB	059H
	DB	0ceH
	DB	066H
	DB	029H
	DB	00H
	DB	00H
	DB	041H
	DB	08H
	DB	035H
	DB	0a5H
	DB	05eH
	DB	0efH
	DB	07aH
	DB	0ceH
	DB	0fcH
	DB	0deH
	DB	09bH
	DB	0d6H
	DB	0fcH
	DB	0deH
	DB	0dbH
	DB	0deH
	DB	09aH
	DB	0d6H
	DB	0dcH
	DB	0deH
	DB	039H
	DB	0c6H
	DB	049H
	DB	04aH
	DB	0abH
	DB	052H
	DB	0c8H
	DB	039H
	DB	0c8H
	DB	039H
	DB	019H
	DB	0c6H
	DB	09eH
	DB	0f7H
	DB	01cH
	DB	0e7H
	DB	0ecH
	DB	05aH
	DB	08H
	DB	042H
	DB	0ccH
	DB	05aH
	DB	0afH
	DB	073H
	DB	09aH
	DB	0d6H
	DB	05dH
	DB	0efH
	DB	019H
	DB	0c6H
	DB	0a7H
	DB	039H
	DB	00H
	DB	00H
	DB	01H
	DB	00H
	DB	0a3H
	DB	010H
	DB	0b7H
	DB	0b5H
	DB	01dH
	DB	0e7H
	DB	0bbH
	DB	0d6H
	DB	0bbH
	DB	0d6H
	DB	0bbH
	DB	0d6H
	DB	0bbH
	DB	0d6H
	DB	0dcH
	DB	0deH
	DB	0bbH
	DB	0d6H
	DB	0bbH
	DB	0deH
	DB	0bbH
	DB	0d6H
	DB	0bbH
	DB	0d6H
	DB	0bbH
	DB	0deH
	DB	0bbH
	DB	0d6H
	DB	0dbH
	DB	0deH
	DB	0bbH
	DB	0d6H
	DB	0dbH
	DB	0deH
	DB	0bbH
	DB	0deH
	DB	0bcH
	DB	0d6H
	DB	0dbH
	DB	0deH
	DB	0bbH
	DB	0d6H
	DB	0bcH
	DB	0deH
	DB	0dbH
	DB	0deH
	DB	0bbH
	DB	0d6H
	DB	0dcH
	DB	0deH
	DB	0bbH
	DB	0d6H
	DB	0dbH
	DB	0d6H
	DB	0bcH
	DB	0deH
	DB	0bbH
	DB	0d6H
	DB	0dbH
	DB	0deH
	DB	0dbH
	DB	0d6H
	DB	0bbH
	DB	0d6H
	DB	0bbH
	DB	0deH
	DB	0dbH
	DB	0deH
	DB	0dbH
	DB	0deH
	DB	0bbH
	DB	0deH
	DB	0dbH
	DB	0deH
	DB	0bbH
	DB	0d6H
	DB	0bbH
	DB	0deH
	DB	0bbH
	DB	0d6H
	DB	0bbH
	DB	0d6H
	DB	0dbH
	DB	0deH
	DB	0bbH
	DB	0deH
	DB	0bbH
	DB	0d6H
	DB	0bbH
	DB	0d6H
	DB	0bcH
	DB	0deH
	DB	0bbH
	DB	0d6H
	DB	0bbH
	DB	0d6H
	DB	0dbH
	DB	0deH
	DB	0bcH
	DB	0deH
	DB	0bbH
	DB	0deH
	DB	0bbH
	DB	0d6H
	DB	0bbH
	DB	0d6H
	DB	0dcH
	DB	0deH
	DB	0bbH
	DB	0deH
	DB	0bbH
	DB	0d6H
	DB	0dbH
	DB	0deH
	DB	0bbH
	DB	0d6H
	DB	0bcH
	DB	0deH
	DB	0bbH
	DB	0d6H
	DB	0dbH
	DB	0deH
	DB	0bcH
	DB	0deH
	DB	0bbH
	DB	0d6H
	DB	0bbH
	DB	0d6H
	DB	0bbH
	DB	0deH
	DB	0dbH
	DB	0deH
	DB	0bbH
	DB	0deH
	DB	0bbH
	DB	0d6H
	DB	0dbH
	DB	0deH
	DB	0bcH
	DB	0deH
	DB	0bbH
	DB	0d6H
	DB	0dbH
	DB	0deH
	DB	0bcH
	DB	0deH
	DB	0dbH
	DB	0deH
	DB	0dbH
	DB	0d6H
	DB	0bbH
	DB	0deH
	DB	0dcH
	DB	0deH
	DB	0dbH
	DB	0deH
	DB	0bbH
	DB	0deH
	DB	0dcH
	DB	0deH
	DB	0dbH
	DB	0d6H
	DB	0dbH
	DB	0deH
	DB	0dcH
	DB	0deH
	DB	0bbH
	DB	0d6H
	DB	0bbH
	DB	0d6H
	DB	0bbH
	DB	0d6H
	DB	0bbH
	DB	0d6H
	DB	0bbH
	DB	0d6H
	DB	0bbH
	DB	0d6H
	DB	0dbH
	DB	0deH
	DB	0dbH
	DB	0deH
	DB	0bbH
	DB	0d6H
	DB	0bbH
	DB	0deH
	DB	0bbH
	DB	0d6H
	DB	0bbH
	DB	0d6H
	DB	0bbH
	DB	0deH
	DB	0dcH
	DB	0deH
	DB	0bbH
	DB	0d6H
	DB	0bbH
	DB	0deH
	DB	0dcH
	DB	0d6H
	DB	0bcH
	DB	0deH
	DB	0dbH
	DB	0deH
	DB	0bbH
	DB	0d6H
	DB	0dbH
	DB	0deH
	DB	0dcH
	DB	0deH
	DB	0bbH
	DB	0d6H
	DB	0dbH
	DB	0deH
	DB	0dcH
	DB	0deH
	DB	0bbH
	DB	0deH
	DB	0bbH
	DB	0d6H
	DB	0dcH
	DB	0deH
	DB	0dbH
	DB	0deH
	DB	0bbH
	DB	0d6H
	DB	0dcH
	DB	0d6H
	DB	0bbH
	DB	0deH
	DB	0bbH
	DB	0deH
	DB	0bcH
	DB	0deH
	DB	0bbH
	DB	0deH
	DB	0bbH
	DB	0d6H
	DB	0bbH
	DB	0deH
	DB	0dbH
	DB	0deH
	DB	0dbH
	DB	0d6H
	DB	0bbH
	DB	0deH
	DB	0dbH
	DB	0deH
	DB	0bbH
	DB	0d6H
	DB	0bcH
	DB	0d6H
	DB	0bbH
	DB	0deH
	DB	0bbH
	DB	0d6H
	DB	0dcH
	DB	0deH
	DB	0bbH
	DB	0deH
	DB	0dbH
	DB	0deH
	DB	0dcH
	DB	0deH
	DB	0bcH
	DB	0d6H
	DB	0dbH
	DB	0deH
	DB	0bbH
	DB	0d6H
	DB	0bbH
	DB	0d6H
	DB	0bbH
	DB	0d6H
	DB	0bbH
	DB	0deH
	DB	0bbH
	DB	0d6H
	DB	0bbH
	DB	0deH
	DB	0bbH
	DB	0deH
	DB	0bbH
	DB	0deH
	DB	0bbH
	DB	0deH
	DB	0bbH
	DB	0d6H
	DB	0dcH
	DB	0deH
	DB	0bbH
	DB	0d6H
	DB	0bbH
	DB	0d6H
	DB	0bbH
	DB	0deH
	DB	0dcH
	DB	0deH
	DB	0dbH
	DB	0deH
	DB	0bbH
	DB	0d6H
	DB	0bbH
	DB	0d6H
	DB	0dcH
	DB	0deH
	DB	0bbH
	DB	0d6H
	DB	0bbH
	DB	0d6H
	DB	0dbH
	DB	0deH
	DB	0bbH
	DB	0deH
	DB	0dbH
	DB	0d6H
	DB	0bbH
	DB	0d6H
	DB	0bbH
	DB	0d6H
	DB	0dbH
	DB	0deH
	DB	0dbH
	DB	0deH
	DB	0bbH
	DB	0deH
	DB	0bbH
	DB	0d6H
	DB	0dbH
	DB	0deH
	DB	0dcH
	DB	0deH
	DB	0fcH
	DB	0deH
	DB	0fcH
	DB	0e6H
	DB	06aH
	DB	04aH
	DB	0a3H
	DB	010H
	DB	049H
	DB	04aH
	DB	0bbH
	DB	0d6H
	DB	03dH
	DB	0e7H
	DB	0fcH
	DB	0deH
	DB	0dcH
	DB	0deH
	DB	0dbH
	DB	0deH
	DB	05eH
	DB	0efH
	DB	0d7H
	DB	0bdH
	DB	042H
	DB	08H
	DB	062H
	DB	010H
	DB	072H
	DB	094H
	DB	0dcH
	DB	0deH
	DB	0fcH
	DB	0deH
	DB	0bbH
	DB	0d6H
	DB	0dbH
	DB	0deH
	DB	0bbH
	DB	0d6H
	DB	09aH
	DB	0d6H
	DB	0dcH
	DB	0deH
	DB	01cH
	DB	0e7H
	DB	0d8H
	DB	0bdH
	DB	0f0H
	DB	07bH
	DB	01cH
	DB	0e7H
	DB	0f8H
	DB	0bdH
	DB	0a3H
	DB	010H
	DB	049H
	DB	04aH
	DB	055H
	DB	0adH
	DB	0ecH
	DB	05aH
	DB	021H
	DB	00H
	DB	041H
	DB	08H
	DB	0a7H
	DB	031H
	DB	029H
	DB	042H
	DB	09H
	DB	042H
	DB	0f0H
	DB	07bH
	DB	06eH
	DB	06bH
	DB	06aH
	DB	04aH
	DB	082H
	DB	010H
	DB	00H
	DB	00H
	DB	0e8H
	DB	039H
	DB	09bH
	DB	0d6H
	DB	0dbH
	DB	0deH
	DB	09bH
	DB	0d6H
	DB	0bbH
	DB	0d6H
	DB	0bbH
	DB	0d6H
	DB	0bbH
	DB	0d6H
	DB	0bbH
	DB	0deH
	DB	0bbH
	DB	0deH
	DB	0dbH
	DB	0deH
	DB	0bbH
	DB	0d6H
	DB	0bbH
	DB	0deH
	DB	0dbH
	DB	0d6H
	DB	0dcH
	DB	0deH
	DB	0bbH
	DB	0deH
	DB	0dcH
	DB	0d6H
	DB	0bbH
	DB	0d6H
	DB	0bbH
	DB	0d6H
	DB	0dbH
	DB	0deH
	DB	0bbH
	DB	0deH
	DB	0dcH
	DB	0d6H
	DB	0bbH
	DB	0deH
	DB	0bbH
	DB	0d6H
	DB	0bbH
	DB	0d6H
	DB	0bbH
	DB	0deH
	DB	0bbH
	DB	0d6H
	DB	0bbH
	DB	0d6H
	DB	0bbH
	DB	0deH
	DB	0dcH
	DB	0deH
	DB	0bbH
	DB	0d6H
	DB	0dbH
	DB	0deH
	DB	0bcH
	DB	0deH
	DB	0bbH
	DB	0d6H
	DB	0dcH
	DB	0deH
	DB	0bbH
	DB	0d6H
	DB	0bbH
	DB	0deH
	DB	0dcH
	DB	0deH
	DB	0dbH
	DB	0deH
	DB	0bcH
	DB	0deH
	DB	0dbH
	DB	0deH
	DB	0bbH
	DB	0d6H
	DB	0bbH
	DB	0deH
	DB	0dcH
	DB	0deH
	DB	0dbH
	DB	0d6H
	DB	0bbH
	DB	0deH
	DB	0dbH
	DB	0deH
	DB	0dbH
	DB	0deH
	DB	0dbH
	DB	0deH
	DB	0bcH
	DB	0d6H
	DB	0dbH
	DB	0deH
	DB	0dbH
	DB	0deH
	DB	0dcH
	DB	0d6H
	DB	0bbH
	DB	0deH
	DB	0dbH
	DB	0deH
	DB	0dcH
	DB	0deH
	DB	0bbH
	DB	0d6H
	DB	0dbH
	DB	0deH
	DB	0bbH
	DB	0deH
	DB	0bbH
	DB	0d6H
	DB	0dbH
	DB	0deH
	DB	0bcH
	DB	0d6H
	DB	0dbH
	DB	0deH
	DB	0dbH
	DB	0deH
	DB	0bbH
	DB	0d6H
	DB	0dcH
	DB	0deH
	DB	0dbH
	DB	0deH
	DB	0bbH
	DB	0d6H
	DB	0bbH
	DB	0deH
	DB	0bbH
	DB	0deH
	DB	0bbH
	DB	0d6H
	DB	0dbH
	DB	0deH
	DB	0bbH
	DB	0d6H
	DB	0bbH
	DB	0d6H
	DB	0bcH
	DB	0deH
	DB	0bbH
	DB	0deH
	DB	0dbH
	DB	0d6H
	DB	0bbH
	DB	0deH
	DB	0bbH
	DB	0d6H
	DB	0bbH
	DB	0d6H
	DB	0bbH
	DB	0deH
	DB	0dbH
	DB	0deH
	DB	0bbH
	DB	0d6H
	DB	0bbH
	DB	0d6H
	DB	0dbH
	DB	0deH
	DB	0dcH
	DB	0deH
	DB	0bbH
	DB	0deH
	DB	0dbH
	DB	0deH
	DB	0bbH
	DB	0d6H
	DB	0dcH
	DB	0deH
	DB	0dbH
	DB	0deH
	DB	0bcH
	DB	0d6H
	DB	0dbH
	DB	0deH
	DB	0dbH
	DB	0deH
	DB	0bbH
	DB	0deH
	DB	0dbH
	DB	0d6H
	DB	0bbH
	DB	0deH
	DB	0dbH
	DB	0deH
	DB	0dbH
	DB	0d6H
	DB	0bbH
	DB	0deH
	DB	0dbH
	DB	0deH
	DB	0bbH
	DB	0d6H
	DB	0bbH
	DB	0deH
	DB	0dcH
	DB	0deH
	DB	0bbH
	DB	0d6H
	DB	0bbH
	DB	0deH
	DB	0dbH
	DB	0d6H
	DB	0dcH
	DB	0deH
	DB	0bbH
	DB	0d6H
	DB	0dbH
	DB	0deH
	DB	0dbH
	DB	0d6H
	DB	0bbH
	DB	0deH
	DB	0bcH
	DB	0deH
	DB	0dbH
	DB	0deH
	DB	0dbH
	DB	0deH
	DB	0bbH
	DB	0d6H
	DB	0dbH
	DB	0d6H
	DB	0bbH
	DB	0d6H
	DB	0dcH
	DB	0deH
	DB	0dbH
	DB	0deH
	DB	0dcH
	DB	0d6H
	DB	0bbH
	DB	0deH
	DB	0bbH
	DB	0deH
	DB	0dcH
	DB	0d6H
	DB	0dbH
	DB	0deH
	DB	0dbH
	DB	0deH
	DB	0bcH
	DB	0deH
	DB	0bbH
	DB	0d6H
	DB	0dbH
	DB	0d6H
	DB	0dbH
	DB	0deH
	DB	0bbH
	DB	0deH
	DB	0bbH
	DB	0d6H
	DB	0bbH
	DB	0d6H
	DB	0bbH
	DB	0deH
	DB	0dbH
	DB	0deH
	DB	0dcH
	DB	0deH
	DB	0bbH
	DB	0d6H
	DB	0bbH
	DB	0deH
	DB	0dcH
	DB	0deH
	DB	0dbH
	DB	0d6H
	DB	0dcH
	DB	0deH
	DB	0dbH
	DB	0d6H
	DB	0dbH
	DB	0d6H
	DB	0dbH
	DB	0deH
	DB	0bbH
	DB	0deH
	DB	0bbH
	DB	0d6H
	DB	0dcH
	DB	0d6H
	DB	0bbH
	DB	0deH
	DB	0dbH
	DB	0deH
	DB	0bcH
	DB	0d6H
	DB	0bbH
	DB	0d6H
	DB	0dbH
	DB	0deH
	DB	0bbH
	DB	0d6H
	DB	0bbH
	DB	0deH
	DB	0bbH
	DB	0d6H
	DB	0bbH
	DB	0deH
	DB	0bbH
	DB	0d6H
	DB	0bbH
	DB	0d6H
	DB	0dbH
	DB	0deH
	DB	0bbH
	DB	0d6H
	DB	0bbH
	DB	0d6H
	DB	0dcH
	DB	0deH
	DB	0bbH
	DB	0d6H
	DB	0bbH
	DB	0d6H
	DB	0bbH
	DB	0deH
	DB	0bbH
	DB	0d6H
	DB	0dbH
	DB	0deH
	DB	05aH
	DB	0ceH
	DB	01dH
	DB	0e7H
	DB	08bH
	DB	052H
	DB	062H
	DB	010H
	DB	08aH
	DB	052H
	DB	0fcH
	DB	0e6H
	DB	0dcH
	DB	0deH
	DB	09bH
	DB	0d6H
	DB	0fcH
	DB	0e6H
	DB	0dbH
	DB	0deH
	DB	01dH
	DB	0e7H
	DB	09bH
	DB	0d6H
	DB	083H
	DB	010H
	DB	00H
	DB	00H
	DB	052H
	DB	08cH
	DB	03dH
	DB	0efH
	DB	0bbH
	DB	0deH
	DB	0bbH
	DB	0deH
	DB	0bbH
	DB	0d6H
	DB	0dbH
	DB	0deH
	DB	0dcH
	DB	0deH
	DB	09bH
	DB	0d6H
	DB	0bbH
	DB	0d6H
	DB	05aH
	DB	0ceH
	DB	0abH
	DB	05aH
	DB	0b3H
	DB	094H
	DB	01cH
	DB	0e7H
	DB	035H
	DB	0a5H
	DB	0f0H
	DB	083H
	DB	04aH
	DB	04aH
	DB	01H
	DB	00H
	DB	01H
	DB	00H
	DB	021H
	DB	00H
	DB	00H
	DB	00H
	DB	00H
	DB	00H
	DB	00H
	DB	00H
	DB	083H
	DB	010H
	DB	0ccH
	DB	05aH
	DB	059H
	DB	0ceH
	DB	0f8H
	DB	0bdH
	DB	046H
	DB	029H
	DB	031H
	DB	084H
	DB	07eH
	DB	0f7H
	DB	0bbH
	DB	0d6H
	DB	0bbH
	DB	0deH
	DB	0dbH
	DB	0deH
	DB	0bbH
	DB	0deH
	DB	09bH
	DB	0d6H
	DB	0dbH
	DB	0deH
	DB	0bbH
	DB	0d6H
	DB	0dcH
	DB	0deH
	DB	0bbH
	DB	0d6H
	DB	0dcH
	DB	0deH
	DB	0bbH
	DB	0d6H
	DB	0bbH
	DB	0d6H
	DB	0bbH
	DB	0deH
	DB	0bbH
	DB	0deH
	DB	0bbH
	DB	0d6H
	DB	0dcH
	DB	0deH
	DB	0bbH
	DB	0deH
	DB	0bbH
	DB	0d6H
	DB	0bbH
	DB	0d6H
	DB	0dbH
	DB	0deH
	DB	0dbH
	DB	0deH
	DB	0dbH
	DB	0deH
	DB	0bbH
	DB	0deH
	DB	0bbH
	DB	0d6H
	DB	0bbH
	DB	0deH
	DB	0bbH
	DB	0d6H
	DB	0bbH
	DB	0d6H
	DB	0bbH
	DB	0d6H
	DB	0dbH
	DB	0deH
	DB	0bbH
	DB	0d6H
	DB	0dbH
	DB	0deH
	DB	0bbH
	DB	0d6H
	DB	0bbH
	DB	0d6H
	DB	0dcH
	DB	0deH
	DB	0bbH
	DB	0d6H
	DB	0bbH
	DB	0d6H
	DB	0bbH
	DB	0d6H
	DB	0dcH
	DB	0deH
	DB	0dbH
	DB	0deH
	DB	0bbH
	DB	0d6H
	DB	0dcH
	DB	0deH
	DB	0bbH
	DB	0deH
	DB	0dbH
	DB	0d6H
	DB	0bcH
	DB	0deH
	DB	0dbH
	DB	0deH
	DB	0bbH
	DB	0d6H
	DB	0bbH
	DB	0deH
	DB	0bbH
	DB	0d6H
	DB	0dbH
	DB	0deH
	DB	0bbH
	DB	0d6H
	DB	0bbH
	DB	0deH
	DB	0dbH
	DB	0deH
	DB	0bcH
	DB	0d6H
	DB	0dbH
	DB	0deH
	DB	0bbH
	DB	0d6H
	DB	0dcH
	DB	0deH
	DB	0dbH
	DB	0deH
	DB	0bbH
	DB	0d6H
	DB	0dbH
	DB	0deH
	DB	0bbH
	DB	0deH
	DB	0dbH
	DB	0d6H
	DB	0bbH
	DB	0d6H
	DB	0bbH
	DB	0deH
	DB	0bbH
	DB	0d6H
	DB	0bbH
	DB	0d6H
	DB	0bbH
	DB	0d6H
	DB	0bbH
	DB	0d6H
	DB	0dcH
	DB	0deH
	DB	0dbH
	DB	0deH
	DB	0bbH
	DB	0deH
	DB	0bbH
	DB	0d6H
	DB	0dbH
	DB	0deH
	DB	0bbH
	DB	0d6H
	DB	0dcH
	DB	0deH
	DB	0bbH
	DB	0d6H
	DB	0dbH
	DB	0deH
	DB	0dcH
	DB	0deH
	DB	0bbH
	DB	0d6H
	DB	0bbH
	DB	0d6H
	DB	0bbH
	DB	0deH
	DB	0bbH
	DB	0deH
	DB	0bbH
	DB	0d6H
	DB	0bbH
	DB	0deH
	DB	0bbH
	DB	0deH
	DB	0dcH
	DB	0deH
	DB	0dbH
	DB	0deH
	DB	0bbH
	DB	0deH
	DB	0bbH
	DB	0d6H
	DB	0bbH
	DB	0d6H
	DB	0bbH
	DB	0d6H
	DB	0bbH
	DB	0deH
	DB	0bcH
	DB	0d6H
	DB	0dcH
	DB	0deH
	DB	0bbH
	DB	0deH
	DB	0bbH
	DB	0d6H
	DB	0bbH
	DB	0d6H
	DB	0dcH
	DB	0deH
	DB	0dbH
	DB	0deH
	DB	0bbH
	DB	0d6H
	DB	0dbH
	DB	0deH
	DB	0bbH
	DB	0d6H
	DB	0bbH
	DB	0d6H
	DB	0bbH
	DB	0deH
	DB	0bbH
	DB	0d6H
	DB	0bbH
	DB	0d6H
	DB	0bbH
	DB	0d6H
	DB	0bbH
	DB	0deH
	DB	0dbH
	DB	0deH
	DB	0bbH
	DB	0d6H
	DB	0bbH
	DB	0d6H
	DB	0bbH
	DB	0d6H
	DB	0bbH
	DB	0d6H
	DB	0bbH
	DB	0deH
	DB	0bbH
	DB	0d6H
	DB	0dbH
	DB	0deH
	DB	0bbH
	DB	0d6H
	DB	0bbH
	DB	0d6H
	DB	0bbH
	DB	0d6H
	DB	0bbH
	DB	0d6H
	DB	0bbH
	DB	0deH
	DB	0bbH
	DB	0d6H
	DB	0bcH
	DB	0d6H
	DB	0dbH
	DB	0deH
	DB	0dbH
	DB	0deH
	DB	0dcH
	DB	0deH
	DB	0bbH
	DB	0d6H
	DB	0bbH
	DB	0deH
	DB	0bbH
	DB	0d6H
	DB	0bbH
	DB	0d6H
	DB	0dcH
	DB	0deH
	DB	0dbH
	DB	0deH
	DB	0bbH
	DB	0d6H
	DB	0dbH
	DB	0deH
	DB	0dcH
	DB	0deH
	DB	0bbH
	DB	0deH
	DB	0dbH
	DB	0d6H
	DB	0bbH
	DB	0deH
	DB	0bbH
	DB	0deH
	DB	0bbH
	DB	0d6H
	DB	0dcH
	DB	0deH
	DB	0dcH
	DB	0deH
	DB	0bbH
	DB	0d6H
	DB	0bbH
	DB	0deH
	DB	0bbH
	DB	0deH
	DB	0dbH
	DB	0d6H
	DB	0bbH
	DB	0deH
	DB	0dbH
	DB	0deH
	DB	0bbH
	DB	0deH
	DB	0dcH
	DB	0deH
	DB	0bbH
	DB	0d6H
	DB	0bbH
	DB	0deH
	DB	0dcH
	DB	0deH
	DB	0dbH
	DB	0deH
	DB	0bbH
	DB	0d6H
	DB	0dcH
	DB	0deH
	DB	0bbH
	DB	0deH
	DB	0bbH
	DB	0deH
	DB	0bbH
	DB	0deH
	DB	0dcH
	DB	0deH
	DB	0bbH
	DB	0d6H
	DB	0dbH
	DB	0deH
	DB	0bbH
	DB	0d6H
	DB	0bbH
	DB	0deH
	DB	09bH
	DB	0d6H
	DB	0fcH
	DB	0deH
	DB	0fcH
	DB	0e6H
	DB	0cH
	DB	063H
	DB	021H
	DB	08H
	DB	0c4H
	DB	018H
	DB	0d0H
	DB	07bH
	DB	0bbH
	DB	0deH
	DB	05eH
	DB	0efH
	DB	03dH
	DB	0efH
	DB	0fcH
	DB	0e6H
	DB	059H
	DB	0ceH
	DB	029H
	DB	04aH
	DB	00H
	DB	00H
	DB	0e8H
	DB	039H
	DB	0f8H
	DB	0c5H
	DB	0dcH
	DB	0deH
	DB	09aH
	DB	0d6H
	DB	0dcH
	DB	0deH
	DB	09bH
	DB	0d6H
	DB	0bbH
	DB	0d6H
	DB	0dbH
	DB	0deH
	DB	09bH
	DB	0d6H
	DB	09aH
	DB	0d6H
	DB	0fcH
	DB	0deH
	DB	035H
	DB	0a5H
	DB	031H
	DB	08cH
	DB	01dH
	DB	0e7H
	DB	0dbH
	DB	0deH
	DB	09fH
	DB	0f7H
	DB	0b7H
	DB	0b5H
	DB	082H
	DB	010H
	DB	062H
	DB	010H
	DB	0e4H
	DB	020H
	DB	049H
	DB	04aH
	DB	0c8H
	DB	039H
	DB	021H
	DB	08H
	DB	00H
	DB	00H
	DB	00H
	DB	00H
	DB	0c3H
	DB	018H
	DB	010H
	DB	084H
	DB	0f8H
	DB	0c5H
	DB	059H
	DB	0ceH
	DB	0fcH
	DB	0deH
	DB	0bbH
	DB	0d6H
	DB	0bbH
	DB	0deH
	DB	0bbH
	DB	0d6H
	DB	0dbH
	DB	0deH
	DB	0bbH
	DB	0d6H
	DB	0bbH
	DB	0d6H
	DB	0bbH
	DB	0d6H
	DB	0bbH
	DB	0deH
	DB	0bbH
	DB	0d6H
	DB	0bbH
	DB	0d6H
	DB	0bbH
	DB	0deH
	DB	0bbH
	DB	0deH
	DB	0bbH
	DB	0d6H
	DB	0bbH
	DB	0d6H
	DB	0dbH
	DB	0deH
	DB	0bbH
	DB	0deH
	DB	0bbH
	DB	0d6H
	DB	0bbH
	DB	0d6H
	DB	0bbH
	DB	0deH
	DB	0dcH
	DB	0deH
	DB	0bbH
	DB	0d6H
	DB	0bbH
	DB	0d6H
	DB	0dcH
	DB	0deH
	DB	0dcH
	DB	0deH
	DB	0bbH
	DB	0d6H
	DB	0dbH
	DB	0deH
	DB	0dbH
	DB	0deH
	DB	0bcH
	DB	0deH
	DB	0bbH
	DB	0deH
	DB	0dbH
	DB	0deH
	DB	0bbH
	DB	0d6H
	DB	0dcH
	DB	0deH
	DB	0bbH
	DB	0deH
	DB	0dbH
	DB	0d6H
	DB	0dbH
	DB	0deH
	DB	0bbH
	DB	0d6H
	DB	0dbH
	DB	0deH
	DB	0bbH
	DB	0d6H
	DB	0bbH
	DB	0deH
	DB	0bbH
	DB	0d6H
	DB	0dbH
	DB	0deH
	DB	0bbH
	DB	0d6H
	DB	0bcH
	DB	0deH
	DB	0bbH
	DB	0d6H
	DB	0bbH
	DB	0d6H
	DB	0dcH
	DB	0deH
	DB	0bbH
	DB	0d6H
	DB	0bbH
	DB	0d6H
	DB	0dcH
	DB	0deH
	DB	0bbH
	DB	0d6H
	DB	0bbH
	DB	0deH
	DB	0dcH
	DB	0d6H
	DB	0bbH
	DB	0deH
	DB	0bbH
	DB	0deH
	DB	0bbH
	DB	0d6H
	DB	0dcH
	DB	0deH
	DB	0bbH
	DB	0d6H
	DB	0bbH
	DB	0deH
	DB	0bbH
	DB	0d6H
	DB	0bbH
	DB	0d6H
	DB	0dcH
	DB	0deH
	DB	0bbH
	DB	0deH
	DB	0bbH
	DB	0d6H
	DB	0bbH
	DB	0deH
	DB	0dcH
	DB	0deH
	DB	0dcH
	DB	0deH
	DB	0bbH
	DB	0d6H
	DB	0bbH
	DB	0d6H
	DB	0dcH
	DB	0deH
	DB	0bbH
	DB	0deH
	DB	0dcH
	DB	0d6H
	DB	0bbH
	DB	0d6H
	DB	0dbH
	DB	0deH
	DB	0bbH
	DB	0deH
	DB	0bbH
	DB	0d6H
	DB	0bbH
	DB	0d6H
	DB	0dbH
	DB	0deH
	DB	0bcH
	DB	0deH
	DB	0dbH
	DB	0d6H
	DB	0dcH
	DB	0deH
	DB	0bbH
	DB	0deH
	DB	0dcH
	DB	0d6H
	DB	0dbH
	DB	0d6H
	DB	0bbH
	DB	0deH
	DB	0bbH
	DB	0d6H
	DB	0bbH
	DB	0d6H
	DB	0bcH
	DB	0deH
	DB	0dbH
	DB	0deH
	DB	0dbH
	DB	0deH
	DB	0bbH
	DB	0d6H
	DB	0dcH
	DB	0deH
	DB	0bbH
	DB	0d6H
	DB	0bbH
	DB	0d6H
	DB	0bbH
	DB	0deH
	DB	0dcH
	DB	0deH
	DB	0bbH
	DB	0d6H
	DB	0bbH
	DB	0deH
	DB	0dcH
	DB	0d6H
	DB	0bbH
	DB	0d6H
	DB	0bbH
	DB	0deH
	DB	0bbH
	DB	0d6H
	DB	0dcH
	DB	0deH
	DB	0bbH
	DB	0deH
	DB	0bbH
	DB	0deH
	DB	0bbH
	DB	0d6H
	DB	0dcH
	DB	0deH
	DB	0bbH
	DB	0deH
	DB	0bcH
	DB	0d6H
	DB	0bbH
	DB	0d6H
	DB	0bbH
	DB	0deH
	DB	0dcH
	DB	0deH
	DB	0dbH
	DB	0deH
	DB	0bcH
	DB	0deH
	DB	0dcH
	DB	0deH
	DB	0bbH
	DB	0deH
	DB	0bbH
	DB	0deH
	DB	0dbH
	DB	0deH
	DB	0bcH
	DB	0deH
	DB	0dbH
	DB	0deH
	DB	0dbH
	DB	0deH
	DB	0bbH
	DB	0d6H
	DB	0bbH
	DB	0d6H
	DB	0bbH
	DB	0d6H
	DB	0bbH
	DB	0d6H
	DB	0bbH
	DB	0deH
	DB	0bbH
	DB	0d6H
	DB	0bbH
	DB	0d6H
	DB	0dcH
	DB	0deH
	DB	0dcH
	DB	0deH
	DB	0bbH
	DB	0d6H
	DB	0dbH
	DB	0deH
	DB	0bbH
	DB	0d6H
	DB	0bbH
	DB	0d6H
	DB	0bbH
	DB	0d6H
	DB	0bbH
	DB	0d6H
	DB	0dbH
	DB	0deH
	DB	0dcH
	DB	0deH
	DB	0bbH
	DB	0d6H
	DB	0bbH
	DB	0deH
	DB	0bbH
	DB	0deH
	DB	0dbH
	DB	0d6H
	DB	0dbH
	DB	0deH
	DB	0bbH
	DB	0d6H
	DB	0dcH
	DB	0d6H
	DB	0bbH
	DB	0deH
	DB	0dbH
	DB	0deH
	DB	0bcH
	DB	0d6H
	DB	0dbH
	DB	0deH
	DB	0bbH
	DB	0d6H
	DB	0bbH
	DB	0deH
	DB	0bbH
	DB	0d6H
	DB	0dcH
	DB	0deH
	DB	0bbH
	DB	0d6H
	DB	0dbH
	DB	0deH
	DB	0bbH
	DB	0deH
	DB	0dbH
	DB	0d6H
	DB	0bbH
	DB	0d6H
	DB	0bbH
	DB	0deH
	DB	0dbH
	DB	0d6H
	DB	0bbH
	DB	0deH
	DB	0bbH
	DB	0d6H
	DB	0bbH
	DB	0deH
	DB	0dcH
	DB	0deH
	DB	09bH
	DB	0d6H
	DB	0fcH
	DB	0deH
	DB	0bbH
	DB	0d6H
	DB	0d8H
	DB	0bdH
	DB	00H
	DB	00H
	DB	00H
	DB	00H
	DB	042H
	DB	08H
	DB	046H
	DB	029H
	DB	0e8H
	DB	039H
	DB	0e8H
	DB	041H
	DB	0c8H
	DB	039H
	DB	05H
	DB	021H
	DB	00H
	DB	00H
	DB	0a7H
	DB	031H
	DB	0b7H
	DB	0bdH
	DB	0bbH
	DB	0deH
	DB	09bH
	DB	0d6H
	DB	09bH
	DB	0d6H
	DB	0bbH
	DB	0deH
	DB	0bbH
	DB	0deH
	DB	0dbH
	DB	0deH
	DB	0dbH
	DB	0deH
	DB	0dcH
	DB	0deH
	DB	0fcH
	DB	0deH
	DB	09aH
	DB	0d6H
	DB	0fcH
	DB	0deH
	DB	07aH
	DB	0ceH
	DB	093H
	DB	094H
	DB	014H
	DB	09dH
	DB	01cH
	DB	0dfH
	DB	076H
	DB	0b5H
	DB	02dH
	DB	063H
	DB	066H
	DB	029H
	DB	093H
	DB	094H
	DB	0dcH
	DB	0deH
	DB	0dbH
	DB	0deH
	DB	0b3H
	DB	094H
	DB	086H
	DB	031H
	DB	025H
	DB	029H
	DB	083H
	DB	010H
	DB	0a7H
	DB	031H
	DB	07eH
	DB	0efH
	DB	0dcH
	DB	0deH
	DB	09aH
	DB	0d6H
	DB	0fcH
	DB	0e6H
	DB	0bbH
	DB	0d6H
	DB	09bH
	DB	0d6H
	DB	0bbH
	DB	0deH
	DB	0bbH
	DB	0d6H
	DB	0bbH
	DB	0d6H
	DB	09bH
	DB	0d6H
	DB	09bH
	DB	0d6H
	DB	0dbH
	DB	0deH
	DB	0bbH
	DB	0d6H
	DB	09bH
	DB	0d6H
	DB	0dbH
	DB	0deH
	DB	0dcH
	DB	0deH
	DB	0bbH
	DB	0d6H
	DB	0bbH
	DB	0d6H
	DB	0bbH
	DB	0d6H
	DB	0dcH
	DB	0deH
	DB	0bbH
	DB	0d6H
	DB	0bbH
	DB	0d6H
	DB	0bbH
	DB	0deH
	DB	0bbH
	DB	0deH
	DB	0dbH
	DB	0d6H
	DB	0bbH
	DB	0d6H
	DB	0bbH
	DB	0d6H
	DB	0bbH
	DB	0d6H
	DB	0bbH
	DB	0d6H
	DB	0bbH
	DB	0d6H
	DB	0bbH
	DB	0d6H
	DB	0dbH
	DB	0deH
	DB	0bcH
	DB	0deH
	DB	0dbH
	DB	0d6H
	DB	0bbH
	DB	0deH
	DB	0bcH
	DB	0deH
	DB	0bbH
	DB	0deH
	DB	0bbH
	DB	0d6H
	DB	0bcH
	DB	0deH
	DB	0dbH
	DB	0deH
	DB	0bbH
	DB	0deH
	DB	0bbH
	DB	0d6H
	DB	0dcH
	DB	0deH
	DB	0dbH
	DB	0deH
	DB	0bbH
	DB	0d6H
	DB	0bbH
	DB	0d6H
	DB	0dbH
	DB	0deH
	DB	0bbH
	DB	0deH
	DB	0dbH
	DB	0deH
	DB	0dbH
	DB	0deH
	DB	0bbH
	DB	0deH
	DB	0dcH
	DB	0deH
	DB	0dbH
	DB	0deH
	DB	0bbH
	DB	0d6H
	DB	0dbH
	DB	0deH
	DB	0dbH
	DB	0deH
	DB	0bbH
	DB	0d6H
	DB	0dbH
	DB	0deH
	DB	0bbH
	DB	0deH
	DB	0dcH
	DB	0d6H
	DB	0dbH
	DB	0deH
	DB	0bcH
	DB	0deH
	DB	0dbH
	DB	0deH
	DB	0bbH
	DB	0deH
	DB	0bbH
	DB	0d6H
	DB	0bbH
	DB	0d6H
	DB	0bbH
	DB	0deH
	DB	0dbH
	DB	0deH
	DB	0dbH
	DB	0deH
	DB	0bbH
	DB	0d6H
	DB	0bbH
	DB	0deH
	DB	0dbH
	DB	0deH
	DB	0bbH
	DB	0d6H
	DB	0bbH
	DB	0d6H
	DB	0dbH
	DB	0deH
	DB	0bbH
	DB	0deH
	DB	0dcH
	DB	0deH
	DB	0bbH
	DB	0d6H
	DB	0bbH
	DB	0d6H
	DB	0bbH
	DB	0deH
	DB	0dbH
	DB	0deH
	DB	0bbH
	DB	0d6H
	DB	0bbH
	DB	0deH
	DB	0dbH
	DB	0deH
	DB	0bbH
	DB	0deH
	DB	0dcH
	DB	0d6H
	DB	0dbH
	DB	0deH
	DB	0bbH
	DB	0d6H
	DB	0dcH
	DB	0deH
	DB	0dbH
	DB	0d6H
	DB	0bbH
	DB	0deH
	DB	0bcH
	DB	0deH
	DB	0dbH
	DB	0deH
	DB	0bbH
	DB	0deH
	DB	0dbH
	DB	0deH
	DB	0bbH
	DB	0d6H
	DB	0dbH
	DB	0deH
	DB	0dbH
	DB	0deH
	DB	0bbH
	DB	0d6H
	DB	0dbH
	DB	0deH
	DB	0bbH
	DB	0deH
	DB	0dcH
	DB	0deH
	DB	0dbH
	DB	0deH
	DB	0dbH
	DB	0deH
	DB	0dcH
	DB	0d6H
	DB	0bbH
	DB	0d6H
	DB	0dbH
	DB	0deH
	DB	0dbH
	DB	0deH
	DB	0bbH
	DB	0deH
	DB	0dbH
	DB	0deH
	DB	0dbH
	DB	0deH
	DB	0dcH
	DB	0deH
	DB	0dbH
	DB	0deH
	DB	0bbH
	DB	0d6H
	DB	0bbH
	DB	0d6H
	DB	0dbH
	DB	0deH
	DB	0bbH
	DB	0d6H
	DB	0bbH
	DB	0d6H
	DB	0dcH
	DB	0deH
	DB	0dbH
	DB	0d6H
	DB	0bbH
	DB	0deH
	DB	0dcH
	DB	0deH
	DB	0dbH
	DB	0d6H
	DB	0bcH
	DB	0deH
	DB	0dbH
	DB	0deH
	DB	0dbH
	DB	0deH
	DB	0bcH
	DB	0deH
	DB	0dbH
	DB	0deH
	DB	0bbH
	DB	0d6H
	DB	0dbH
	DB	0deH
	DB	0dbH
	DB	0deH
	DB	0bbH
	DB	0d6H
	DB	0bbH
	DB	0deH
	DB	0dcH
	DB	0deH
	DB	0bbH
	DB	0d6H
	DB	0dbH
	DB	0deH
	DB	0bbH
	DB	0deH
	DB	0dcH
	DB	0deH
	DB	0bbH
	DB	0d6H
	DB	0dbH
	DB	0deH
	DB	0bbH
	DB	0d6H
	DB	0bbH
	DB	0d6H
	DB	0bbH
	DB	0d6H
	DB	0bbH
	DB	0deH
	DB	0bbH
	DB	0d6H
	DB	0bbH
	DB	0deH
	DB	0dcH
	DB	0deH
	DB	0bbH
	DB	0deH
	DB	0bbH
	DB	0d6H
	DB	0dcH
	DB	0d6H
	DB	0bbH
	DB	0deH
	DB	0dbH
	DB	0deH
	DB	0dbH
	DB	0d6H
	DB	0bbH
	DB	0deH
	DB	0dbH
	DB	0deH
	DB	0bbH
	DB	0d6H
	DB	0bbH
	DB	0d6H
	DB	0bbH
	DB	0deH
	DB	0bbH
	DB	0deH
	DB	0bbH
	DB	0d6H
	DB	0bbH
	DB	0d6H
	DB	0dcH
	DB	0deH
	DB	0dbH
	DB	0deH
	DB	0bcH
	DB	0d6H
	DB	0bbH
	DB	0d6H
	DB	0bbH
	DB	0d6H
	DB	0bbH
	DB	0d6H
	DB	0fcH
	DB	0e6H
	DB	0bbH
	DB	0d6H
	DB	0fcH
	DB	0e6H
	DB	072H
	DB	094H
	DB	05H
	DB	021H
	DB	00H
	DB	00H
	DB	00H
	DB	00H
	DB	00H
	DB	00H
	DB	00H
	DB	00H
	DB	00H
	DB	00H
	DB	00H
	DB	00H
	DB	025H
	DB	029H
	DB	06aH
	DB	052H
	DB	018H
	DB	0c6H
	DB	01dH
	DB	0e7H
	DB	0dbH
	DB	0deH
	DB	0bbH
	DB	0deH
	DB	0dcH
	DB	0deH
	DB	09aH
	DB	0d6H
	DB	0dcH
	DB	0deH
	DB	0dcH
	DB	0deH
	DB	09bH
	DB	0d6H
	DB	0dbH
	DB	0deH
	DB	0dbH
	DB	0deH
	DB	0fcH
	DB	0e6H
	DB	0dcH
	DB	0deH
	DB	0dbH
	DB	0deH
	DB	05aH
	DB	0ceH
	DB	09eH
	DB	0f7H
	DB	0b7H
	DB	0bdH
	DB	059H
	DB	0ceH
	DB	0dbH
	DB	0d6H
	DB	03dH
	DB	0e7H
	DB	0dcH
	DB	0deH
	DB	0dbH
	DB	0deH
	DB	05dH
	DB	0e7H
	DB	05eH
	DB	0efH
	DB	03dH
	DB	0e7H
	DB	07eH
	DB	0efH
	DB	07eH
	DB	0efH
	DB	05aH
	DB	0ceH
	DB	0fcH
	DB	0deH
	DB	0dcH
	DB	0deH
	DB	0fcH
	DB	0deH
	DB	0dbH
	DB	0deH
	DB	0bbH
	DB	0d6H
	DB	0bbH
	DB	0deH
	DB	0bbH
	DB	0d6H
	DB	0bbH
	DB	0deH
	DB	0dbH
	DB	0deH
	DB	0dcH
	DB	0deH
	DB	09bH
	DB	0d6H
	DB	0bbH
	DB	0d6H
	DB	0dcH
	DB	0deH
	DB	0bbH
	DB	0d6H
	DB	0bbH
	DB	0d6H
	DB	0bbH
	DB	0deH
	DB	0bbH
	DB	0d6H
	DB	0bbH
	DB	0deH
	DB	0dcH
	DB	0deH
	DB	0bbH
	DB	0deH
	DB	0bbH
	DB	0d6H
	DB	0dbH
	DB	0deH
	DB	0bbH
	DB	0d6H
	DB	0bbH
	DB	0d6H
	DB	0bbH
	DB	0deH
	DB	0bbH
	DB	0deH
	DB	0bbH
	DB	0deH
	DB	0bbH
	DB	0deH
	DB	0bbH
	DB	0deH
	DB	0dbH
	DB	0d6H
	DB	0dcH
	DB	0deH
	DB	0bbH
	DB	0d6H
	DB	0bbH
	DB	0d6H
	DB	0bbH
	DB	0d6H
	DB	0bbH
	DB	0deH
	DB	0bbH
	DB	0d6H
	DB	0dbH
	DB	0d6H
	DB	0bbH
	DB	0d6H
	DB	0bbH
	DB	0deH
	DB	0dcH
	DB	0d6H
	DB	0dbH
	DB	0deH
	DB	0bbH
	DB	0deH
	DB	0bcH
	DB	0d6H
	DB	0dbH
	DB	0deH
	DB	0dbH
	DB	0deH
	DB	0bcH
	DB	0d6H
	DB	0bbH
	DB	0deH
	DB	0dbH
	DB	0d6H
	DB	0bcH
	DB	0d6H
	DB	0bbH
	DB	0deH
	DB	0dbH
	DB	0d6H
	DB	0bbH
	DB	0deH
	DB	0bbH
	DB	0d6H
	DB	0bbH
	DB	0d6H
	DB	0dcH
	DB	0deH
	DB	0bbH
	DB	0d6H
	DB	0bbH
	DB	0deH
	DB	0dbH
	DB	0d6H
	DB	0bbH
	DB	0deH
	DB	0dbH
	DB	0deH
	DB	0bbH
	DB	0d6H
	DB	0dcH
	DB	0deH
	DB	0dbH
	DB	0deH
	DB	0dcH
	DB	0d6H
	DB	0dcH
	DB	0deH
	DB	0dbH
	DB	0deH
	DB	0bbH
	DB	0d6H
	DB	0bbH
	DB	0d6H
	DB	0dcH
	DB	0deH
	DB	0dbH
	DB	0deH
	DB	0bbH
	DB	0d6H
	DB	0bbH
	DB	0deH
	DB	0bbH
	DB	0deH
	DB	0dcH
	DB	0d6H
	DB	0bbH
	DB	0deH
	DB	0dbH
	DB	0deH
	DB	0bbH
	DB	0d6H
	DB	0bbH
	DB	0deH
	DB	0dcH
	DB	0deH
	DB	0dbH
	DB	0d6H
	DB	0bcH
	DB	0deH
	DB	0bbH
	DB	0d6H
	DB	0bbH
	DB	0d6H
	DB	0bbH
	DB	0deH
	DB	0bbH
	DB	0deH
	DB	0dcH
	DB	0deH
	DB	0bbH
	DB	0deH
	DB	0bbH
	DB	0d6H
	DB	0dbH
	DB	0deH
	DB	0bbH
	DB	0d6H
	DB	0dcH
	DB	0d6H
	DB	0bbH
	DB	0deH
	DB	0dbH
	DB	0d6H
	DB	0bcH
	DB	0deH
	DB	0bbH
	DB	0d6H
	DB	0bbH
	DB	0d6H
	DB	0bcH
	DB	0deH
	DB	0dbH
	DB	0deH
	DB	0bbH
	DB	0d6H
	DB	0bbH
	DB	0deH
	DB	0bbH
	DB	0d6H
	DB	0bbH
	DB	0d6H
	DB	0bbH
	DB	0deH
	DB	0bbH
	DB	0d6H
	DB	0bbH
	DB	0d6H
	DB	0bbH
	DB	0deH
	DB	0bbH
	DB	0d6H
	DB	0dcH
	DB	0d6H
	DB	0bbH
	DB	0d6H
	DB	0bbH
	DB	0deH
	DB	0dbH
	DB	0d6H
	DB	0bbH
	DB	0deH
	DB	0bbH
	DB	0deH
	DB	0dbH
	DB	0d6H
	DB	0bbH
	DB	0deH
	DB	0dbH
	DB	0deH
	DB	0bbH
	DB	0d6H
	DB	0dbH
	DB	0deH
	DB	0bbH
	DB	0d6H
	DB	0bbH
	DB	0d6H
	DB	0bbH
	DB	0deH
	DB	0bbH
	DB	0d6H
	DB	0bbH
	DB	0d6H
	DB	0bbH
	DB	0deH
	DB	0dbH
	DB	0deH
	DB	0bbH
	DB	0d6H
	DB	0dcH
	DB	0deH
	DB	0bbH
	DB	0d6H
	DB	0bbH
	DB	0deH
	DB	0bbH
	DB	0d6H
	DB	0dbH
	DB	0deH
	DB	0bbH
	DB	0deH
	DB	0bbH
	DB	0deH
	DB	0bbH
	DB	0d6H
	DB	0dcH
	DB	0deH
	DB	0bbH
	DB	0deH
	DB	0bbH
	DB	0d6H
	DB	0bbH
	DB	0d6H
	DB	0bbH
	DB	0deH
	DB	0bbH
	DB	0deH
	DB	0dcH
	DB	0d6H
	DB	0dcH
	DB	0deH
	DB	0dbH
	DB	0deH
	DB	0bcH
	DB	0deH
	DB	0dbH
	DB	0d6H
	DB	0bbH
	DB	0d6H
	DB	0bbH
	DB	0d6H
	DB	0bbH
	DB	0deH
	DB	0dbH
	DB	0deH
	DB	0bbH
	DB	0deH
	DB	0dcH
	DB	0d6H
	DB	0dcH
	DB	0deH
	DB	0bbH
	DB	0deH
	DB	0bbH
	DB	0d6H
	DB	0bbH
	DB	0d6H
	DB	0dcH
	DB	0deH
	DB	0dbH
	DB	0deH
	DB	0dbH
	DB	0deH
	DB	0bbH
	DB	0deH
	DB	0bbH
	DB	0d6H
	DB	0dcH
	DB	0deH
	DB	0bbH
	DB	0deH
	DB	0dbH
	DB	0deH
	DB	0bbH
	DB	0d6H
	DB	0dbH
	DB	0deH
	DB	0bbH
	DB	0d6H
	DB	0bbH
	DB	0d6H
	DB	0dbH
	DB	0deH
	DB	09aH
	DB	0d6H
	DB	07eH
	DB	0f7H
	DB	0d8H
	DB	0bdH
	DB	0d0H
	DB	07bH
	DB	0afH
	DB	07bH
	DB	08fH
	DB	073H
	DB	04eH
	DB	06bH
	DB	06eH
	DB	073H
	DB	08fH
	DB	073H
	DB	0b3H
	DB	09cH
	DB	0bbH
	DB	0deH
	DB	01dH
	DB	0e7H
	DB	09bH
	DB	0d6H
	DB	09aH
	DB	0d6H
	DB	0bbH
	DB	0deH
	DB	09bH
	DB	0d6H
	DB	0dcH
	DB	0deH
	DB	0bbH
	DB	0d6H
	DB	0bbH
	DB	0d6H
	DB	09aH
	DB	0d6H
	DB	0dbH
	DB	0deH
	DB	0dcH
	DB	0deH
	DB	07aH
	DB	0ceH
	DB	07aH
	DB	0ceH
	DB	0dcH
	DB	0deH
	DB	0dcH
	DB	0deH
	DB	039H
	DB	0c6H
	DB	0fcH
	DB	0deH
	DB	01dH
	DB	0e7H
	DB	0fcH
	DB	0deH
	DB	0bbH
	DB	0d6H
	DB	0bbH
	DB	0deH
	DB	0bbH
	DB	0d6H
	DB	0fcH
	DB	0deH
	DB	07aH
	DB	0ceH
	DB	0fcH
	DB	0deH
	DB	07aH
	DB	0d6H
	DB	0dbH
	DB	0deH
	DB	0bbH
	DB	0d6H
	DB	0dbH
	DB	0deH
	DB	07aH
	DB	0ceH
	DB	07aH
	DB	0ceH
	DB	0bbH
	DB	0deH
	DB	0dbH
	DB	0deH
	DB	0bbH
	DB	0d6H
	DB	0bbH
	DB	0d6H
	DB	0dbH
	DB	0deH
	DB	0dcH
	DB	0deH
	DB	0bbH
	DB	0deH
	DB	09aH
	DB	0d6H
	DB	09bH
	DB	0d6H
	DB	0bbH
	DB	0d6H
	DB	0bbH
	DB	0d6H
	DB	0bbH
	DB	0d6H
	DB	0bbH
	DB	0d6H
	DB	0bbH
	DB	0d6H
	DB	0dbH
	DB	0deH
	DB	0dbH
	DB	0deH
	DB	0bbH
	DB	0d6H
	DB	0bbH
	DB	0d6H
	DB	0bbH
	DB	0d6H
	DB	0bbH
	DB	0d6H
	DB	0bbH
	DB	0d6H
	DB	0bbH
	DB	0deH
	DB	0bbH
	DB	0d6H
	DB	0dbH
	DB	0deH
	DB	0dcH
	DB	0deH
	DB	0bbH
	DB	0d6H
	DB	0bbH
	DB	0deH
	DB	0bbH
	DB	0deH
	DB	0bbH
	DB	0d6H
	DB	0bbH
	DB	0deH
	DB	0dcH
	DB	0deH
	DB	0bbH
	DB	0d6H
	DB	0bbH
	DB	0deH
	DB	0dcH
	DB	0deH
	DB	0bbH
	DB	0d6H
	DB	0bbH
	DB	0d6H
	DB	0bbH
	DB	0deH
	DB	0dbH
	DB	0deH
	DB	0bbH
	DB	0d6H
	DB	0bcH
	DB	0deH
	DB	0dbH
	DB	0deH
	DB	0bbH
	DB	0deH
	DB	0dcH
	DB	0d6H
	DB	0dbH
	DB	0deH
	DB	0bbH
	DB	0deH
	DB	0dcH
	DB	0d6H
	DB	0dbH
	DB	0deH
	DB	0bbH
	DB	0deH
	DB	0dcH
	DB	0d6H
	DB	0bbH
	DB	0deH
	DB	0dcH
	DB	0deH
	DB	0bbH
	DB	0d6H
	DB	0bbH
	DB	0deH
	DB	0bbH
	DB	0d6H
	DB	0dcH
	DB	0deH
	DB	0bbH
	DB	0d6H
	DB	0bbH
	DB	0d6H
	DB	0bbH
	DB	0d6H
	DB	0bbH
	DB	0d6H
	DB	0bbH
	DB	0deH
	DB	0bbH
	DB	0deH
	DB	0bbH
	DB	0d6H
	DB	0bbH
	DB	0d6H
	DB	0dcH
	DB	0deH
	DB	0bbH
	DB	0deH
	DB	0bbH
	DB	0deH
	DB	0bbH
	DB	0d6H
	DB	0bbH
	DB	0d6H
	DB	0bbH
	DB	0deH
	DB	0bbH
	DB	0d6H
	DB	0dcH
	DB	0deH
	DB	0bbH
	DB	0d6H
	DB	0bbH
	DB	0deH
	DB	0bbH
	DB	0d6H
	DB	0dcH
	DB	0deH
	DB	0dbH
	DB	0deH
	DB	0bbH
	DB	0d6H
	DB	0bbH
	DB	0deH
	DB	0dcH
	DB	0deH
	DB	0dbH
	DB	0d6H
	DB	0dbH
	DB	0deH
	DB	0bbH
	DB	0d6H
	DB	0bbH
	DB	0d6H
	DB	0dbH
	DB	0deH
	DB	0bbH
	DB	0d6H
	DB	0dcH
	DB	0deH
	DB	0dbH
	DB	0deH
	DB	0bbH
	DB	0deH
	DB	0dbH
	DB	0d6H
	DB	0bbH
	DB	0deH
	DB	0bbH
	DB	0d6H
	DB	0bbH
	DB	0deH
	DB	0bbH
	DB	0d6H
	DB	0dbH
	DB	0deH
	DB	0bbH
	DB	0d6H
	DB	0bcH
	DB	0d6H
	DB	0dcH
	DB	0deH
	DB	0dbH
	DB	0deH
	DB	0dcH
	DB	0d6H
	DB	0bbH
	DB	0deH
	DB	0bbH
	DB	0deH
	DB	0bbH
	DB	0d6H
	DB	0dcH
	DB	0deH
	DB	0dbH
	DB	0deH
	DB	0bbH
	DB	0deH
	DB	0dcH
	DB	0deH
	DB	0bbH
	DB	0d6H
	DB	0bbH
	DB	0d6H
	DB	0bbH
	DB	0d6H
	DB	0dcH
	DB	0deH
	DB	0bcH
	DB	0deH
	DB	0dbH
	DB	0d6H
	DB	0bcH
	DB	0deH
	DB	0dbH
	DB	0deH
	DB	0bcH
	DB	0deH
	DB	0dbH
	DB	0deH
	DB	0dcH
	DB	0deH
	DB	0dbH
	DB	0deH
	DB	0bbH
	DB	0d6H
	DB	0dcH
	DB	0deH
	DB	0bbH
	DB	0deH
	DB	0bbH
	DB	0d6H
	DB	0bbH
	DB	0d6H
	DB	0bbH
	DB	0deH
	DB	0bbH
	DB	0d6H
	DB	0dcH
	DB	0deH
	DB	0bbH
	DB	0deH
	DB	0bbH
	DB	0d6H
	DB	0bbH
	DB	0d6H
	DB	0dcH
	DB	0deH
	DB	0bbH
	DB	0d6H
	DB	0dbH
	DB	0deH
	DB	0dbH
	DB	0deH
	DB	0bcH
	DB	0d6H
	DB	0bbH
	DB	0deH
	DB	0dcH
	DB	0deH
	DB	0dbH
	DB	0deH
	DB	0bbH
	DB	0deH
	DB	0bbH
	DB	0d6H
	DB	0dbH
	DB	0deH
	DB	0bbH
	DB	0d6H
	DB	0bbH
	DB	0deH
	DB	0dbH
	DB	0deH
	DB	0bbH
	DB	0d6H
	DB	0dcH
	DB	0deH
	DB	0bbH
	DB	0deH
	DB	0bbH
	DB	0d6H
	DB	0dbH
	DB	0deH
	DB	0bbH
	DB	0d6H
	DB	0bbH
	DB	0d6H
	DB	0dcH
	DB	0deH
	DB	0dbH
	DB	0deH
	DB	0bbH
	DB	0d6H
	DB	0bbH
	DB	0deH
	DB	0bbH
	DB	0deH
	DB	0bbH
	DB	0d6H
	DB	0bbH
	DB	0d6H
	DB	0bbH
	DB	0d6H
	DB	0dbH
	DB	0deH
	DB	0bbH
	DB	0deH
	DB	0bbH
	DB	0deH
	DB	09bH
	DB	0d6H
	DB	0dbH
	DB	0deH
	DB	07aH
	DB	0d6H
	DB	0bbH
	DB	0d6H
	DB	01dH
	DB	0e7H
	DB	0dcH
	DB	0deH
	DB	0fcH
	DB	0e6H
	DB	0bfH
	DB	0ffH
	DB	0dfH
	DB	0ffH
	DB	05eH
	DB	0efH
	DB	09eH
	DB	0f7H
	DB	09fH
	DB	0f7H
	DB	07eH
	DB	0efH
	DB	07eH
	DB	0f7H
	DB	01dH
	DB	0e7H
	DB	0bbH
	DB	0deH
	DB	0dcH
	DB	0deH
	DB	09bH
	DB	0d6H
	DB	09bH
	DB	0d6H
	DB	0dbH
	DB	0deH
	DB	0bbH
	DB	0deH
	DB	0dcH
	DB	0deH
	DB	07aH
	DB	0ceH
	DB	0fcH
	DB	0deH
	DB	0dcH
	DB	0deH
	DB	0bbH
	DB	0d6H
	DB	0dcH
	DB	0deH
	DB	01cH
	DB	0e7H
	DB	0bbH
	DB	0d6H
	DB	0fcH
	DB	0deH
	DB	0fcH
	DB	0e6H
	DB	0dbH
	DB	0deH
	DB	0dcH
	DB	0deH
	DB	0bbH
	DB	0deH
	DB	09bH
	DB	0d6H
	DB	0fcH
	DB	0e6H
	DB	0bbH
	DB	0d6H
	DB	09bH
	DB	0d6H
	DB	01cH
	DB	0e7H
	DB	0fcH
	DB	0deH
	DB	0dcH
	DB	0deH
	DB	0bbH
	DB	0deH
	DB	09aH
	DB	0d6H
	DB	0dcH
	DB	0deH
	DB	0bbH
	DB	0deH
	DB	0fcH
	DB	0deH
	DB	0dbH
	DB	0deH
	DB	0bbH
	DB	0d6H
	DB	0bbH
	DB	0deH
	DB	0bbH
	DB	0deH
	DB	0bbH
	DB	0d6H
	DB	0bbH
	DB	0d6H
	DB	09bH
	DB	0d6H
	DB	0dbH
	DB	0deH
	DB	0dbH
	DB	0deH
	DB	09aH
	DB	0d6H
	DB	0bbH
	DB	0deH
	DB	0dbH
	DB	0deH
	DB	09bH
	DB	0d6H
	DB	0bbH
	DB	0deH
	DB	0bbH
	DB	0d6H
	DB	0dcH
	DB	0deH
	DB	0bbH
	DB	0d6H
	DB	0bbH
	DB	0d6H
	DB	0dcH
	DB	0deH
	DB	0bbH
	DB	0deH
	DB	0bbH
	DB	0deH
	DB	0bbH
	DB	0d6H
	DB	0bbH
	DB	0d6H
	DB	0bbH
	DB	0d6H
	DB	0bbH
	DB	0d6H
	DB	0bbH
	DB	0d6H
	DB	0bbH
	DB	0d6H
	DB	0dbH
	DB	0deH
	DB	0bbH
	DB	0d6H
	DB	0bbH
	DB	0d6H
	DB	0dcH
	DB	0deH
	DB	0bbH
	DB	0d6H
	DB	0bbH
	DB	0deH
	DB	0dbH
	DB	0deH
	DB	0bbH
	DB	0d6H
	DB	0bbH
	DB	0deH
	DB	0dcH
	DB	0deH
	DB	0dbH
	DB	0d6H
	DB	0bbH
	DB	0d6H
	DB	0bbH
	DB	0d6H
	DB	0bbH
	DB	0d6H
	DB	0dbH
	DB	0deH
	DB	0bbH
	DB	0deH
	DB	0bbH
	DB	0d6H
	DB	0dbH
	DB	0deH
	DB	0bbH
	DB	0d6H
	DB	0bbH
	DB	0d6H
	DB	0bbH
	DB	0deH
	DB	0bbH
	DB	0d6H
	DB	0dbH
	DB	0deH
	DB	0bbH
	DB	0deH
	DB	0bbH
	DB	0d6H
	DB	0bbH
	DB	0d6H
	DB	0bbH
	DB	0d6H
	DB	0dcH
	DB	0deH
	DB	0bbH
	DB	0deH
	DB	0dcH
	DB	0deH
	DB	0bbH
	DB	0d6H
	DB	0dbH
	DB	0deH
	DB	0dbH
	DB	0deH
	DB	0bbH
	DB	0d6H
	DB	0bbH
	DB	0d6H
	DB	0bbH
	DB	0deH
	DB	0bbH
	DB	0d6H
	DB	0bbH
	DB	0d6H
	DB	0bbH
	DB	0d6H
	DB	0bbH
	DB	0d6H
	DB	0bbH
	DB	0d6H
	DB	0bbH
	DB	0deH
	DB	0bbH
	DB	0d6H
	DB	0bbH
	DB	0d6H
	DB	0dbH
	DB	0deH
	DB	0bbH
	DB	0d6H
	DB	0bbH
	DB	0d6H
	DB	0bbH
	DB	0d6H
	DB	0bbH
	DB	0d6H
	DB	0bbH
	DB	0deH
	DB	0dbH
	DB	0deH
	DB	0bbH
	DB	0d6H
	DB	0bbH
	DB	0d6H
	DB	0bbH
	DB	0deH
	DB	0dcH
	DB	0deH
	DB	0dbH
	DB	0d6H
	DB	0bbH
	DB	0deH
	DB	0bcH
	DB	0deH
	DB	0dbH
	DB	0d6H
	DB	0bbH
	DB	0d6H
	DB	0bbH
	DB	0d6H
	DB	0bbH
	DB	0deH
	DB	0bbH
	DB	0d6H
	DB	0dcH
	DB	0deH
	DB	0bbH
	DB	0d6H
	DB	0bbH
	DB	0deH
	DB	0dbH
	DB	0deH
	DB	0bbH
	DB	0d6H
	DB	0dbH
	DB	0deH
	DB	0dbH
	DB	0deH
	DB	0bbH
	DB	0d6H
	DB	0bbH
	DB	0d6H
	DB	0bbH
	DB	0deH
	DB	0bbH
	DB	0d6H
	DB	0dcH
	DB	0deH
	DB	0bbH
	DB	0d6H
	DB	0bbH
	DB	0d6H
	DB	0bbH
	DB	0d6H
	DB	0bbH
	DB	0deH
	DB	0dcH
	DB	0deH
	DB	0dbH
	DB	0deH
	DB	0dbH
	DB	0deH
	DB	0bbH
	DB	0d6H
	DB	0dbH
	DB	0deH
	DB	0bbH
	DB	0d6H
	DB	0bbH
	DB	0d6H
	DB	0bbH
	DB	0d6H
	DB	0bbH
	DB	0d6H
	DB	0bbH
	DB	0d6H
	DB	0bbH
	DB	0d6H
	DB	0bbH
	DB	0deH
	DB	0dbH
	DB	0deH
	DB	0dcH
	DB	0d6H
	DB	0dbH
	DB	0deH
	DB	0dbH
	DB	0deH
	DB	0dcH
	DB	0deH
	DB	0bbH
	DB	0deH
	DB	0dbH
	DB	0d6H
	DB	0dbH
	DB	0deH
	DB	0bcH
	DB	0deH
	DB	0dbH
	DB	0d6H
	DB	0dbH
	DB	0deH
	DB	0dcH
	DB	0deH
	DB	0bbH
	DB	0d6H
	DB	0bbH
	DB	0deH
	DB	0bbH
	DB	0d6H
	DB	0bbH
	DB	0d6H
	DB	0dbH
	DB	0deH
	DB	0bbH
	DB	0d6H
	DB	0bbH
	DB	0d6H
	DB	0dbH
	DB	0deH
	DB	0bbH
	DB	0d6H
	DB	0bbH
	DB	0deH
	DB	0dcH
	DB	0deH
	DB	0bbH
	DB	0d6H
	DB	0dbH
	DB	0deH
	DB	0dcH
	DB	0deH
	DB	0bbH
	DB	0d6H
	DB	0dbH
	DB	0d6H
	DB	0bbH
	DB	0d6H
	DB	0bbH
	DB	0deH
	DB	0bbH
	DB	0deH
	DB	0dbH
	DB	0deH
	DB	0bbH
	DB	0deH
	DB	0bbH
	DB	0d6H
	DB	0bbH
	DB	0d6H
	DB	0dbH
	DB	0deH
	DB	0dbH
	DB	0deH
	DB	0bbH
	DB	0d6H
	DB	0bbH
	DB	0deH
	DB	0dcH
	DB	0deH
	DB	0dbH
	DB	0d6H
	DB	0bbH
	DB	0d6H
	DB	0bbH
	DB	0d6H
	DB	0dcH
	DB	0deH
	DB	0fcH
	DB	0deH
	DB	0dcH
	DB	0deH
	DB	0fcH
	DB	0deH
	DB	0f8H
	DB	0c5H
	DB	06eH
	DB	073H
	DB	02dH
	DB	063H
	DB	0cfH
	DB	07bH
	DB	08bH
	DB	052H
	DB	08fH
	DB	073H
	DB	072H
	DB	094H
	DB	011H
	DB	084H
	DB	096H
	DB	0b5H
	DB	096H
	DB	0b5H
	DB	0b7H
	DB	0b5H
	DB	019H
	DB	0c6H
	DB	07aH
	DB	0d6H
	DB	0fcH
	DB	0e6H
	DB	09bH
	DB	0d6H
	DB	09bH
	DB	0d6H
	DB	07aH
	DB	0d6H
	DB	01cH
	DB	0e7H
	DB	09aH
	DB	0d6H
	DB	0fcH
	DB	0deH
	DB	0bbH
	DB	0d6H
	DB	0dbH
	DB	0deH
	DB	0dcH
	DB	0deH
	DB	0dbH
	DB	0deH
	DB	0dbH
	DB	0deH
	DB	0bbH
	DB	0deH
	DB	0bbH
	DB	0d6H
	DB	01cH
	DB	0e7H
	DB	0bbH
	DB	0deH
	DB	0fcH
	DB	0deH
	DB	0fcH
	DB	0deH
	DB	0fcH
	DB	0deH
	DB	0dbH
	DB	0deH
	DB	09bH
	DB	0d6H
	DB	09bH
	DB	0d6H
	DB	0bbH
	DB	0deH
	DB	09bH
	DB	0d6H
	DB	0fcH
	DB	0deH
	DB	09bH
	DB	0d6H
	DB	07aH
	DB	0ceH
	DB	09aH
	DB	0d6H
	DB	09bH
	DB	0d6H
	DB	09bH
	DB	0d6H
	DB	0bbH
	DB	0d6H
	DB	0dcH
	DB	0deH
	DB	0dbH
	DB	0deH
	DB	0bbH
	DB	0d6H
	DB	0bbH
	DB	0d6H
	DB	0bbH
	DB	0deH
	DB	09bH
	DB	0d6H
	DB	0bbH
	DB	0d6H
	DB	0bbH
	DB	0deH
	DB	0bbH
	DB	0d6H
	DB	0bbH
	DB	0d6H
	DB	0dbH
	DB	0deH
	DB	0bbH
	DB	0d6H
	DB	0bbH
	DB	0deH
	DB	0dbH
	DB	0deH
	DB	0bbH
	DB	0d6H
	DB	0bbH
	DB	0d6H
	DB	0dcH
	DB	0deH
	DB	0dcH
	DB	0deH
	DB	0dbH
	DB	0deH
	DB	0bbH
	DB	0deH
	DB	0bbH
	DB	0d6H
	DB	0bbH
	DB	0d6H
	DB	0bbH
	DB	0d6H
	DB	0bbH
	DB	0deH
	DB	0bbH
	DB	0deH
	DB	0dcH
	DB	0deH
	DB	0bbH
	DB	0d6H
	DB	0bbH
	DB	0deH
	DB	0dbH
	DB	0deH
	DB	0bbH
	DB	0d6H
	DB	0bbH
	DB	0d6H
	DB	0dbH
	DB	0deH
	DB	0bbH
	DB	0d6H
	DB	0bbH
	DB	0d6H
	DB	0bbH
	DB	0deH
	DB	0dcH
	DB	0deH
	DB	0bbH
	DB	0deH
	DB	0dbH
	DB	0deH
	DB	0dcH
	DB	0d6H
	DB	0bbH
	DB	0d6H
	DB	0bbH
	DB	0deH
	DB	0dcH
	DB	0deH
	DB	0bbH
	DB	0d6H
	DB	0bbH
	DB	0deH
	DB	0dcH
	DB	0deH
	DB	0dbH
	DB	0deH
	DB	0bbH
	DB	0d6H
	DB	0dcH
	DB	0deH
	DB	0dbH
	DB	0deH
	DB	0dbH
	DB	0deH
	DB	0dcH
	DB	0deH
	DB	0bbH
	DB	0d6H
	DB	0bbH
	DB	0deH
	DB	0bbH
	DB	0d6H
	DB	0bbH
	DB	0deH
	DB	0dbH
	DB	0deH
	DB	0bcH
	DB	0d6H
	DB	0bbH
	DB	0d6H
	DB	0bbH
	DB	0d6H
	DB	0dcH
	DB	0deH
	DB	0dbH
	DB	0deH
	DB	0dbH
	DB	0deH
	DB	0dcH
	DB	0deH
	DB	0bbH
	DB	0deH
	DB	0dcH
	DB	0deH
	DB	0dbH
	DB	0deH
	DB	0dcH
	DB	0deH
	DB	0dbH
	DB	0deH
	DB	0dbH
	DB	0deH
	DB	0bcH
	DB	0deH
	DB	0dbH
	DB	0deH
	DB	0dbH
	DB	0deH
	DB	0bcH
	DB	0deH
	DB	0dbH
	DB	0deH
	DB	0bbH
	DB	0d6H
	DB	0bbH
	DB	0d6H
	DB	0dcH
	DB	0deH
	DB	0bbH
	DB	0d6H
	DB	0bbH
	DB	0deH
	DB	0dcH
	DB	0deH
	DB	0bbH
	DB	0d6H
	DB	0dbH
	DB	0deH
	DB	0bbH
	DB	0deH
	DB	0bbH
	DB	0deH
	DB	0dcH
	DB	0deH
	DB	0dbH
	DB	0deH
	DB	0bcH
	DB	0deH
	DB	0dbH
	DB	0deH
	DB	0bbH
	DB	0d6H
	DB	0dcH
	DB	0deH
	DB	0dbH
	DB	0deH
	DB	0bbH
	DB	0d6H
	DB	0dcH
	DB	0deH
	DB	0bbH
	DB	0deH
	DB	0bbH
	DB	0d6H
	DB	0dbH
	DB	0deH
	DB	0bcH
	DB	0deH
	DB	0dbH
	DB	0deH
	DB	0dbH
	DB	0deH
	DB	0dbH
	DB	0deH
	DB	0bbH
	DB	0d6H
	DB	0bbH
	DB	0deH
	DB	0dbH
	DB	0deH
	DB	0dbH
	DB	0d6H
	DB	0bbH
	DB	0deH
	DB	0bcH
	DB	0deH
	DB	0bbH
	DB	0d6H
	DB	0dbH
	DB	0deH
	DB	0bbH
	DB	0deH
	DB	0dcH
	DB	0deH
	DB	0dbH
	DB	0deH
	DB	0bbH
	DB	0deH
	DB	0dbH
	DB	0deH
	DB	0dcH
	DB	0deH
	DB	0bbH
	DB	0d6H
	DB	0bbH
	DB	0d6H
	DB	0bbH
	DB	0deH
	DB	0bbH
	DB	0d6H
	DB	0bbH
	DB	0d6H
	DB	0bbH
	DB	0deH
	DB	0dcH
	DB	0d6H
	DB	0bbH
	DB	0deH
	DB	0bbH
	DB	0d6H
	DB	0bbH
	DB	0d6H
	DB	0dbH
	DB	0deH
	DB	0bbH
	DB	0deH
	DB	0bbH
	DB	0d6H
	DB	0bbH
	DB	0d6H
	DB	0bbH
	DB	0d6H
	DB	0bbH
	DB	0d6H
	DB	0bbH
	DB	0deH
	DB	0bbH
	DB	0deH
	DB	0dcH
	DB	0deH
	DB	0dbH
	DB	0d6H
	DB	0bbH
	DB	0deH
	DB	0bbH
	DB	0d6H
	DB	0bbH
	DB	0d6H
	DB	0bbH
	DB	0deH
	DB	0dcH
	DB	0deH
	DB	0bbH
	DB	0d6H
	DB	0bbH
	DB	0d6H
	DB	0bbH
	DB	0deH
	DB	0bbH
	DB	0deH
	DB	0dcH
	DB	0deH
	DB	0bbH
	DB	0d6H
	DB	0dcH
	DB	0deH
	DB	0dbH
	DB	0d6H
	DB	0bbH
	DB	0d6H
	DB	0dcH
	DB	0deH
	DB	0bbH
	DB	0d6H
	DB	0dbH
	DB	0deH
	DB	0bcH
	DB	0deH
	DB	0bbH
	DB	0d6H
	DB	0bbH
	DB	0d6H
	DB	0bbH
	DB	0d6H
	DB	0bbH
	DB	0deH
	DB	0bbH
	DB	0deH
	DB	0dcH
	DB	0deH
	DB	0dbH
	DB	0deH
	DB	09bH
	DB	0d6H
	DB	09bH
	DB	0d6H
	DB	0dbH
	DB	0deH
	DB	09bH
	DB	0d6H
	DB	0f8H
	DB	0bdH
	DB	0c4H
	DB	018H
	DB	00H
	DB	00H
	DB	00H
	DB	00H
	DB	00H
	DB	00H
	DB	00H
	DB	00H
	DB	00H
	DB	00H
	DB	00H
	DB	00H
	DB	021H
	DB	08H
	DB	042H
	DB	08H
	DB	021H
	DB	00H
	DB	062H
	DB	010H
	DB	0d8H
	DB	0bdH
	DB	0dbH
	DB	0deH
	DB	0bbH
	DB	0deH
	DB	0dcH
	DB	0deH
	DB	0bbH
	DB	0d6H
	DB	0bbH
	DB	0d6H
	DB	09bH
	DB	0d6H
	DB	0bbH
	DB	0d6H
	DB	0bbH
	DB	0d6H
	DB	076H
	DB	0b5H
	DB	0dH
	DB	063H
	DB	02dH
	DB	063H
	DB	0dH
	DB	063H
	DB	072H
	DB	08cH
	DB	0f4H
	DB	09cH
	DB	0e4H
	DB	018H
	DB	046H
	DB	029H
	DB	086H
	DB	031H
	DB	0a3H
	DB	010H
	DB	0a3H
	DB	010H
	DB	025H
	DB	029H
	DB	02dH
	DB	06bH
	DB	0abH
	DB	052H
	DB	0e8H
	DB	039H
	DB	08aH
	DB	052H
	DB	039H
	DB	0c6H
	DB	0dbH
	DB	0deH
	DB	0e8H
	DB	041H
	DB	0d4H
	DB	09cH
	DB	05dH
	DB	0efH
	DB	0bbH
	DB	0d6H
	DB	0bbH
	DB	0deH
	DB	0bbH
	DB	0deH
	DB	0bbH
	DB	0d6H
	DB	0bbH
	DB	0deH
	DB	0bbH
	DB	0d6H
	DB	0dcH
	DB	0deH
	DB	0bbH
	DB	0d6H
	DB	0fcH
	DB	0deH
	DB	03dH
	DB	0e7H
	DB	0fcH
	DB	0deH
	DB	0dcH
	DB	0deH
	DB	0dbH
	DB	0deH
	DB	0bbH
	DB	0d6H
	DB	0dbH
	DB	0deH
	DB	0dcH
	DB	0deH
	DB	0bbH
	DB	0d6H
	DB	0bbH
	DB	0d6H
	DB	0dbH
	DB	0deH
	DB	0bbH
	DB	0deH
	DB	0bbH
	DB	0d6H
	DB	0bbH
	DB	0d6H
	DB	0bbH
	DB	0d6H
	DB	0bbH
	DB	0deH
	DB	0bbH
	DB	0deH
	DB	0bbH
	DB	0d6H
	DB	0bbH
	DB	0d6H
	DB	0dbH
	DB	0d6H
	DB	0bbH
	DB	0d6H
	DB	0bbH
	DB	0d6H
	DB	0dcH
	DB	0deH
	DB	0bbH
	DB	0d6H
	DB	0bbH
	DB	0deH
	DB	0dcH
	DB	0deH
	DB	0bbH
	DB	0d6H
	DB	0bbH
	DB	0d6H
	DB	0dbH
	DB	0deH
	DB	0bbH
	DB	0d6H
	DB	0bbH
	DB	0d6H
	DB	0bcH
	DB	0deH
	DB	0bbH
	DB	0deH
	DB	0dbH
	DB	0deH
	DB	0dbH
	DB	0d6H
	DB	0bbH
	DB	0d6H
	DB	0bbH
	DB	0deH
	DB	0bbH
	DB	0d6H
	DB	0bbH
	DB	0d6H
	DB	0dbH
	DB	0deH
	DB	0bbH
	DB	0d6H
	DB	0bbH
	DB	0d6H
	DB	0bbH
	DB	0d6H
	DB	0bbH
	DB	0deH
	DB	0bbH
	DB	0d6H
	DB	0dbH
	DB	0deH
	DB	0bbH
	DB	0d6H
	DB	0bbH
	DB	0d6H
	DB	0bbH
	DB	0d6H
	DB	0bbH
	DB	0deH
	DB	0bbH
	DB	0d6H
	DB	0dbH
	DB	0deH
	DB	0bbH
	DB	0deH
	DB	0bbH
	DB	0d6H
	DB	0bbH
	DB	0d6H
	DB	0bbH
	DB	0deH
	DB	0bbH
	DB	0d6H
	DB	0bbH
	DB	0d6H
	DB	0dbH
	DB	0deH
	DB	0bbH
	DB	0d6H
	DB	0bbH
	DB	0d6H
	DB	0bbH
	DB	0d6H
	DB	0bbH
	DB	0d6H
	DB	0bbH
	DB	0d6H
	DB	0bbH
	DB	0d6H
	DB	0bbH
	DB	0d6H
	DB	0dbH
	DB	0deH
	DB	0bcH
	DB	0deH
	DB	0dbH
	DB	0d6H
	DB	0bbH
	DB	0deH
	DB	0dbH
	DB	0deH
	DB	0dbH
	DB	0deH
	DB	0bbH
	DB	0d6H
	DB	0bbH
	DB	0deH
	DB	0bbH
	DB	0d6H
	DB	0bbH
	DB	0d6H
	DB	0dcH
	DB	0deH
	DB	0dbH
	DB	0d6H
	DB	0bbH
	DB	0d6H
	DB	0bbH
	DB	0deH
	DB	0bbH
	DB	0d6H
	DB	0bbH
	DB	0d6H
	DB	0bbH
	DB	0d6H
	DB	0bbH
	DB	0deH
	DB	0bbH
	DB	0d6H
	DB	0dbH
	DB	0d6H
	DB	0bbH
	DB	0deH
	DB	0bcH
	DB	0deH
	DB	0dbH
	DB	0d6H
	DB	0dbH
	DB	0deH
	DB	0bbH
	DB	0d6H
	DB	0bcH
	DB	0d6H
	DB	0bbH
	DB	0d6H
	DB	0bbH
	DB	0deH
	DB	0dcH
	DB	0deH
	DB	0dbH
	DB	0deH
	DB	0bbH
	DB	0d6H
	DB	0bbH
	DB	0d6H
	DB	0dbH
	DB	0deH
	DB	0bbH
	DB	0d6H
	DB	0bbH
	DB	0d6H
	DB	0bbH
	DB	0d6H
	DB	0bcH
	DB	0deH
	DB	0bbH
	DB	0d6H
	DB	0dbH
	DB	0deH
	DB	0bcH
	DB	0deH
	DB	0bbH
	DB	0d6H
	DB	0bbH
	DB	0deH
	DB	0bbH
	DB	0deH
	DB	0bbH
	DB	0d6H
	DB	0dcH
	DB	0deH
	DB	0bbH
	DB	0deH
	DB	0bbH
	DB	0d6H
	DB	0dbH
	DB	0deH
	DB	0bbH
	DB	0d6H
	DB	0dbH
	DB	0deH
	DB	0bbH
	DB	0deH
	DB	0bbH
	DB	0d6H
	DB	0dcH
	DB	0deH
	DB	0bbH
	DB	0deH
	DB	0dbH
	DB	0deH
	DB	0dcH
	DB	0deH
	DB	0dbH
	DB	0deH
	DB	0bbH
	DB	0d6H
	DB	0bbH
	DB	0deH
	DB	0dcH
	DB	0deH
	DB	0dbH
	DB	0d6H
	DB	0bbH
	DB	0deH
	DB	0bbH
	DB	0deH
	DB	0dcH
	DB	0deH
	DB	0dcH
	DB	0deH
	DB	0dbH
	DB	0d6H
	DB	0bbH
	DB	0deH
	DB	0bbH
	DB	0d6H
	DB	0dbH
	DB	0deH
	DB	0bbH
	DB	0d6H
	DB	0dbH
	DB	0deH
	DB	0bbH
	DB	0deH
	DB	0bbH
	DB	0deH
	DB	0bbH
	DB	0d6H
	DB	0bbH
	DB	0d6H
	DB	0dcH
	DB	0deH
	DB	0bbH
	DB	0deH
	DB	0dbH
	DB	0deH
	DB	0bbH
	DB	0d6H
	DB	0bbH
	DB	0deH
	DB	0bbH
	DB	0deH
	DB	0bbH
	DB	0deH
	DB	0bbH
	DB	0d6H
	DB	0dbH
	DB	0deH
	DB	0bbH
	DB	0d6H
	DB	0bbH
	DB	0d6H
	DB	0dbH
	DB	0deH
	DB	0bbH
	DB	0d6H
	DB	09bH
	DB	0d6H
	DB	0bbH
	DB	0deH
	DB	0fcH
	DB	0deH
	DB	0d8H
	DB	0bdH
	DB	08H
	DB	042H
	DB	08bH
	DB	052H
	DB	046H
	DB	029H
	DB	0e4H
	DB	020H
	DB	045H
	DB	029H
	DB	045H
	DB	029H
	DB	082H
	DB	010H
	DB	00H
	DB	00H
	DB	063H
	DB	010H
	DB	00H
	DB	00H
	DB	082H
	DB	010H
	DB	0d8H
	DB	0bdH
	DB	0fcH
	DB	0e6H
	DB	09aH
	DB	0d6H
	DB	0bbH
	DB	0d6H
	DB	0bbH
	DB	0deH
	DB	0bbH
	DB	0d6H
	DB	0bbH
	DB	0deH
	DB	0bbH
	DB	0deH
	DB	01cH
	DB	0e7H
	DB	031H
	DB	084H
	DB	021H
	DB	00H
	DB	0a3H
	DB	010H
	DB	021H
	DB	00H
	DB	0ccH
	DB	05aH
	DB	08fH
	DB	073H
	DB	062H
	DB	08H
	DB	042H
	DB	08H
	DB	00H
	DB	00H
	DB	062H
	DB	010H
	DB	00H
	DB	00H
	DB	08H
	DB	042H
	DB	035H
	DB	0a5H
	DB	0ecH
	DB	05aH
	DB	0cH
	DB	063H
	DB	066H
	DB	029H
	DB	0d8H
	DB	0bdH
	DB	0f8H
	DB	0bdH
	DB	06aH
	DB	04aH
	DB	0f4H
	DB	09cH
	DB	0fcH
	DB	0deH
	DB	0bbH
	DB	0deH
	DB	0dbH
	DB	0d6H
	DB	0dbH
	DB	0d6H
	DB	0dcH
	DB	0deH
	DB	0dbH
	DB	0deH
	DB	0dbH
	DB	0deH
	DB	0dcH
	DB	0deH
	DB	0bbH
	DB	0d6H
	DB	018H
	DB	0beH
	DB	076H
	DB	0adH
	DB	0b7H
	DB	0b5H
	DB	05aH
	DB	0c6H
	DB	0dbH
	DB	0d6H
	DB	01dH
	DB	0dfH
	DB	0dcH
	DB	0deH
	DB	0dbH
	DB	0deH
	DB	0bcH
	DB	0deH
	DB	0dbH
	DB	0deH
	DB	0daH
	DB	0deH
	DB	09aH
	DB	0d6H
	DB	0bbH
	DB	0d6H
	DB	0dcH
	DB	0deH
	DB	0dcH
	DB	0deH
	DB	09bH
	DB	0d6H
	DB	09bH
	DB	0d6H
	DB	0bbH
	DB	0deH
	DB	0bbH
	DB	0d6H
	DB	0dcH
	DB	0deH
	DB	0dbH
	DB	0d6H
	DB	0bbH
	DB	0d6H
	DB	0bbH
	DB	0d6H
	DB	0bbH
	DB	0d6H
	DB	0bbH
	DB	0d6H
	DB	0bbH
	DB	0d6H
	DB	0bcH
	DB	0deH
	DB	0dbH
	DB	0deH
	DB	0bbH
	DB	0d6H
	DB	0bbH
	DB	0d6H
	DB	0dbH
	DB	0deH
	DB	0bbH
	DB	0d6H
	DB	0bbH
	DB	0d6H
	DB	0bbH
	DB	0deH
	DB	0bbH
	DB	0d6H
	DB	0bcH
	DB	0deH
	DB	0dcH
	DB	0deH
	DB	0dbH
	DB	0deH
	DB	0bbH
	DB	0d6H
	DB	0bbH
	DB	0d6H
	DB	0bbH
	DB	0deH
	DB	0bbH
	DB	0deH
	DB	0bbH
	DB	0d6H
	DB	0dcH
	DB	0deH
	DB	0bbH
	DB	0d6H
	DB	0bbH
	DB	0deH
	DB	0dcH
	DB	0deH
	DB	0dbH
	DB	0deH
	DB	0dbH
	DB	0deH
	DB	0dcH
	DB	0deH
	DB	0bbH
	DB	0deH
	DB	0dbH
	DB	0deH
	DB	0dcH
	DB	0deH
	DB	0bbH
	DB	0deH
	DB	0dbH
	DB	0deH
	DB	0dcH
	DB	0d6H
	DB	0bbH
	DB	0d6H
	DB	0bbH
	DB	0deH
	DB	0bbH
	DB	0d6H
	DB	0dcH
	DB	0deH
	DB	0bbH
	DB	0deH
	DB	0dbH
	DB	0deH
	DB	0bcH
	DB	0deH
	DB	0dbH
	DB	0deH
	DB	0bbH
	DB	0deH
	DB	0bbH
	DB	0d6H
	DB	0dbH
	DB	0deH
	DB	0bbH
	DB	0d6H
	DB	0bcH
	DB	0deH
	DB	0dbH
	DB	0deH
	DB	0bbH
	DB	0d6H
	DB	0bbH
	DB	0d6H
	DB	0dcH
	DB	0deH
	DB	0dbH
	DB	0deH
	DB	0dbH
	DB	0deH
	DB	0bcH
	DB	0deH
	DB	0dbH
	DB	0d6H
	DB	0bbH
	DB	0deH
	DB	0dbH
	DB	0deH
	DB	0dcH
	DB	0d6H
	DB	0dbH
	DB	0deH
	DB	0dbH
	DB	0deH
	DB	0dbH
	DB	0deH
	DB	0bcH
	DB	0deH
	DB	0dbH
	DB	0deH
	DB	0dbH
	DB	0d6H
	DB	0bbH
	DB	0deH
	DB	0dcH
	DB	0d6H
	DB	0bbH
	DB	0deH
	DB	0bbH
	DB	0deH
	DB	0dbH
	DB	0deH
	DB	0bbH
	DB	0d6H
	DB	0dbH
	DB	0deH
	DB	0bbH
	DB	0d6H
	DB	0bcH
	DB	0deH
	DB	0dbH
	DB	0deH
	DB	0bcH
	DB	0d6H
	DB	0bcH
	DB	0deH
	DB	0dbH
	DB	0deH
	DB	0dbH
	DB	0deH
	DB	0dcH
	DB	0deH
	DB	0dbH
	DB	0deH
	DB	0bbH
	DB	0d6H
	DB	0dbH
	DB	0d6H
	DB	0dbH
	DB	0deH
	DB	0bbH
	DB	0d6H
	DB	0bbH
	DB	0d6H
	DB	0bbH
	DB	0d6H
	DB	0dbH
	DB	0deH
	DB	0dcH
	DB	0deH
	DB	0dbH
	DB	0d6H
	DB	0bbH
	DB	0deH
	DB	0dcH
	DB	0deH
	DB	0bbH
	DB	0deH
	DB	0bbH
	DB	0d6H
	DB	0bbH
	DB	0d6H
	DB	0bbH
	DB	0deH
	DB	0dcH
	DB	0deH
	DB	0bbH
	DB	0d6H
	DB	0dbH
	DB	0d6H
	DB	0bbH
	DB	0d6H
	DB	0bbH
	DB	0deH
	DB	0dcH
	DB	0deH
	DB	0bbH
	DB	0d6H
	DB	0bbH
	DB	0d6H
	DB	0dbH
	DB	0deH
	DB	0bbH
	DB	0d6H
	DB	0bbH
	DB	0d6H
	DB	0bbH
	DB	0d6H
	DB	0dbH
	DB	0deH
	DB	0bbH
	DB	0deH
	DB	0dbH
	DB	0d6H
	DB	0dbH
	DB	0deH
	DB	0bbH
	DB	0deH
	DB	0bcH
	DB	0d6H
	DB	0bbH
	DB	0d6H
	DB	0dcH
	DB	0deH
	DB	0dbH
	DB	0d6H
	DB	0dbH
	DB	0deH
	DB	0bbH
	DB	0d6H
	DB	0bbH
	DB	0deH
	DB	0bbH
	DB	0deH
	DB	0bbH
	DB	0d6H
	DB	0bbH
	DB	0d6H
	DB	0bbH
	DB	0deH
	DB	0dbH
	DB	0d6H
	DB	0dbH
	DB	0deH
	DB	0bbH
	DB	0d6H
	DB	0bbH
	DB	0d6H
	DB	0bbH
	DB	0deH
	DB	0dcH
	DB	0deH
	DB	0bbH
	DB	0d6H
	DB	0dbH
	DB	0deH
	DB	0dcH
	DB	0deH
	DB	0bbH
	DB	0d6H
	DB	0dbH
	DB	0deH
	DB	0bbH
	DB	0d6H
	DB	0fcH
	DB	0e6H
	DB	07aH
	DB	0d6H
	DB	0bbH
	DB	0deH
	DB	018H
	DB	0c6H
	DB	038H
	DB	0c6H
	DB	076H
	DB	0b5H
	DB	08aH
	DB	052H
	DB	04H
	DB	021H
	DB	0afH
	DB	07bH
	DB	0e4H
	DB	018H
	DB	082H
	DB	010H
	DB	010H
	DB	084H
	DB	0dcH
	DB	0deH
	DB	0dcH
	DB	0deH
	DB	0bbH
	DB	0deH
	DB	0dcH
	DB	0deH
	DB	0bbH
	DB	0deH
	DB	09bH
	DB	0d6H
	DB	0dbH
	DB	0deH
	DB	0bbH
	DB	0d6H
	DB	0fcH
	DB	0deH
	DB	02dH
	DB	06bH
	DB	00H
	DB	00H
	DB	021H
	DB	08H
	DB	041H
	DB	08H
	DB	029H
	DB	04aH
	DB	04eH
	DB	06bH
	DB	01H
	DB	00H
	DB	082H
	DB	010H
	DB	021H
	DB	00H
	DB	022H
	DB	08H
	DB	01H
	DB	08H
	DB	066H
	DB	029H
	DB	0d0H
	DB	07bH
	DB	04aH
	DB	052H
	DB	083H
	DB	010H
	DB	00H
	DB	00H
	DB	06aH
	DB	052H
	DB	08eH
	DB	073H
	DB	0c8H
	DB	039H
	DB	076H
	DB	0b5H
	DB	0dcH
	DB	0deH
	DB	0bbH
	DB	0deH
	DB	0bbH
	DB	0ceH
	DB	09bH
	DB	0d6H
	DB	0dcH
	DB	0deH
	DB	0bbH
	DB	0d6H
	DB	0dcH
	DB	0deH
	DB	0bbH
	DB	0d6H
	DB	059H
	DB	0c6H
	DB	0abH
	DB	04aH
	DB	02cH
	DB	05bH
	DB	0f0H
	DB	06bH
	DB	0afH
	DB	06bH
	DB	052H
	DB	084H
	DB	0d4H
	DB	094H
	DB	0d7H
	DB	0b5H
	DB	0dcH
	DB	0d6H
	DB	01dH
	DB	0e7H
	DB	0fcH
	DB	0deH
	DB	01bH
	DB	0e7H
	DB	0baH
	DB	0deH
	DB	0dbH
	DB	0deH
	DB	0baH
	DB	0deH
	DB	0dbH
	DB	0deH
	DB	0dcH
	DB	0deH
	DB	09bH
	DB	0d6H
	DB	0bcH
	DB	0deH
	DB	0bcH
	DB	0deH
	DB	0dcH
	DB	0d6H
	DB	0fcH
	DB	0deH
	DB	0dcH
	DB	0deH
	DB	0dcH
	DB	0d6H
	DB	0dcH
	DB	0deH
	DB	0bcH
	DB	0d6H
	DB	0bbH
	DB	0d6H
	DB	0bbH
	DB	0d6H
	DB	0dcH
	DB	0deH
	DB	0bbH
	DB	0d6H
	DB	0bbH
	DB	0d6H
	DB	0bcH
	DB	0deH
	DB	0bbH
	DB	0d6H
	DB	0bbH
	DB	0d6H
	DB	0dcH
	DB	0deH
	DB	0bbH
	DB	0deH
	DB	0bbH
	DB	0d6H
	DB	0dcH
	DB	0deH
	DB	0dcH
	DB	0deH
	DB	0bbH
	DB	0deH
	DB	0bbH
	DB	0d6H
	DB	0bbH
	DB	0d6H
	DB	0bbH
	DB	0deH
	DB	0dcH
	DB	0deH
	DB	0dcH
	DB	0deH
	DB	0bbH
	DB	0d6H
	DB	0bbH
	DB	0d6H
	DB	0bbH
	DB	0deH
	DB	0dbH
	DB	0deH
	DB	0bbH
	DB	0d6H
	DB	0bbH
	DB	0d6H
	DB	0bbH
	DB	0d6H
	DB	0dcH
	DB	0deH
	DB	0bbH
	DB	0d6H
	DB	0dbH
	DB	0deH
	DB	0bcH
	DB	0deH
	DB	0dbH
	DB	0deH
	DB	0bbH
	DB	0deH
	DB	0dbH
	DB	0deH
	DB	0bbH
	DB	0d6H
	DB	0bbH
	DB	0deH
	DB	0dbH
	DB	0deH
	DB	0dcH
	DB	0d6H
	DB	0bbH
	DB	0deH
	DB	0dbH
	DB	0deH
	DB	0bbH
	DB	0d6H
	DB	0bcH
	DB	0deH
	DB	0dbH
	DB	0deH
	DB	0bbH
	DB	0d6H
	DB	0dbH
	DB	0deH
	DB	0bcH
	DB	0deH
	DB	0bbH
	DB	0d6H
	DB	0bbH
	DB	0d6H
	DB	0bcH
	DB	0deH
	DB	0dbH
	DB	0d6H
	DB	0bbH
	DB	0d6H
	DB	0bbH
	DB	0deH
	DB	0bbH
	DB	0d6H
	DB	0bbH
	DB	0d6H
	DB	0bcH
	DB	0deH
	DB	0bbH
	DB	0d6H
	DB	0bbH
	DB	0deH
	DB	0dbH
	DB	0deH
	DB	0bcH
	DB	0d6H
	DB	0dbH
	DB	0d6H
	DB	0bbH
	DB	0deH
	DB	0bcH
	DB	0deH
	DB	0dbH
	DB	0d6H
	DB	0dbH
	DB	0deH
	DB	0bcH
	DB	0d6H
	DB	0dbH
	DB	0deH
	DB	0dcH
	DB	0deH
	DB	0bbH
	DB	0deH
	DB	0bbH
	DB	0d6H
	DB	0dbH
	DB	0deH
	DB	0bbH
	DB	0d6H
	DB	0bbH
	DB	0d6H
	DB	0bbH
	DB	0deH
	DB	0bbH
	DB	0d6H
	DB	0dbH
	DB	0deH
	DB	0bbH
	DB	0d6H
	DB	0bcH
	DB	0deH
	DB	0dbH
	DB	0deH
	DB	0bbH
	DB	0deH
	DB	0dcH
	DB	0deH
	DB	0bbH
	DB	0deH
	DB	0bbH
	DB	0d6H
	DB	0dcH
	DB	0deH
	DB	0dcH
	DB	0deH
	DB	0bbH
	DB	0d6H
	DB	0dbH
	DB	0deH
	DB	0bbH
	DB	0d6H
	DB	0bbH
	DB	0d6H
	DB	0dbH
	DB	0deH
	DB	0dcH
	DB	0deH
	DB	0bbH
	DB	0d6H
	DB	0bbH
	DB	0d6H
	DB	0bbH
	DB	0deH
	DB	0bbH
	DB	0d6H
	DB	0dbH
	DB	0deH
	DB	0bbH
	DB	0d6H
	DB	0bbH
	DB	0d6H
	DB	0bbH
	DB	0deH
	DB	0dbH
	DB	0deH
	DB	0dcH
	DB	0deH
	DB	0bbH
	DB	0d6H
	DB	0bbH
	DB	0deH
	DB	0bbH
	DB	0deH
	DB	0dcH
	DB	0deH
	DB	0bbH
	DB	0d6H
	DB	0bbH
	DB	0d6H
	DB	0bbH
	DB	0d6H
	DB	0bbH
	DB	0deH
	DB	0bbH
	DB	0d6H
	DB	0bbH
	DB	0d6H
	DB	0dbH
	DB	0deH
	DB	0bbH
	DB	0deH
	DB	0bbH
	DB	0d6H
	DB	0bbH
	DB	0d6H
	DB	0dcH
	DB	0deH
	DB	0dcH
	DB	0deH
	DB	0dbH
	DB	0deH
	DB	0dbH
	DB	0d6H
	DB	0bbH
	DB	0d6H
	DB	0bcH
	DB	0deH
	DB	0bbH
	DB	0d6H
	DB	0bbH
	DB	0deH
	DB	0bbH
	DB	0deH
	DB	0bbH
	DB	0d6H
	DB	0bbH
	DB	0deH
	DB	0dcH
	DB	0deH
	DB	0dbH
	DB	0deH
	DB	0bbH
	DB	0deH
	DB	0bbH
	DB	0d6H
	DB	0bbH
	DB	0d6H
	DB	01cH
	DB	0e7H
	DB	0dcH
	DB	0deH
	DB	059H
	DB	0ceH
	DB	0dbH
	DB	0deH
	DB	0bbH
	DB	0deH
	DB	0fcH
	DB	0e6H
	DB	07eH
	DB	0efH
	DB	055H
	DB	0adH
	DB	0cH
	DB	063H
	DB	035H
	DB	0adH
	DB	08aH
	DB	052H
	DB	0c7H
	DB	039H
	DB	0ccH
	DB	05aH
	DB	0f8H
	DB	0c5H
	DB	0dcH
	DB	0deH
	DB	0bbH
	DB	0deH
	DB	09bH
	DB	0d6H
	DB	0dcH
	DB	0deH
	DB	09bH
	DB	0d6H
	DB	0bbH
	DB	0d6H
	DB	0bbH
	DB	0deH
	DB	0dbH
	DB	0deH
	DB	0bbH
	DB	0d6H
	DB	0fcH
	DB	0e6H
	DB	04dH
	DB	06bH
	DB	00H
	DB	00H
	DB	01H
	DB	00H
	DB	00H
	DB	00H
	DB	045H
	DB	029H
	DB	029H
	DB	042H
	DB	045H
	DB	029H
	DB	0e4H
	DB	020H
	DB	01H
	DB	00H
	DB	021H
	DB	08H
	DB	021H
	DB	08H
	DB	062H
	DB	08H
	DB	029H
	DB	04aH
	DB	08H
	DB	042H
	DB	046H
	DB	029H
	DB	046H
	DB	029H
	DB	082H
	DB	010H
	DB	0a3H
	DB	018H
	DB	066H
	DB	031H
	DB	072H
	DB	094H
	DB	01dH
	DB	0e7H
	DB	09bH
	DB	0d6H
	DB	0bbH
	DB	0d6H
	DB	0bbH
	DB	0d6H
	DB	0dcH
	DB	0deH
	DB	09bH
	DB	0d6H
	DB	09bH
	DB	0d6H
	DB	0dbH
	DB	0d6H
	DB	07aH
	DB	0c6H
	DB	029H
	DB	03aH
	DB	0d0H
	DB	06bH
	DB	072H
	DB	07cH
	DB	031H
	DB	074H
	DB	051H
	DB	07cH
	DB	0f0H
	DB	073H
	DB	031H
	DB	07cH
	DB	051H
	DB	084H
	DB	093H
	DB	094H
	DB	035H
	DB	0a5H
	DB	0d7H
	DB	0bdH
	DB	0baH
	DB	0d6H
	DB	07dH
	DB	0efH
	DB	01bH
	DB	0e7H
	DB	09aH
	DB	0d6H
	DB	0dbH
	DB	0deH
	DB	0fcH
	DB	0deH
	DB	0bbH
	DB	0d6H
	DB	0bbH
	DB	0d6H
	DB	09bH
	DB	0d6H
	DB	09bH
	DB	0ceH
	DB	0bbH
	DB	0d6H
	DB	0dbH
	DB	0d6H
	DB	0dcH
	DB	0d6H
	DB	0bbH
	DB	0d6H
	DB	0bbH
	DB	0d6H
	DB	0bcH
	DB	0d6H
	DB	0dbH
	DB	0deH
	DB	0bbH
	DB	0d6H
	DB	0bbH
	DB	0deH
	DB	0bcH
	DB	0deH
	DB	0bbH
	DB	0d6H
	DB	0bbH
	DB	0d6H
	DB	0dcH
	DB	0deH
	DB	0bbH
	DB	0d6H
	DB	0bbH
	DB	0d6H
	DB	0dbH
	DB	0deH
	DB	0dbH
	DB	0deH
	DB	0bbH
	DB	0d6H
	DB	0bbH
	DB	0d6H
	DB	0bbH
	DB	0d6H
	DB	0bbH
	DB	0d6H
	DB	0dbH
	DB	0deH
	DB	0dbH
	DB	0deH
	DB	0bbH
	DB	0deH
	DB	0bbH
	DB	0d6H
	DB	0dbH
	DB	0deH
	DB	0bcH
	DB	0d6H
	DB	0bbH
	DB	0deH
	DB	0dbH
	DB	0deH
	DB	0dcH
	DB	0d6H
	DB	0bbH
	DB	0deH
	DB	0bbH
	DB	0d6H
	DB	0dbH
	DB	0d6H
	DB	0bbH
	DB	0deH
	DB	0bbH
	DB	0d6H
	DB	0dcH
	DB	0deH
	DB	0bbH
	DB	0d6H
	DB	0bbH
	DB	0d6H
	DB	0dbH
	DB	0deH
	DB	0bbH
	DB	0d6H
	DB	0bbH
	DB	0d6H
	DB	0dbH
	DB	0deH
	DB	0bcH
	DB	0d6H
	DB	0dbH
	DB	0d6H
	DB	0dbH
	DB	0deH
	DB	0bbH
	DB	0d6H
	DB	0bbH
	DB	0deH
	DB	0dbH
	DB	0d6H
	DB	0dbH
	DB	0deH
	DB	0dcH
	DB	0deH
	DB	0bbH
	DB	0d6H
	DB	0bbH
	DB	0deH
	DB	0dbH
	DB	0deH
	DB	0bcH
	DB	0d6H
	DB	0dbH
	DB	0deH
	DB	0dbH
	DB	0deH
	DB	0dcH
	DB	0deH
	DB	0bbH
	DB	0d6H
	DB	0bbH
	DB	0deH
	DB	0dbH
	DB	0deH
	DB	0bbH
	DB	0d6H
	DB	0bcH
	DB	0deH
	DB	0dbH
	DB	0deH
	DB	0bbH
	DB	0d6H
	DB	0bbH
	DB	0d6H
	DB	0dbH
	DB	0deH
	DB	0bbH
	DB	0deH
	DB	0bbH
	DB	0d6H
	DB	0dbH
	DB	0d6H
	DB	0bbH
	DB	0deH
	DB	0bbH
	DB	0d6H
	DB	0bbH
	DB	0d6H
	DB	0dcH
	DB	0deH
	DB	0dbH
	DB	0deH
	DB	0bbH
	DB	0d6H
	DB	0bbH
	DB	0deH
	DB	0bbH
	DB	0d6H
	DB	0bbH
	DB	0d6H
	DB	0bbH
	DB	0d6H
	DB	0bbH
	DB	0d6H
	DB	0dbH
	DB	0deH
	DB	0bcH
	DB	0d6H
	DB	0bbH
	DB	0deH
	DB	0dbH
	DB	0d6H
	DB	0dbH
	DB	0deH
	DB	0bbH
	DB	0deH
	DB	0bbH
	DB	0d6H
	DB	0dbH
	DB	0deH
	DB	0bbH
	DB	0d6H
	DB	0bcH
	DB	0deH
	DB	0bbH
	DB	0d6H
	DB	0bbH
	DB	0d6H
	DB	0dbH
	DB	0deH
	DB	0dcH
	DB	0deH
	DB	0dbH
	DB	0deH
	DB	0dcH
	DB	0deH
	DB	0bbH
	DB	0deH
	DB	0dcH
	DB	0deH
	DB	0dcH
	DB	0deH
	DB	0bbH
	DB	0d6H
	DB	0bbH
	DB	0d6H
	DB	0bbH
	DB	0d6H
	DB	0dbH
	DB	0deH
	DB	0bbH
	DB	0d6H
	DB	0bbH
	DB	0d6H
	DB	0dcH
	DB	0deH
	DB	0dbH
	DB	0deH
	DB	0dbH
	DB	0deH
	DB	0bcH
	DB	0deH
	DB	0dcH
	DB	0deH
	DB	0dbH
	DB	0deH
	DB	0bcH
	DB	0deH
	DB	0dcH
	DB	0deH
	DB	0bbH
	DB	0d6H
	DB	0dbH
	DB	0deH
	DB	0bbH
	DB	0deH
	DB	0bbH
	DB	0deH
	DB	0bbH
	DB	0d6H
	DB	0bbH
	DB	0deH
	DB	0bcH
	DB	0deH
	DB	0dbH
	DB	0deH
	DB	0dbH
	DB	0deH
	DB	0dcH
	DB	0deH
	DB	0dbH
	DB	0deH
	DB	0bbH
	DB	0d6H
	DB	0dbH
	DB	0deH
	DB	0bbH
	DB	0d6H
	DB	0bbH
	DB	0d6H
	DB	0dcH
	DB	0deH
	DB	0bbH
	DB	0d6H
	DB	0dbH
	DB	0deH
	DB	0bbH
	DB	0d6H
	DB	0bbH
	DB	0deH
	DB	09bH
	DB	0d6H
	DB	059H
	DB	0ceH
	DB	0fcH
	DB	0deH
	DB	0dcH
	DB	0deH
	DB	0fcH
	DB	0e6H
	DB	019H
	DB	0c6H
	DB	0abH
	DB	052H
	DB	00H
	DB	00H
	DB	00H
	DB	00H
	DB	0c7H
	DB	039H
	DB	0ebH
	DB	05aH
	DB	096H
	DB	0b5H
	DB	01dH
	DB	0e7H
	DB	0dcH
	DB	0deH
	DB	05aH
	DB	0ceH
	DB	01cH
	DB	0e7H
	DB	0bbH
	DB	0deH
	DB	09bH
	DB	0d6H
	DB	09bH
	DB	0d6H
	DB	0fcH
	DB	0e6H
	DB	0bbH
	DB	0deH
	DB	0dbH
	DB	0d6H
	DB	0bbH
	DB	0deH
	DB	03dH
	DB	0e7H
	DB	0f0H
	DB	07bH
	DB	062H
	DB	08H
	DB	00H
	DB	00H
	DB	046H
	DB	029H
	DB	0f8H
	DB	0c5H
	DB	09bH
	DB	0d6H
	DB	07eH
	DB	0f7H
	DB	08fH
	DB	073H
	DB	00H
	DB	00H
	DB	062H
	DB	08H
	DB	00H
	DB	00H
	DB	04aH
	DB	04aH
	DB	0fcH
	DB	0e6H
	DB	0dcH
	DB	0deH
	DB	01cH
	DB	0e7H
	DB	0d8H
	DB	0bdH
	DB	042H
	DB	08H
	DB	01H
	DB	00H
	DB	00H
	DB	00H
	DB	08fH
	DB	073H
	DB	01cH
	DB	0e7H
	DB	0dcH
	DB	0deH
	DB	0bbH
	DB	0d6H
	DB	0dbH
	DB	0deH
	DB	0fcH
	DB	0deH
	DB	0bbH
	DB	0d6H
	DB	0dbH
	DB	0deH
	DB	01dH
	DB	0e7H
	DB	0b7H
	DB	0b5H
	DB	069H
	DB	042H
	DB	0cfH
	DB	06bH
	DB	0d3H
	DB	084H
	DB	072H
	DB	07cH
	DB	072H
	DB	084H
	DB	0b3H
	DB	08cH
	DB	051H
	DB	084H
	DB	0afH
	DB	073H
	DB	0ebH
	DB	052H
	DB	0c8H
	DB	039H
	DB	0a6H
	DB	039H
	DB	0c7H
	DB	039H
	DB	08H
	DB	042H
	DB	010H
	DB	084H
	DB	039H
	DB	0ceH
	DB	01dH
	DB	0e7H
	DB	0dcH
	DB	0deH
	DB	07aH
	DB	0ceH
	DB	0dbH
	DB	0deH
	DB	0dbH
	DB	0d6H
	DB	0dbH
	DB	0d6H
	DB	0dbH
	DB	0d6H
	DB	0bbH
	DB	0d6H
	DB	0bbH
	DB	0d6H
	DB	0bbH
	DB	0d6H
	DB	0bbH
	DB	0d6H
	DB	0dcH
	DB	0deH
	DB	0bbH
	DB	0deH
	DB	0bbH
	DB	0d6H
	DB	0bbH
	DB	0deH
	DB	0dcH
	DB	0deH
	DB	0bbH
	DB	0d6H
	DB	0bbH
	DB	0deH
	DB	0dcH
	DB	0deH
	DB	0bbH
	DB	0d6H
	DB	09bH
	DB	0d6H
	DB	0bbH
	DB	0d6H
	DB	0dbH
	DB	0deH
	DB	0bbH
	DB	0d6H
	DB	0bbH
	DB	0deH
	DB	0dcH
	DB	0deH
	DB	0bbH
	DB	0d6H
	DB	0bbH
	DB	0d6H
	DB	0bbH
	DB	0d6H
	DB	0dcH
	DB	0deH
	DB	0dbH
	DB	0deH
	DB	0bbH
	DB	0d6H
	DB	0bbH
	DB	0d6H
	DB	0bbH
	DB	0deH
	DB	0dcH
	DB	0deH
	DB	0bbH
	DB	0deH
	DB	0bbH
	DB	0d6H
	DB	0dbH
	DB	0deH
	DB	0bbH
	DB	0d6H
	DB	0bbH
	DB	0d6H
	DB	0bbH
	DB	0deH
	DB	0bbH
	DB	0d6H
	DB	0dcH
	DB	0deH
	DB	0bbH
	DB	0d6H
	DB	0bbH
	DB	0deH
	DB	0dcH
	DB	0deH
	DB	0bbH
	DB	0d6H
	DB	0bbH
	DB	0deH
	DB	0dbH
	DB	0deH
	DB	0bcH
	DB	0deH
	DB	0bbH
	DB	0d6H
	DB	0dcH
	DB	0deH
	DB	0bbH
	DB	0d6H
	DB	0bbH
	DB	0d6H
	DB	0bbH
	DB	0deH
	DB	0bbH
	DB	0d6H
	DB	0bbH
	DB	0d6H
	DB	0dbH
	DB	0deH
	DB	0bbH
	DB	0deH
	DB	0bbH
	DB	0d6H
	DB	0bbH
	DB	0d6H
	DB	0bbH
	DB	0deH
	DB	0bbH
	DB	0d6H
	DB	0dbH
	DB	0deH
	DB	0dbH
	DB	0deH
	DB	0bbH
	DB	0d6H
	DB	0dcH
	DB	0deH
	DB	0bbH
	DB	0d6H
	DB	0dbH
	DB	0deH
	DB	0dbH
	DB	0deH
	DB	0bcH
	DB	0deH
	DB	0bbH
	DB	0d6H
	DB	0dbH
	DB	0deH
	DB	0dcH
	DB	0deH
	DB	0bbH
	DB	0deH
	DB	0dbH
	DB	0deH
	DB	0dcH
	DB	0deH
	DB	0dbH
	DB	0deH
	DB	0bbH
	DB	0deH
	DB	0dcH
	DB	0d6H
	DB	0bbH
	DB	0deH
	DB	0bbH
	DB	0d6H
	DB	0dcH
	DB	0deH
	DB	0bbH
	DB	0deH
	DB	0bbH
	DB	0deH
	DB	0bbH
	DB	0d6H
	DB	0dbH
	DB	0deH
	DB	0dbH
	DB	0d6H
	DB	0bbH
	DB	0d6H
	DB	0bbH
	DB	0deH
	DB	0dcH
	DB	0deH
	DB	0bbH
	DB	0d6H
	DB	0dbH
	DB	0deH
	DB	0bbH
	DB	0deH
	DB	0dbH
	DB	0deH
	DB	0dbH
	DB	0deH
	DB	0bbH
	DB	0deH
	DB	0bbH
	DB	0d6H
	DB	0bbH
	DB	0deH
	DB	0bbH
	DB	0d6H
	DB	0bbH
	DB	0d6H
	DB	0dbH
	DB	0deH
	DB	0bbH
	DB	0d6H
	DB	0bbH
	DB	0d6H
	DB	0dbH
	DB	0deH
	DB	0bbH
	DB	0deH
	DB	0dcH
	DB	0deH
	DB	0bbH
	DB	0d6H
	DB	0bbH
	DB	0deH
	DB	0bbH
	DB	0deH
	DB	0bbH
	DB	0d6H
	DB	0dbH
	DB	0d6H
	DB	0bbH
	DB	0d6H
	DB	0bbH
	DB	0d6H
	DB	0bbH
	DB	0d6H
	DB	0bbH
	DB	0d6H
	DB	0bbH
	DB	0d6H
	DB	0dbH
	DB	0deH
	DB	0dbH
	DB	0deH
	DB	0bbH
	DB	0d6H
	DB	0bbH
	DB	0d6H
	DB	0bbH
	DB	0deH
	DB	0bbH
	DB	0d6H
	DB	0dbH
	DB	0d6H
	DB	0dbH
	DB	0deH
	DB	0bbH
	DB	0d6H
	DB	0bcH
	DB	0d6H
	DB	0bbH
	DB	0d6H
	DB	0bbH
	DB	0deH
	DB	0dbH
	DB	0d6H
	DB	0bbH
	DB	0deH
	DB	0dbH
	DB	0deH
	DB	0bbH
	DB	0d6H
	DB	0bbH
	DB	0d6H
	DB	0dbH
	DB	0deH
	DB	0bbH
	DB	0d6H
	DB	0dcH
	DB	0deH
	DB	0dbH
	DB	0deH
	DB	09bH
	DB	0d6H
	DB	0fcH
	DB	0deH
	DB	0dcH
	DB	0deH
	DB	09bH
	DB	0d6H
	DB	0bbH
	DB	0deH
	DB	015H
	DB	0a5H
	DB	087H
	DB	031H
	DB	01H
	DB	00H
	DB	062H
	DB	010H
	DB	086H
	DB	031H
	DB	092H
	DB	094H
	DB	09eH
	DB	0f7H
	DB	07eH
	DB	0f7H
	DB	05dH
	DB	0efH
	DB	05eH
	DB	0efH
	DB	03dH
	DB	0efH
	DB	0bbH
	DB	0deH
	DB	09aH
	DB	0d6H
	DB	0bbH
	DB	0deH
	DB	0bbH
	DB	0deH
	DB	0bbH
	DB	0deH
	DB	0dbH
	DB	0d6H
	DB	0dcH
	DB	0deH
	DB	0bbH
	DB	0d6H
	DB	0bbH
	DB	0deH
	DB	0ecH
	DB	05aH
	DB	00H
	DB	00H
	DB	00H
	DB	00H
	DB	086H
	DB	031H
	DB	0bbH
	DB	0d6H
	DB	0dcH
	DB	0deH
	DB	03dH
	DB	0efH
	DB	02dH
	DB	06bH
	DB	00H
	DB	00H
	DB	01H
	DB	00H
	DB	00H
	DB	00H
	DB	02dH
	DB	063H
	DB	09bH
	DB	0d6H
	DB	0bbH
	DB	0deH
	DB	0fcH
	DB	0e6H
	DB	076H
	DB	0b5H
	DB	021H
	DB	08H
	DB	042H
	DB	08H
	DB	00H
	DB	00H
	DB	010H
	DB	084H
	DB	01dH
	DB	0e7H
	DB	0bbH
	DB	0deH
	DB	0bbH
	DB	0d6H
	DB	0bbH
	DB	0deH
	DB	0fcH
	DB	0deH
	DB	09bH
	DB	0d6H
	DB	0bbH
	DB	0d6H
	DB	0bbH
	DB	0d6H
	DB	07aH
	DB	0c6H
	DB	049H
	DB	042H
	DB	06eH
	DB	063H
	DB	092H
	DB	07cH
	DB	051H
	DB	07cH
	DB	092H
	DB	084H
	DB	0aeH
	DB	06bH
	DB	028H
	DB	03aH
	DB	0a3H
	DB	010H
	DB	041H
	DB	00H
	DB	020H
	DB	00H
	DB	00H
	DB	00H
	DB	00H
	DB	00H
	DB	00H
	DB	00H
	DB	00H
	DB	00H
	DB	046H
	DB	029H
	DB	092H
	DB	094H
	DB	0fcH
	DB	0e6H
	DB	0bbH
	DB	0deH
	DB	09bH
	DB	0d6H
	DB	0dbH
	DB	0d6H
	DB	0dcH
	DB	0deH
	DB	0dcH
	DB	0deH
	DB	0dcH
	DB	0deH
	DB	0bbH
	DB	0d6H
	DB	0bbH
	DB	0d6H
	DB	0bbH
	DB	0d6H
	DB	0bbH
	DB	0d6H
	DB	0bbH
	DB	0d6H
	DB	0bcH
	DB	0deH
	DB	0dcH
	DB	0deH
	DB	0dcH
	DB	0deH
	DB	0bbH
	DB	0d6H
	DB	0bbH
	DB	0d6H
	DB	0bbH
	DB	0deH
	DB	0bbH
	DB	0d6H
	DB	09bH
	DB	0d6H
	DB	0bbH
	DB	0deH
	DB	0dbH
	DB	0deH
	DB	0bcH
	DB	0deH
	DB	0bbH
	DB	0d6H
	DB	0dbH
	DB	0deH
	DB	0bbH
	DB	0deH
	DB	0bbH
	DB	0deH
	DB	0bbH
	DB	0deH
	DB	0dcH
	DB	0d6H
	DB	0bbH
	DB	0d6H
	DB	0dbH
	DB	0deH
	DB	0dcH
	DB	0deH
	DB	0dbH
	DB	0d6H
	DB	0bbH
	DB	0d6H
	DB	0bbH
	DB	0deH
	DB	0dbH
	DB	0deH
	DB	0dcH
	DB	0deH
	DB	0bbH
	DB	0deH
	DB	0bbH
	DB	0d6H
	DB	0dcH
	DB	0deH
	DB	0dbH
	DB	0deH
	DB	0bbH
	DB	0deH
	DB	0bbH
	DB	0d6H
	DB	0dbH
	DB	0deH
	DB	0bbH
	DB	0d6H
	DB	0bbH
	DB	0d6H
	DB	0dbH
	DB	0deH
	DB	0bbH
	DB	0d6H
	DB	0bbH
	DB	0deH
	DB	0dbH
	DB	0deH
	DB	0bbH
	DB	0deH
	DB	0dcH
	DB	0deH
	DB	0dbH
	DB	0deH
	DB	0bbH
	DB	0d6H
	DB	0bcH
	DB	0deH
	DB	0dbH
	DB	0deH
	DB	0dbH
	DB	0deH
	DB	0bcH
	DB	0deH
	DB	0dbH
	DB	0deH
	DB	0dbH
	DB	0deH
	DB	0bbH
	DB	0d6H
	DB	0bcH
	DB	0deH
	DB	0dbH
	DB	0deH
	DB	0bcH
	DB	0d6H
	DB	0bbH
	DB	0deH
	DB	0dbH
	DB	0deH
	DB	0bbH
	DB	0d6H
	DB	0bbH
	DB	0d6H
	DB	0dcH
	DB	0deH
	DB	0bbH
	DB	0d6H
	DB	0bbH
	DB	0d6H
	DB	0dbH
	DB	0deH
	DB	0bbH
	DB	0d6H
	DB	0bbH
	DB	0d6H
	DB	0bcH
	DB	0deH
	DB	0dbH
	DB	0d6H
	DB	0bbH
	DB	0deH
	DB	0bbH
	DB	0d6H
	DB	0dbH
	DB	0deH
	DB	0bbH
	DB	0d6H
	DB	0bbH
	DB	0deH
	DB	0dbH
	DB	0deH
	DB	0dcH
	DB	0deH
	DB	0dbH
	DB	0d6H
	DB	0dcH
	DB	0deH
	DB	0bbH
	DB	0deH
	DB	0bbH
	DB	0d6H
	DB	0bbH
	DB	0deH
	DB	0dcH
	DB	0deH
	DB	0bbH
	DB	0d6H
	DB	0bbH
	DB	0d6H
	DB	0dcH
	DB	0deH
	DB	0bbH
	DB	0d6H
	DB	0bbH
	DB	0d6H
	DB	0dcH
	DB	0deH
	DB	0dbH
	DB	0deH
	DB	0bbH
	DB	0d6H
	DB	0dcH
	DB	0deH
	DB	0bbH
	DB	0deH
	DB	0dbH
	DB	0d6H
	DB	0bbH
	DB	0d6H
	DB	0bcH
	DB	0deH
	DB	0bbH
	DB	0d6H
	DB	0bbH
	DB	0d6H
	DB	0bbH
	DB	0deH
	DB	0bbH
	DB	0deH
	DB	0dcH
	DB	0deH
	DB	0bbH
	DB	0d6H
	DB	0bbH
	DB	0deH
	DB	0dcH
	DB	0deH
	DB	0bbH
	DB	0deH
	DB	0bbH
	DB	0deH
	DB	0dcH
	DB	0deH
	DB	0dbH
	DB	0deH
	DB	0bbH
	DB	0deH
	DB	0dbH
	DB	0d6H
	DB	0bbH
	DB	0deH
	DB	0bcH
	DB	0deH
	DB	0dbH
	DB	0d6H
	DB	0bbH
	DB	0d6H
	DB	0dcH
	DB	0deH
	DB	0dcH
	DB	0deH
	DB	0bbH
	DB	0d6H
	DB	0dbH
	DB	0deH
	DB	0bbH
	DB	0d6H
	DB	0bbH
	DB	0d6H
	DB	0dbH
	DB	0deH
	DB	0bbH
	DB	0deH
	DB	0bcH
	DB	0d6H
	DB	0dbH
	DB	0deH
	DB	0bbH
	DB	0deH
	DB	0bbH
	DB	0d6H
	DB	0bbH
	DB	0deH
	DB	0dcH
	DB	0deH
	DB	0bbH
	DB	0deH
	DB	0bbH
	DB	0d6H
	DB	0bbH
	DB	0d6H
	DB	0dbH
	DB	0deH
	DB	0bbH
	DB	0d6H
	DB	07aH
	DB	0ceH
	DB	0dcH
	DB	0deH
	DB	0bbH
	DB	0d6H
	DB	045H
	DB	029H
	DB	021H
	DB	00H
	DB	042H
	DB	08H
	DB	00H
	DB	00H
	DB	0cbH
	DB	05aH
	DB	0b2H
	DB	094H
	DB	0f0H
	DB	083H
	DB	0efH
	DB	07bH
	DB	010H
	DB	084H
	DB	0f0H
	DB	083H
	DB	052H
	DB	08cH
	DB	09aH
	DB	0d6H
	DB	01dH
	DB	0e7H
	DB	07aH
	DB	0ceH
	DB	09aH
	DB	0d6H
	DB	09bH
	DB	0d6H
	DB	09bH
	DB	0d6H
	DB	0fcH
	DB	0deH
	DB	0fcH
	DB	0deH
	DB	0fcH
	DB	0deH
	DB	0ecH
	DB	062H
	DB	00H
	DB	00H
	DB	00H
	DB	00H
	DB	046H
	DB	029H
	DB	07aH
	DB	0ceH
	DB	01dH
	DB	0e7H
	DB	05eH
	DB	0efH
	DB	06eH
	DB	073H
	DB	021H
	DB	00H
	DB	083H
	DB	010H
	DB	046H
	DB	029H
	DB	04eH
	DB	06bH
	DB	0dbH
	DB	0deH
	DB	0fcH
	DB	0e6H
	DB	0dcH
	DB	0deH
	DB	039H
	DB	0ceH
	DB	082H
	DB	010H
	DB	082H
	DB	010H
	DB	083H
	DB	010H
	DB	0b3H
	DB	09cH
	DB	0dcH
	DB	0deH
	DB	09bH
	DB	0d6H
	DB	09bH
	DB	0d6H
	DB	09bH
	DB	0d6H
	DB	0bbH
	DB	0d6H
	DB	09bH
	DB	0d6H
	DB	09bH
	DB	0d6H
	DB	03dH
	DB	0dfH
	DB	075H
	DB	0a5H
	DB	08H
	DB	032H
	DB	010H
	DB	074H
	DB	092H
	DB	07cH
	DB	051H
	DB	07cH
	DB	049H
	DB	03aH
	DB	0c3H
	DB	010H
	DB	041H
	DB	00H
	DB	021H
	DB	00H
	DB	041H
	DB	00H
	DB	041H
	DB	00H
	DB	021H
	DB	00H
	DB	021H
	DB	08H
	DB	041H
	DB	08H
	DB	021H
	DB	00H
	DB	00H
	DB	00H
	DB	041H
	DB	08H
	DB	08fH
	DB	073H
	DB	07aH
	DB	0d6H
	DB	03dH
	DB	0e7H
	DB	01cH
	DB	0e7H
	DB	0dcH
	DB	0deH
	DB	0dbH
	DB	0deH
	DB	0dcH
	DB	0deH
	DB	09aH
	DB	0d6H
	DB	0bbH
	DB	0d6H
	DB	0dbH
	DB	0deH
	DB	0bbH
	DB	0d6H
	DB	0bbH
	DB	0d6H
	DB	0bbH
	DB	0d6H
	DB	0dbH
	DB	0deH
	DB	0bbH
	DB	0d6H
	DB	0bbH
	DB	0d6H
	DB	0bbH
	DB	0d6H
	DB	0dcH
	DB	0deH
	DB	0dbH
	DB	0deH
	DB	0dbH
	DB	0deH
	DB	0bbH
	DB	0d6H
	DB	0bbH
	DB	0d6H
	DB	0bbH
	DB	0d6H
	DB	0dcH
	DB	0deH
	DB	0dbH
	DB	0deH
	DB	0dcH
	DB	0deH
	DB	0bbH
	DB	0d6H
	DB	0bbH
	DB	0d6H
	DB	0bbH
	DB	0deH
	DB	0bbH
	DB	0d6H
	DB	0bbH
	DB	0deH
	DB	0bbH
	DB	0deH
	DB	0dbH
	DB	0deH
	DB	0bbH
	DB	0d6H
	DB	0bbH
	DB	0d6H
	DB	0bbH
	DB	0d6H
	DB	0bbH
	DB	0d6H
	DB	0bbH
	DB	0d6H
	DB	0bbH
	DB	0d6H
	DB	0dbH
	DB	0deH
	DB	0bbH
	DB	0d6H
	DB	0bbH
	DB	0d6H
	DB	0dcH
	DB	0deH
	DB	0bbH
	DB	0d6H
	DB	0bbH
	DB	0deH
	DB	0dcH
	DB	0deH
	DB	0bbH
	DB	0d6H
	DB	0dcH
	DB	0deH
	DB	0bbH
	DB	0d6H
	DB	0bbH
	DB	0d6H
	DB	0dbH
	DB	0deH
	DB	0bbH
	DB	0d6H
	DB	0bbH
	DB	0d6H
	DB	0bbH
	DB	0deH
	DB	0bbH
	DB	0d6H
	DB	0bbH
	DB	0d6H
	DB	0dbH
	DB	0deH
	DB	0bcH
	DB	0d6H
	DB	0bbH
	DB	0d6H
	DB	0bbH
	DB	0deH
	DB	0bbH
	DB	0d6H
	DB	0bbH
	DB	0d6H
	DB	0bbH
	DB	0d6H
	DB	0dbH
	DB	0deH
	DB	0bbH
	DB	0d6H
	DB	0bbH
	DB	0d6H
	DB	0dcH
	DB	0deH
	DB	0bbH
	DB	0deH
	DB	0dbH
	DB	0deH
	DB	0dbH
	DB	0deH
	DB	0bcH
	DB	0deH
	DB	0bbH
	DB	0deH
	DB	0dbH
	DB	0d6H
	DB	0bbH
	DB	0d6H
	DB	0dbH
	DB	0deH
	DB	0bbH
	DB	0d6H
	DB	0bcH
	DB	0d6H
	DB	0bbH
	DB	0d6H
	DB	0dbH
	DB	0deH
	DB	0dcH
	DB	0deH
	DB	0bbH
	DB	0d6H
	DB	0bbH
	DB	0d6H
	DB	0dbH
	DB	0deH
	DB	0bbH
	DB	0d6H
	DB	0bbH
	DB	0d6H
	DB	0dcH
	DB	0deH
	DB	0bbH
	DB	0deH
	DB	0bbH
	DB	0d6H
	DB	0bbH
	DB	0d6H
	DB	0dbH
	DB	0deH
	DB	0bbH
	DB	0d6H
	DB	0bbH
	DB	0deH
	DB	0bbH
	DB	0d6H
	DB	0bcH
	DB	0deH
	DB	0bbH
	DB	0d6H
	DB	0dbH
	DB	0deH
	DB	0bbH
	DB	0d6H
	DB	0bbH
	DB	0d6H
	DB	0dcH
	DB	0deH
	DB	0bbH
	DB	0deH
	DB	0bbH
	DB	0d6H
	DB	0bbH
	DB	0deH
	DB	0dbH
	DB	0deH
	DB	0bbH
	DB	0d6H
	DB	0bbH
	DB	0d6H
	DB	0bbH
	DB	0d6H
	DB	0dbH
	DB	0deH
	DB	0bbH
	DB	0d6H
	DB	0bbH
	DB	0d6H
	DB	0bbH
	DB	0d6H
	DB	0dcH
	DB	0deH
	DB	0dbH
	DB	0deH
	DB	0bbH
	DB	0d6H
	DB	0bbH
	DB	0d6H
	DB	0bbH
	DB	0d6H
	DB	0bbH
	DB	0deH
	DB	0dcH
	DB	0deH
	DB	0bbH
	DB	0d6H
	DB	0bbH
	DB	0d6H
	DB	0bbH
	DB	0deH
	DB	0bbH
	DB	0d6H
	DB	0bbH
	DB	0d6H
	DB	0bbH
	DB	0deH
	DB	0bbH
	DB	0deH
	DB	0dcH
	DB	0deH
	DB	0dbH
	DB	0deH
	DB	0bbH
	DB	0d6H
	DB	0bbH
	DB	0deH
	DB	0bbH
	DB	0d6H
	DB	0bbH
	DB	0d6H
	DB	0dbH
	DB	0deH
	DB	0bbH
	DB	0d6H
	DB	0bbH
	DB	0d6H
	DB	0dcH
	DB	0deH
	DB	0bbH
	DB	0d6H
	DB	0bbH
	DB	0deH
	DB	0bbH
	DB	0d6H
	DB	0bbH
	DB	0deH
	DB	0bbH
	DB	0deH
	DB	0bbH
	DB	0d6H
	DB	0dbH
	DB	0deH
	DB	07aH
	DB	0d6H
	DB	066H
	DB	031H
	DB	021H
	DB	08H
	DB	00H
	DB	00H
	DB	00H
	DB	00H
	DB	00H
	DB	00H
	DB	0c7H
	DB	039H
	DB	065H
	DB	031H
	DB	00H
	DB	00H
	DB	00H
	DB	00H
	DB	01H
	DB	00H
	DB	0e8H
	DB	039H
	DB	0f8H
	DB	0c5H
	DB	0dcH
	DB	0deH
	DB	0dcH
	DB	0deH
	DB	0fcH
	DB	0e6H
	DB	09bH
	DB	0d6H
	DB	0dbH
	DB	0deH
	DB	07aH
	DB	0d6H
	DB	0bbH
	DB	0d6H
	DB	01cH
	DB	0e7H
	DB	0ecH
	DB	05aH
	DB	00H
	DB	00H
	DB	00H
	DB	00H
	DB	0e4H
	DB	018H
	DB	0dbH
	DB	0deH
	DB	09aH
	DB	0d6H
	DB	0bfH
	DB	0ffH
	DB	04aH
	DB	04aH
	DB	0c8H
	DB	039H
	DB	051H
	DB	08cH
	DB	011H
	DB	08cH
	DB	0cbH
	DB	05aH
	DB	019H
	DB	0c6H
	DB	0f8H
	DB	0c5H
	DB	0fcH
	DB	0e6H
	DB	039H
	DB	0ceH
	DB	0c4H
	DB	018H
	DB	042H
	DB	08H
	DB	021H
	DB	00H
	DB	031H
	DB	08cH
	DB	01dH
	DB	0e7H
	DB	0fcH
	DB	0e6H
	DB	0bbH
	DB	0d6H
	DB	09bH
	DB	0d6H
	DB	0bbH
	DB	0deH
	DB	0bbH
	DB	0d6H
	DB	0bbH
	DB	0d6H
	DB	01dH
	DB	0dfH
	DB	0b2H
	DB	08cH
	DB	029H
	DB	03aH
	DB	030H
	DB	074H
	DB	0d3H
	DB	08cH
	DB	029H
	DB	032H
	DB	041H
	DB	00H
	DB	00H
	DB	00H
	DB	021H
	DB	00H
	DB	041H
	DB	00H
	DB	00H
	DB	00H
	DB	00H
	DB	00H
	DB	01H
	DB	00H
	DB	041H
	DB	08H
	DB	021H
	DB	00H
	DB	021H
	DB	08H
	DB	021H
	DB	00H
	DB	00H
	DB	00H
	DB	01H
	DB	00H
	DB	0e8H
	DB	041H
	DB	0afH
	DB	073H
	DB	0f0H
	DB	07bH
	DB	0b3H
	DB	094H
	DB	0b7H
	DB	0b5H
	DB	0dbH
	DB	0deH
	DB	05eH
	DB	0efH
	DB	0dcH
	DB	0deH
	DB	0dbH
	DB	0deH
	DB	0bbH
	DB	0d6H
	DB	09bH
	DB	0d6H
	DB	0dcH
	DB	0deH
	DB	0dbH
	DB	0deH
	DB	0bbH
	DB	0d6H
	DB	0bbH
	DB	0d6H
	DB	0bbH
	DB	0deH
	DB	0dcH
	DB	0deH
	DB	0bbH
	DB	0d6H
	DB	0bbH
	DB	0d6H
	DB	0bbH
	DB	0deH
	DB	0bbH
	DB	0deH
	DB	0dbH
	DB	0deH
	DB	0bbH
	DB	0d6H
	DB	0bbH
	DB	0deH
	DB	0bbH
	DB	0d6H
	DB	0bbH
	DB	0d6H
	DB	0bbH
	DB	0d6H
	DB	0dbH
	DB	0deH
	DB	0bbH
	DB	0deH
	DB	0bcH
	DB	0d6H
	DB	0dbH
	DB	0deH
	DB	0bbH
	DB	0d6H
	DB	0dcH
	DB	0deH
	DB	0bbH
	DB	0deH
	DB	0bbH
	DB	0d6H
	DB	0bbH
	DB	0deH
	DB	0bbH
	DB	0deH
	DB	0dcH
	DB	0deH
	DB	0bbH
	DB	0deH
	DB	0bbH
	DB	0d6H
	DB	0dbH
	DB	0deH
	DB	0bbH
	DB	0deH
	DB	0bbH
	DB	0d6H
	DB	0bbH
	DB	0deH
	DB	0dbH
	DB	0deH
	DB	0bbH
	DB	0d6H
	DB	0bbH
	DB	0deH
	DB	0bbH
	DB	0d6H
	DB	0bbH
	DB	0d6H
	DB	0dcH
	DB	0deH
	DB	0bbH
	DB	0deH
	DB	0dbH
	DB	0deH
	DB	0dcH
	DB	0deH
	DB	0bbH
	DB	0d6H
	DB	0bbH
	DB	0d6H
	DB	0bbH
	DB	0deH
	DB	0bbH
	DB	0d6H
	DB	0dbH
	DB	0deH
	DB	0dcH
	DB	0deH
	DB	0dbH
	DB	0deH
	DB	0dbH
	DB	0deH
	DB	0dcH
	DB	0deH
	DB	0bbH
	DB	0deH
	DB	0dbH
	DB	0deH
	DB	0dcH
	DB	0d6H
	DB	0bbH
	DB	0deH
	DB	0bbH
	DB	0d6H
	DB	0bbH
	DB	0d6H
	DB	0dbH
	DB	0deH
	DB	0bbH
	DB	0d6H
	DB	0bbH
	DB	0d6H
	DB	0dcH
	DB	0deH
	DB	0bcH
	DB	0deH
	DB	0bbH
	DB	0deH
	DB	0dbH
	DB	0deH
	DB	0dbH
	DB	0deH
	DB	0bbH
	DB	0d6H
	DB	0bbH
	DB	0deH
	DB	0dbH
	DB	0deH
	DB	0bcH
	DB	0d6H
	DB	0dbH
	DB	0deH
	DB	0bbH
	DB	0d6H
	DB	0bbH
	DB	0deH
	DB	0dbH
	DB	0deH
	DB	0bbH
	DB	0d6H
	DB	0bbH
	DB	0deH
	DB	0dcH
	DB	0deH
	DB	0dbH
	DB	0deH
	DB	0bbH
	DB	0d6H
	DB	0bbH
	DB	0deH
	DB	0bbH
	DB	0d6H
	DB	0bbH
	DB	0deH
	DB	0bbH
	DB	0d6H
	DB	0bbH
	DB	0d6H
	DB	0bbH
	DB	0deH
	DB	0dcH
	DB	0deH
	DB	0bbH
	DB	0deH
	DB	0dbH
	DB	0deH
	DB	0bbH
	DB	0d6H
	DB	0bbH
	DB	0d6H
	DB	0dbH
	DB	0deH
	DB	0dcH
	DB	0deH
	DB	0bbH
	DB	0deH
	DB	0bbH
	DB	0d6H
	DB	0dcH
	DB	0deH
	DB	0dbH
	DB	0deH
	DB	0bbH
	DB	0d6H
	DB	0dbH
	DB	0deH
	DB	0bbH
	DB	0d6H
	DB	0bbH
	DB	0d6H
	DB	0dbH
	DB	0deH
	DB	0bbH
	DB	0deH
	DB	0bcH
	DB	0deH
	DB	0dbH
	DB	0deH
	DB	0dbH
	DB	0d6H
	DB	0bbH
	DB	0deH
	DB	0bbH
	DB	0d6H
	DB	0bbH
	DB	0d6H
	DB	0dbH
	DB	0deH
	DB	0bbH
	DB	0deH
	DB	0bbH
	DB	0deH
	DB	0dbH
	DB	0d6H
	DB	0bcH
	DB	0deH
	DB	0bbH
	DB	0deH
	DB	0dbH
	DB	0d6H
	DB	0bbH
	DB	0deH
	DB	0bbH
	DB	0d6H
	DB	0bbH
	DB	0deH
	DB	0dbH
	DB	0deH
	DB	0bbH
	DB	0deH
	DB	0bbH
	DB	0d6H
	DB	0bbH
	DB	0deH
	DB	0dbH
	DB	0deH
	DB	0dbH
	DB	0deH
	DB	0bbH
	DB	0d6H
	DB	0dcH
	DB	0deH
	DB	0bbH
	DB	0d6H
	DB	0bbH
	DB	0d6H
	DB	0dbH
	DB	0deH
	DB	0bbH
	DB	0d6H
	DB	09bH
	DB	0d6H
	DB	06aH
	DB	052H
	DB	0e8H
	DB	039H
	DB	09H
	DB	042H
	DB	0e8H
	DB	041H
	DB	049H
	DB	04aH
	DB	08H
	DB	042H
	DB	086H
	DB	031H
	DB	0c7H
	DB	039H
	DB	025H
	DB	029H
	DB	08fH
	DB	073H
	DB	019H
	DB	0c6H
	DB	039H
	DB	0ceH
	DB	0bbH
	DB	0d6H
	DB	0bbH
	DB	0deH
	DB	0dcH
	DB	0deH
	DB	0dbH
	DB	0deH
	DB	09bH
	DB	0d6H
	DB	0dbH
	DB	0deH
	DB	0dcH
	DB	0deH
	DB	01dH
	DB	0e7H
	DB	0dH
	DB	063H
	DB	00H
	DB	00H
	DB	01H
	DB	00H
	DB	066H
	DB	031H
	DB	0bbH
	DB	0d6H
	DB	0fcH
	DB	0e6H
	DB	07eH
	DB	0f7H
	DB	09H
	DB	042H
	DB	0a7H
	DB	039H
	DB	0ccH
	DB	05aH
	DB	066H
	DB	031H
	DB	0e8H
	DB	041H
	DB	07aH
	DB	0d6H
	DB	0d8H
	DB	0bdH
	DB	0fcH
	DB	0e6H
	DB	07aH
	DB	0ceH
	DB	082H
	DB	010H
	DB	01H
	DB	00H
	DB	00H
	DB	00H
	DB	0afH
	DB	073H
	DB	0fcH
	DB	0deH
	DB	0bbH
	DB	0deH
	DB	0bbH
	DB	0deH
	DB	09bH
	DB	0d6H
	DB	0bbH
	DB	0d6H
	DB	0bbH
	DB	0deH
	DB	0dcH
	DB	0deH
	DB	01cH
	DB	0dfH
	DB	051H
	DB	084H
	DB	0e7H
	DB	029H
	DB	092H
	DB	084H
	DB	010H
	DB	074H
	DB	0a3H
	DB	010H
	DB	021H
	DB	00H
	DB	041H
	DB	00H
	DB	021H
	DB	00H
	DB	01H
	DB	00H
	DB	00H
	DB	00H
	DB	00H
	DB	00H
	DB	00H
	DB	00H
	DB	00H
	DB	00H
	DB	021H
	DB	00H
	DB	00H
	DB	00H
	DB	00H
	DB	00H
	DB	00H
	DB	00H
	DB	00H
	DB	00H
	DB	00H
	DB	00H
	DB	025H
	DB	021H
	DB	08H
	DB	042H
	DB	029H
	DB	042H
	DB	04aH
	DB	04aH
	DB	04eH
	DB	06bH
	DB	056H
	DB	0adH
	DB	07aH
	DB	0ceH
	DB	01cH
	DB	0e7H
	DB	01dH
	DB	0e7H
	DB	0fcH
	DB	0deH
	DB	0bbH
	DB	0deH
	DB	09bH
	DB	0d6H
	DB	0bbH
	DB	0d6H
	DB	07bH
	DB	0d6H
	DB	0bbH
	DB	0deH
	DB	0fcH
	DB	0deH
	DB	07aH
	DB	0d6H
	DB	0bbH
	DB	0d6H
	DB	0dcH
	DB	0deH
	DB	0fcH
	DB	0deH
	DB	0bbH
	DB	0d6H
	DB	0bbH
	DB	0d6H
	DB	0dcH
	DB	0deH
	DB	0bbH
	DB	0deH
	DB	0bbH
	DB	0d6H
	DB	0bbH
	DB	0d6H
	DB	0bbH
	DB	0deH
	DB	0dbH
	DB	0deH
	DB	0dcH
	DB	0d6H
	DB	0bbH
	DB	0d6H
	DB	0bbH
	DB	0deH
	DB	0bbH
	DB	0d6H
	DB	0bbH
	DB	0deH
	DB	0bbH
	DB	0d6H
	DB	0dcH
	DB	0deH
	DB	0dbH
	DB	0deH
	DB	0bbH
	DB	0d6H
	DB	0dcH
	DB	0deH
	DB	0bbH
	DB	0d6H
	DB	0bbH
	DB	0d6H
	DB	0dcH
	DB	0deH
	DB	0dbH
	DB	0deH
	DB	0bbH
	DB	0d6H
	DB	0bbH
	DB	0d6H
	DB	0dcH
	DB	0deH
	DB	0dbH
	DB	0deH
	DB	0bbH
	DB	0deH
	DB	0bbH
	DB	0d6H
	DB	0dcH
	DB	0deH
	DB	0bbH
	DB	0d6H
	DB	0bbH
	DB	0d6H
	DB	0dbH
	DB	0deH
	DB	0bbH
	DB	0deH
	DB	0dcH
	DB	0deH
	DB	0bbH
	DB	0d6H
	DB	0dbH
	DB	0deH
	DB	0dcH
	DB	0deH
	DB	0bbH
	DB	0d6H
	DB	0bbH
	DB	0d6H
	DB	0bbH
	DB	0deH
	DB	0bbH
	DB	0d6H
	DB	0dcH
	DB	0d6H
	DB	0bbH
	DB	0deH
	DB	0bbH
	DB	0deH
	DB	0dbH
	DB	0deH
	DB	0dcH
	DB	0d6H
	DB	0bbH
	DB	0deH
	DB	0bbH
	DB	0deH
	DB	0dcH
	DB	0d6H
	DB	0dbH
	DB	0deH
	DB	0bbH
	DB	0deH
	DB	0bbH
	DB	0d6H
	DB	0dbH
	DB	0d6H
	DB	0bbH
	DB	0deH
	DB	0bbH
	DB	0d6H
	DB	0bcH
	DB	0deH
	DB	0dbH
	DB	0deH
	DB	0bbH
	DB	0d6H
	DB	0bbH
	DB	0deH
	DB	0dbH
	DB	0deH
	DB	0bbH
	DB	0d6H
	DB	0bbH
	DB	0d6H
	DB	0dcH
	DB	0deH
	DB	0dbH
	DB	0deH
	DB	0bbH
	DB	0d6H
	DB	0dbH
	DB	0deH
	DB	0bcH
	DB	0deH
	DB	0bbH
	DB	0d6H
	DB	0dbH
	DB	0deH
	DB	0dcH
	DB	0deH
	DB	0dcH
	DB	0deH
	DB	0dbH
	DB	0deH
	DB	0bbH
	DB	0d6H
	DB	0dcH
	DB	0deH
	DB	0dbH
	DB	0deH
	DB	0bbH
	DB	0d6H
	DB	0bbH
	DB	0d6H
	DB	0dcH
	DB	0deH
	DB	0bbH
	DB	0deH
	DB	0bbH
	DB	0d6H
	DB	0bbH
	DB	0d6H
	DB	0bbH
	DB	0deH
	DB	0bbH
	DB	0d6H
	DB	0bbH
	DB	0deH
	DB	0bbH
	DB	0d6H
	DB	0dcH
	DB	0deH
	DB	0bbH
	DB	0d6H
	DB	0bbH
	DB	0deH
	DB	0bbH
	DB	0d6H
	DB	0bbH
	DB	0d6H
	DB	0bbH
	DB	0d6H
	DB	0dcH
	DB	0deH
	DB	0bbH
	DB	0d6H
	DB	0bbH
	DB	0d6H
	DB	0bbH
	DB	0deH
	DB	0dcH
	DB	0deH
	DB	0bbH
	DB	0d6H
	DB	0bbH
	DB	0deH
	DB	0bbH
	DB	0d6H
	DB	0bbH
	DB	0d6H
	DB	0bbH
	DB	0d6H
	DB	0bbH
	DB	0d6H
	DB	0bbH
	DB	0d6H
	DB	0dcH
	DB	0deH
	DB	0bbH
	DB	0d6H
	DB	0bbH
	DB	0d6H
	DB	0bbH
	DB	0deH
	DB	0bbH
	DB	0d6H
	DB	0dbH
	DB	0deH
	DB	0bbH
	DB	0d6H
	DB	0bbH
	DB	0d6H
	DB	0dcH
	DB	0deH
	DB	0bbH
	DB	0d6H
	DB	0bbH
	DB	0deH
	DB	0bbH
	DB	0d6H
	DB	0dbH
	DB	0deH
	DB	0dbH
	DB	0deH
	DB	0bbH
	DB	0d6H
	DB	0bbH
	DB	0deH
	DB	0fcH
	DB	0deH
	DB	01dH
	DB	0e7H
	DB	07eH
	DB	0f7H
	DB	0dbH
	DB	0deH
	DB	05dH
	DB	0efH
	DB	07eH
	DB	0efH
	DB	01cH
	DB	0e7H
	DB	05dH
	DB	0efH
	DB	0bfH
	DB	0ffH
	DB	03dH
	DB	0e7H
	DB	01dH
	DB	0e7H
	DB	0dcH
	DB	0deH
	DB	01cH
	DB	0e7H
	DB	0bbH
	DB	0deH
	DB	09bH
	DB	0d6H
	DB	0bbH
	DB	0deH
	DB	0bbH
	DB	0deH
	DB	0dcH
	DB	0deH
	DB	09bH
	DB	0d6H
	DB	0dcH
	DB	0deH
	DB	09aH
	DB	0d6H
	DB	0afH
	DB	073H
	DB	0ecH
	DB	05aH
	DB	021H
	DB	08H
	DB	025H
	DB	021H
	DB	0bbH
	DB	0deH
	DB	0bbH
	DB	0deH
	DB	05eH
	DB	0efH
	DB	0ecH
	DB	05aH
	DB	049H
	DB	04aH
	DB	06eH
	DB	073H
	DB	082H
	DB	010H
	DB	0ccH
	DB	05aH
	DB	0fcH
	DB	0deH
	DB	0bbH
	DB	0d6H
	DB	0fcH
	DB	0deH
	DB	076H
	DB	0b5H
	DB	083H
	DB	010H
	DB	021H
	DB	08H
	DB	041H
	DB	08H
	DB	072H
	DB	094H
	DB	01dH
	DB	0e7H
	DB	09bH
	DB	0d6H
	DB	0bbH
	DB	0deH
	DB	0bbH
	DB	0deH
	DB	09bH
	DB	0d6H
	DB	0bbH
	DB	0deH
	DB	0bbH
	DB	0d6H
	DB	07eH
	DB	0efH
	DB	02dH
	DB	05bH
	DB	0cbH
	DB	04aH
	DB	0f3H
	DB	08cH
	DB	0cH
	DB	05bH
	DB	082H
	DB	08H
	DB	021H
	DB	00H
	DB	021H
	DB	00H
	DB	020H
	DB	00H
	DB	01H
	DB	08H
	DB	00H
	DB	00H
	DB	00H
	DB	00H
	DB	00H
	DB	00H
	DB	021H
	DB	00H
	DB	00H
	DB	00H
	DB	00H
	DB	00H
	DB	00H
	DB	00H
	DB	00H
	DB	00H
	DB	00H
	DB	00H
	DB	00H
	DB	00H
	DB	041H
	DB	08H
	DB	021H
	DB	08H
	DB	01H
	DB	00H
	DB	00H
	DB	00H
	DB	00H
	DB	00H
	DB	082H
	DB	010H
	DB	049H
	DB	04aH
	DB	08fH
	DB	073H
	DB	035H
	DB	0adH
	DB	05aH
	DB	0ceH
	DB	01cH
	DB	0e7H
	DB	01dH
	DB	0e7H
	DB	0bbH
	DB	0d6H
	DB	0bbH
	DB	0deH
	DB	0dcH
	DB	0deH
	DB	09bH
	DB	0d6H
	DB	0dcH
	DB	0deH
	DB	0bbH
	DB	0d6H
	DB	07aH
	DB	0d6H
	DB	09bH
	DB	0d6H
	DB	0dbH
	DB	0deH
	DB	0bbH
	DB	0d6H
	DB	0bbH
	DB	0d6H
	DB	0bbH
	DB	0deH
	DB	0dcH
	DB	0deH
	DB	0bbH
	DB	0d6H
	DB	0bbH
	DB	0deH
	DB	0bbH
	DB	0deH
	DB	0dbH
	DB	0deH
	DB	0bbH
	DB	0deH
	DB	0dcH
	DB	0deH
	DB	0dbH
	DB	0deH
	DB	0dbH
	DB	0d6H
	DB	0dcH
	DB	0deH
	DB	0bbH
	DB	0deH
	DB	0bbH
	DB	0d6H
	DB	0dbH
	DB	0deH
	DB	0dbH
	DB	0deH
	DB	0bbH
	DB	0deH
	DB	0bbH
	DB	0deH
	DB	0dbH
	DB	0d6H
	DB	0bcH
	DB	0deH
	DB	0dbH
	DB	0deH
	DB	0bbH
	DB	0d6H
	DB	0bcH
	DB	0deH
	DB	0bbH
	DB	0d6H
	DB	0dbH
	DB	0deH
	DB	0dbH
	DB	0deH
	DB	0bbH
	DB	0deH
	DB	0dbH
	DB	0d6H
	DB	0bcH
	DB	0deH
	DB	0bbH
	DB	0d6H
	DB	0dbH
	DB	0deH
	DB	0bbH
	DB	0d6H
	DB	0dbH
	DB	0deH
	DB	0bbH
	DB	0deH
	DB	0bbH
	DB	0d6H
	DB	0dbH
	DB	0deH
	DB	0bcH
	DB	0deH
	DB	0dbH
	DB	0d6H
	DB	0bbH
	DB	0deH
	DB	0dbH
	DB	0deH
	DB	0bbH
	DB	0d6H
	DB	0bbH
	DB	0d6H
	DB	0dbH
	DB	0deH
	DB	0dbH
	DB	0deH
	DB	0bcH
	DB	0deH
	DB	0bbH
	DB	0d6H
	DB	0bbH
	DB	0d6H
	DB	0dcH
	DB	0deH
	DB	0bbH
	DB	0deH
	DB	0bbH
	DB	0d6H
	DB	0dbH
	DB	0deH
	DB	0bcH
	DB	0deH
	DB	0bbH
	DB	0d6H
	DB	0dbH
	DB	0deH
	DB	0dcH
	DB	0d6H
	DB	0bbH
	DB	0deH
	DB	0dbH
	DB	0deH
	DB	0bcH
	DB	0d6H
	DB	0dbH
	DB	0deH
	DB	0bcH
	DB	0deH
	DB	0bbH
	DB	0deH
	DB	0dbH
	DB	0d6H
	DB	0bcH
	DB	0d6H
	DB	0dbH
	DB	0deH
	DB	0dbH
	DB	0d6H
	DB	0bbH
	DB	0deH
	DB	0bbH
	DB	0d6H
	DB	0bbH
	DB	0d6H
	DB	0bbH
	DB	0d6H
	DB	0dbH
	DB	0deH
	DB	0dbH
	DB	0deH
	DB	0bbH
	DB	0d6H
	DB	0bbH
	DB	0d6H
	DB	0dbH
	DB	0deH
	DB	0bbH
	DB	0d6H
	DB	0bbH
	DB	0deH
	DB	0bbH
	DB	0d6H
	DB	0bbH
	DB	0d6H
	DB	0bbH
	DB	0deH
	DB	0dbH
	DB	0deH
	DB	0dcH
	DB	0d6H
	DB	0bbH
	DB	0d6H
	DB	0bbH
	DB	0deH
	DB	0bbH
	DB	0deH
	DB	0dbH
	DB	0deH
	DB	0dcH
	DB	0deH
	DB	0bbH
	DB	0deH
	DB	0bbH
	DB	0d6H
	DB	0bbH
	DB	0deH
	DB	0dbH
	DB	0deH
	DB	0dbH
	DB	0deH
	DB	0bbH
	DB	0deH
	DB	0dcH
	DB	0deH
	DB	0bbH
	DB	0d6H
	DB	0dbH
	DB	0deH
	DB	0dcH
	DB	0deH
	DB	0bbH
	DB	0d6H
	DB	0bbH
	DB	0deH
	DB	0dcH
	DB	0deH
	DB	0bbH
	DB	0deH
	DB	0dbH
	DB	0deH
	DB	0dbH
	DB	0deH
	DB	0bcH
	DB	0deH
	DB	0dbH
	DB	0deH
	DB	0dcH
	DB	0deH
	DB	0dbH
	DB	0d6H
	DB	0bbH
	DB	0d6H
	DB	0bbH
	DB	0deH
	DB	0bbH
	DB	0d6H
	DB	0bbH
	DB	0d6H
	DB	0bbH
	DB	0deH
	DB	0bbH
	DB	0d6H
	DB	0bbH
	DB	0d6H
	DB	0dcH
	DB	0deH
	DB	09bH
	DB	0d6H
	DB	0bbH
	DB	0d6H
	DB	0fcH
	DB	0deH
	DB	09aH
	DB	0d6H
	DB	038H
	DB	0c6H
	DB	09aH
	DB	0d6H
	DB	07aH
	DB	0d6H
	DB	018H
	DB	0c6H
	DB	096H
	DB	0b5H
	DB	075H
	DB	0adH
	DB	014H
	DB	0a5H
	DB	0f4H
	DB	0a4H
	DB	097H
	DB	0b5H
	DB	09aH
	DB	0d6H
	DB	0d8H
	DB	0bdH
	DB	05aH
	DB	0ceH
	DB	0dcH
	DB	0deH
	DB	0dcH
	DB	0deH
	DB	0dcH
	DB	0deH
	DB	0bbH
	DB	0d6H
	DB	0dbH
	DB	0deH
	DB	0bbH
	DB	0d6H
	DB	0fcH
	DB	0deH
	DB	0fcH
	DB	0e6H
	DB	06eH
	DB	06bH
	DB	04eH
	DB	06bH
	DB	021H
	DB	08H
	DB	086H
	DB	031H
	DB	0bbH
	DB	0d6H
	DB	09bH
	DB	0d6H
	DB	05eH
	DB	0efH
	DB	08bH
	DB	052H
	DB	045H
	DB	029H
	DB	02dH
	DB	063H
	DB	0dH
	DB	063H
	DB	0cbH
	DB	05aH
	DB	0dbH
	DB	0deH
	DB	0bbH
	DB	0deH
	DB	01dH
	DB	0e7H
	DB	0d8H
	DB	0bdH
	DB	0c4H
	DB	018H
	DB	00H
	DB	00H
	DB	083H
	DB	010H
	DB	072H
	DB	094H
	DB	0fcH
	DB	0deH
	DB	09bH
	DB	0d6H
	DB	0bbH
	DB	0deH
	DB	0dcH
	DB	0deH
	DB	0bbH
	DB	0deH
	DB	0dbH
	DB	0d6H
	DB	0bbH
	DB	0d6H
	DB	0bbH
	DB	0ceH
	DB	06aH
	DB	042H
	DB	06eH
	DB	063H
	DB	071H
	DB	084H
	DB	06dH
	DB	063H
	DB	0a2H
	DB	08H
	DB	00H
	DB	00H
	DB	00H
	DB	00H
	DB	020H
	DB	00H
	DB	020H
	DB	08H
	DB	00H
	DB	00H
	DB	00H
	DB	00H
	DB	00H
	DB	00H
	DB	00H
	DB	00H
	DB	00H
	DB	00H
	DB	00H
	DB	00H
	DB	00H
	DB	00H
	DB	00H
	DB	00H
	DB	00H
	DB	00H
	DB	00H
	DB	00H
	DB	041H
	DB	08H
	DB	00H
	DB	00H
	DB	020H
	DB	00H
	DB	021H
	DB	08H
	DB	00H
	DB	00H
	DB	00H
	DB	00H
	DB	00H
	DB	00H
	DB	00H
	DB	00H
	DB	083H
	DB	010H
	DB	029H
	DB	042H
	DB	02dH
	DB	063H
	DB	0d4H
	DB	09cH
	DB	09aH
	DB	0d6H
	DB	03dH
	DB	0e7H
	DB	01cH
	DB	0e7H
	DB	0dcH
	DB	0deH
	DB	09aH
	DB	0d6H
	DB	0bbH
	DB	0d6H
	DB	01cH
	DB	0e7H
	DB	09bH
	DB	0d6H
	DB	0dbH
	DB	0deH
	DB	0dcH
	DB	0deH
	DB	05aH
	DB	0ceH
	DB	0dbH
	DB	0deH
	DB	0bbH
	DB	0d6H
	DB	0bbH
	DB	0d6H
	DB	0bbH
	DB	0d6H
	DB	0bbH
	DB	0d6H
	DB	0bbH
	DB	0d6H
	DB	0bbH
	DB	0d6H
	DB	0bbH
	DB	0d6H
	DB	0bbH
	DB	0deH
	DB	0bbH
	DB	0d6H
	DB	0bbH
	DB	0d6H
	DB	0bbH
	DB	0d6H
	DB	0bbH
	DB	0d6H
	DB	0bcH
	DB	0d6H
	DB	0dbH
	DB	0deH
	DB	0bbH
	DB	0d6H
	DB	0bcH
	DB	0d6H
	DB	0bbH
	DB	0deH
	DB	0bbH
	DB	0d6H
	DB	0bbH
	DB	0d6H
	DB	0bbH
	DB	0deH
	DB	0bbH
	DB	0d6H
	DB	0bbH
	DB	0d6H
	DB	0bbH
	DB	0d6H
	DB	0dcH
	DB	0deH
	DB	0bbH
	DB	0d6H
	DB	0bbH
	DB	0deH
	DB	0bbH
	DB	0d6H
	DB	0dbH
	DB	0deH
	DB	0bbH
	DB	0d6H
	DB	0dcH
	DB	0deH
	DB	0bbH
	DB	0deH
	DB	0dcH
	DB	0d6H
	DB	0bbH
	DB	0d6H
	DB	0bbH
	DB	0d6H
	DB	0bbH
	DB	0deH
	DB	0dcH
	DB	0deH
	DB	0bbH
	DB	0d6H
	DB	0bbH
	DB	0deH
	DB	0bbH
	DB	0d6H
	DB	0bbH
	DB	0d6H
	DB	0dcH
	DB	0deH
	DB	0bbH
	DB	0d6H
	DB	0bbH
	DB	0d6H
	DB	0dbH
	DB	0deH
	DB	0dbH
	DB	0deH
	DB	0bbH
	DB	0d6H
	DB	0bbH
	DB	0d6H
	DB	0bbH
	DB	0deH
	DB	0bbH
	DB	0d6H
	DB	0bbH
	DB	0d6H
	DB	0dbH
	DB	0deH
	DB	0bbH
	DB	0d6H
	DB	0bbH
	DB	0d6H
	DB	0bbH
	DB	0d6H
	DB	0bbH
	DB	0deH
	DB	0bbH
	DB	0d6H
	DB	0dbH
	DB	0deH
	DB	0bbH
	DB	0deH
	DB	0bbH
	DB	0d6H
	DB	0bbH
	DB	0d6H
	DB	0dbH
	DB	0deH
	DB	0bcH
	DB	0deH
	DB	0dbH
	DB	0deH
	DB	0dbH
	DB	0d6H
	DB	0bbH
	DB	0deH
	DB	0bbH
	DB	0deH
	DB	0bbH
	DB	0d6H
	DB	0bbH
	DB	0d6H
	DB	0bbH
	DB	0d6H
	DB	0bcH
	DB	0deH
	DB	0bbH
	DB	0deH
	DB	0bbH
	DB	0d6H
	DB	0dcH
	DB	0deH
	DB	0dbH
	DB	0deH
	DB	0dbH
	DB	0deH
	DB	0dcH
	DB	0deH
	DB	0dbH
	DB	0deH
	DB	0bbH
	DB	0d6H
	DB	0bbH
	DB	0deH
	DB	0dbH
	DB	0deH
	DB	0dbH
	DB	0d6H
	DB	0bbH
	DB	0d6H
	DB	0bbH
	DB	0deH
	DB	0dcH
	DB	0deH
	DB	0dbH
	DB	0d6H
	DB	0bbH
	DB	0deH
	DB	0bbH
	DB	0d6H
	DB	0bbH
	DB	0d6H
	DB	0dcH
	DB	0deH
	DB	0bbH
	DB	0d6H
	DB	0bbH
	DB	0d6H
	DB	0dbH
	DB	0deH
	DB	0bbH
	DB	0d6H
	DB	0bbH
	DB	0d6H
	DB	0dbH
	DB	0deH
	DB	0dbH
	DB	0deH
	DB	0bbH
	DB	0d6H
	DB	0dbH
	DB	0deH
	DB	0bbH
	DB	0d6H
	DB	0bbH
	DB	0d6H
	DB	0bbH
	DB	0deH
	DB	0dbH
	DB	0d6H
	DB	0bbH
	DB	0deH
	DB	0bbH
	DB	0deH
	DB	0bbH
	DB	0deH
	DB	0bbH
	DB	0d6H
	DB	0bbH
	DB	0deH
	DB	0dcH
	DB	0deH
	DB	0dbH
	DB	0deH
	DB	0bbH
	DB	0d6H
	DB	0bbH
	DB	0d6H
	DB	0bbH
	DB	0d6H
	DB	0dcH
	DB	0deH
	DB	0bbH
	DB	0deH
	DB	0fcH
	DB	0deH
	DB	096H
	DB	0b5H
	DB	0c7H
	DB	039H
	DB	0e7H
	DB	039H
	DB	0ecH
	DB	062H
	DB	0a7H
	DB	031H
	DB	0c3H
	DB	018H
	DB	061H
	DB	010H
	DB	04dH
	DB	06bH
	DB	0cH
	DB	063H
	DB	08H
	DB	042H
	DB	056H
	DB	0adH
	DB	0b3H
	DB	09cH
	DB	0f4H
	DB	0a4H
	DB	0fcH
	DB	0deH
	DB	0bbH
	DB	0deH
	DB	09bH
	DB	0d6H
	DB	0dbH
	DB	0deH
	DB	0dcH
	DB	0deH
	DB	03dH
	DB	0e7H
	DB	07aH
	DB	0d6H
	DB	09aH
	DB	0d6H
	DB	0c8H
	DB	039H
	DB	021H
	DB	00H
	DB	00H
	DB	00H
	DB	0e4H
	DB	018H
	DB	0dcH
	DB	0deH
	DB	0dbH
	DB	0deH
	DB	0dcH
	DB	0deH
	DB	0d4H
	DB	09cH
	DB	093H
	DB	094H
	DB	0d4H
	DB	09cH
	DB	0f4H
	DB	09cH
	DB	076H
	DB	0adH
	DB	0bbH
	DB	0d6H
	DB	09bH
	DB	0deH
	DB	0bbH
	DB	0deH
	DB	039H
	DB	0ceH
	DB	05H
	DB	021H
	DB	01H
	DB	00H
	DB	087H
	DB	031H
	DB	072H
	DB	094H
	DB	0dcH
	DB	0deH
	DB	0bbH
	DB	0deH
	DB	0bbH
	DB	0deH
	DB	0bbH
	DB	0d6H
	DB	0bbH
	DB	0d6H
	DB	09bH
	DB	0d6H
	DB	0fcH
	DB	0deH
	DB	0f7H
	DB	0bdH
	DB	0c7H
	DB	031H
	DB	010H
	DB	07cH
	DB	092H
	DB	08cH
	DB	0cbH
	DB	05aH
	DB	041H
	DB	00H
	DB	020H
	DB	00H
	DB	00H
	DB	00H
	DB	00H
	DB	00H
	DB	021H
	DB	08H
	DB	00H
	DB	00H
	DB	00H
	DB	00H
	DB	01H
	DB	00H
	DB	00H
	DB	00H
	DB	00H
	DB	00H
	DB	00H
	DB	00H
	DB	00H
	DB	00H
	DB	00H
	DB	00H
	DB	00H
	DB	00H
	DB	00H
	DB	00H
	DB	00H
	DB	00H
	DB	021H
	DB	08H
	DB	041H
	DB	08H
	DB	01H
	DB	00H
	DB	00H
	DB	00H
	DB	021H
	DB	00H
	DB	021H
	DB	00H
	DB	020H
	DB	00H
	DB	00H
	DB	00H
	DB	00H
	DB	00H
	DB	00H
	DB	00H
	DB	082H
	DB	010H
	DB	0c8H
	DB	039H
	DB	04eH
	DB	06bH
	DB	0b7H
	DB	0bdH
	DB	0fcH
	DB	0e6H
	DB	0fcH
	DB	0e6H
	DB	0fcH
	DB	0deH
	DB	0bbH
	DB	0d6H
	DB	0bbH
	DB	0d6H
	DB	07aH
	DB	0ceH
	DB	0dbH
	DB	0deH
	DB	0bbH
	DB	0d6H
	DB	0dcH
	DB	0deH
	DB	0dbH
	DB	0deH
	DB	0dbH
	DB	0deH
	DB	0bbH
	DB	0d6H
	DB	0dcH
	DB	0deH
	DB	0bbH
	DB	0deH
	DB	0dbH
	DB	0deH
	DB	0dcH
	DB	0d6H
	DB	0bbH
	DB	0deH
	DB	0dbH
	DB	0deH
	DB	0bbH
	DB	0deH
	DB	0dcH
	DB	0deH
	DB	0bbH
	DB	0deH
	DB	0bbH
	DB	0d6H
	DB	0dcH
	DB	0deH
	DB	0bbH
	DB	0d6H
	DB	0bbH
	DB	0deH
	DB	0dcH
	DB	0deH
	DB	0dbH
	DB	0deH
	DB	0dcH
	DB	0deH
	DB	0dbH
	DB	0deH
	DB	0bbH
	DB	0d6H
	DB	0dbH
	DB	0deH
	DB	0bbH
	DB	0deH
	DB	0bbH
	DB	0d6H
	DB	0dcH
	DB	0deH
	DB	0bbH
	DB	0deH
	DB	0bbH
	DB	0d6H
	DB	0bbH
	DB	0d6H
	DB	0dcH
	DB	0deH
	DB	0bbH
	DB	0d6H
	DB	0bbH
	DB	0d6H
	DB	0bbH
	DB	0deH
	DB	0dbH
	DB	0deH
	DB	0bbH
	DB	0d6H
	DB	0bbH
	DB	0d6H
	DB	0dbH
	DB	0deH
	DB	0bbH
	DB	0d6H
	DB	0dcH
	DB	0deH
	DB	0bbH
	DB	0d6H
	DB	0bbH
	DB	0d6H
	DB	0bbH
	DB	0deH
	DB	0dbH
	DB	0deH
	DB	0bbH
	DB	0d6H
	DB	0bbH
	DB	0d6H
	DB	0dbH
	DB	0deH
	DB	0bbH
	DB	0deH
	DB	0dcH
	DB	0deH
	DB	0dbH
	DB	0deH
	DB	0bbH
	DB	0d6H
	DB	0bbH
	DB	0deH
	DB	0dcH
	DB	0deH
	DB	0bbH
	DB	0d6H
	DB	0bbH
	DB	0d6H
	DB	0bbH
	DB	0deH
	DB	0dcH
	DB	0deH
	DB	0dbH
	DB	0d6H
	DB	0bbH
	DB	0deH
	DB	0dcH
	DB	0d6H
	DB	0dbH
	DB	0deH
	DB	0bbH
	DB	0deH
	DB	0bbH
	DB	0deH
	DB	0bbH
	DB	0d6H
	DB	0bcH
	DB	0deH
	DB	0dbH
	DB	0deH
	DB	0dcH
	DB	0d6H
	DB	0bbH
	DB	0deH
	DB	0bbH
	DB	0deH
	DB	0bbH
	DB	0d6H
	DB	0dcH
	DB	0deH
	DB	0dbH
	DB	0deH
	DB	0dbH
	DB	0deH
	DB	0bbH
	DB	0d6H
	DB	0bcH
	DB	0deH
	DB	0dbH
	DB	0d6H
	DB	0bbH
	DB	0deH
	DB	0bcH
	DB	0d6H
	DB	0dbH
	DB	0d6H
	DB	0bbH
	DB	0deH
	DB	0bcH
	DB	0deH
	DB	0bbH
	DB	0d6H
	DB	0bbH
	DB	0d6H
	DB	0dcH
	DB	0deH
	DB	0bbH
	DB	0deH
	DB	0bbH
	DB	0d6H
	DB	0dbH
	DB	0deH
	DB	0bbH
	DB	0d6H
	DB	0bbH
	DB	0deH
	DB	0dcH
	DB	0deH
	DB	0dbH
	DB	0d6H
	DB	0bbH
	DB	0deH
	DB	0dbH
	DB	0deH
	DB	0bbH
	DB	0d6H
	DB	0bcH
	DB	0deH
	DB	0bbH
	DB	0deH
	DB	0dbH
	DB	0deH
	DB	0bcH
	DB	0d6H
	DB	0bbH
	DB	0deH
	DB	0dbH
	DB	0d6H
	DB	0bcH
	DB	0deH
	DB	0bbH
	DB	0deH
	DB	0dbH
	DB	0d6H
	DB	0dcH
	DB	0d6H
	DB	0bbH
	DB	0deH
	DB	0bbH
	DB	0deH
	DB	0dbH
	DB	0deH
	DB	0dbH
	DB	0deH
	DB	0bbH
	DB	0d6H
	DB	0bbH
	DB	0d6H
	DB	0bbH
	DB	0deH
	DB	0dcH
	DB	0deH
	DB	0bbH
	DB	0deH
	DB	0bbH
	DB	0d6H
	DB	0dbH
	DB	0deH
	DB	09bH
	DB	0d6H
	DB	0fcH
	DB	0e6H
	DB	092H
	DB	094H
	DB	00H
	DB	00H
	DB	020H
	DB	00H
	DB	028H
	DB	04aH
	DB	0a2H
	DB	010H
	DB	061H
	DB	08H
	DB	00H
	DB	00H
	DB	0a7H
	DB	039H
	DB	0ecH
	DB	05aH
	DB	042H
	DB	08H
	DB	09H
	DB	042H
	DB	08aH
	DB	052H
	DB	076H
	DB	0b5H
	DB	03dH
	DB	0e7H
	DB	0bbH
	DB	0deH
	DB	0bbH
	DB	0deH
	DB	0bbH
	DB	0deH
	DB	09bH
	DB	0d6H
	DB	09aH
	DB	0d6H
	DB	0bbH
	DB	0d6H
	DB	0fcH
	DB	0deH
	DB	029H
	DB	04aH
	DB	05H
	DB	021H
	DB	062H
	DB	08H
	DB	0c8H
	DB	039H
	DB	07aH
	DB	0ceH
	DB	0dcH
	DB	0deH
	DB	01cH
	DB	0e7H
	DB	09bH
	DB	0d6H
	DB	0fcH
	DB	0deH
	DB	01dH
	DB	0e7H
	DB	09bH
	DB	0d6H
	DB	01dH
	DB	0e7H
	DB	0bbH
	DB	0d6H
	DB	0bcH
	DB	0deH
	DB	0fcH
	DB	0deH
	DB	05aH
	DB	0ceH
	DB	029H
	DB	04aH
	DB	086H
	DB	031H
	DB	029H
	DB	04aH
	DB	056H
	DB	0adH
	DB	0bbH
	DB	0deH
	DB	0dcH
	DB	0deH
	DB	0bbH
	DB	0deH
	DB	09bH
	DB	0d6H
	DB	0bbH
	DB	0d6H
	DB	0bbH
	DB	0d6H
	DB	01cH
	DB	0dfH
	DB	095H
	DB	0adH
	DB	0c7H
	DB	031H
	DB	0b2H
	DB	08cH
	DB	02cH
	DB	05bH
	DB	0c3H
	DB	010H
	DB	00H
	DB	00H
	DB	041H
	DB	08H
	DB	00H
	DB	00H
	DB	00H
	DB	00H
	DB	00H
	DB	00H
	DB	00H
	DB	00H
	DB	00H
	DB	00H
	DB	01H
	DB	00H
	DB	00H
	DB	00H
	DB	00H
	DB	00H
	DB	00H
	DB	00H
	DB	00H
	DB	00H
	DB	00H
	DB	00H
	DB	020H
	DB	08H
	DB	020H
	DB	00H
	DB	00H
	DB	00H
	DB	021H
	DB	00H
	DB	00H
	DB	00H
	DB	00H
	DB	00H
	DB	020H
	DB	00H
	DB	021H
	DB	08H
	DB	00H
	DB	00H
	DB	041H
	DB	08H
	DB	021H
	DB	08H
	DB	01H
	DB	00H
	DB	021H
	DB	08H
	DB	00H
	DB	00H
	DB	00H
	DB	00H
	DB	01H
	DB	00H
	DB	062H
	DB	08H
	DB	0a7H
	DB	039H
	DB	0f4H
	DB	09cH
	DB	09aH
	DB	0d6H
	DB	03dH
	DB	0e7H
	DB	0dcH
	DB	0deH
	DB	09aH
	DB	0d6H
	DB	0dcH
	DB	0deH
	DB	0dcH
	DB	0deH
	DB	09aH
	DB	0d6H
	DB	0bbH
	DB	0d6H
	DB	0bbH
	DB	0deH
	DB	0bbH
	DB	0deH
	DB	0bbH
	DB	0d6H
	DB	0bbH
	DB	0deH
	DB	0dbH
	DB	0deH
	DB	0bbH
	DB	0d6H
	DB	0dbH
	DB	0deH
	DB	0bcH
	DB	0d6H
	DB	0bbH
	DB	0d6H
	DB	0bbH
	DB	0deH
	DB	0bbH
	DB	0d6H
	DB	0bbH
	DB	0deH
	DB	0bbH
	DB	0d6H
	DB	0bbH
	DB	0d6H
	DB	0bbH
	DB	0deH
	DB	0dcH
	DB	0d6H
	DB	0bbH
	DB	0d6H
	DB	0dbH
	DB	0deH
	DB	0bbH
	DB	0d6H
	DB	0bbH
	DB	0d6H
	DB	0dbH
	DB	0deH
	DB	0dcH
	DB	0deH
	DB	0bbH
	DB	0d6H
	DB	0bbH
	DB	0d6H
	DB	0bbH
	DB	0deH
	DB	0dbH
	DB	0deH
	DB	0dbH
	DB	0deH
	DB	0bbH
	DB	0deH
	DB	0dbH
	DB	0deH
	DB	0bbH
	DB	0d6H
	DB	0dbH
	DB	0deH
	DB	0bcH
	DB	0deH
	DB	0bbH
	DB	0d6H
	DB	0bbH
	DB	0deH
	DB	0bbH
	DB	0d6H
	DB	0bbH
	DB	0d6H
	DB	0dbH
	DB	0deH
	DB	0bbH
	DB	0deH
	DB	0dcH
	DB	0deH
	DB	0bbH
	DB	0deH
	DB	0bbH
	DB	0d6H
	DB	0dcH
	DB	0deH
	DB	0bcH
	DB	0deH
	DB	0bbH
	DB	0deH
	DB	0dbH
	DB	0d6H
	DB	0bcH
	DB	0deH
	DB	0dbH
	DB	0deH
	DB	0dbH
	DB	0d6H
	DB	0bbH
	DB	0deH
	DB	0bbH
	DB	0deH
	DB	0dbH
	DB	0deH
	DB	0bbH
	DB	0d6H
	DB	0bbH
	DB	0deH
	DB	0bbH
	DB	0d6H
	DB	0dbH
	DB	0deH
	DB	0bbH
	DB	0d6H
	DB	0bbH
	DB	0d6H
	DB	0bbH
	DB	0d6H
	DB	0bbH
	DB	0deH
	DB	0dcH
	DB	0d6H
	DB	0bbH
	DB	0d6H
	DB	0bbH
	DB	0d6H
	DB	0bbH
	DB	0deH
	DB	0bbH
	DB	0d6H
	DB	0bbH
	DB	0d6H
	DB	0dbH
	DB	0deH
	DB	0bbH
	DB	0deH
	DB	0bbH
	DB	0d6H
	DB	0bbH
	DB	0d6H
	DB	0dbH
	DB	0deH
	DB	0bbH
	DB	0d6H
	DB	0bbH
	DB	0deH
	DB	0dbH
	DB	0deH
	DB	0bbH
	DB	0d6H
	DB	0bbH
	DB	0deH
	DB	0dbH
	DB	0deH
	DB	0dbH
	DB	0d6H
	DB	0bbH
	DB	0d6H
	DB	0dcH
	DB	0deH
	DB	0dbH
	DB	0deH
	DB	0bbH
	DB	0d6H
	DB	0bbH
	DB	0d6H
	DB	0dbH
	DB	0deH
	DB	0bbH
	DB	0d6H
	DB	0dcH
	DB	0deH
	DB	0dbH
	DB	0deH
	DB	0bbH
	DB	0deH
	DB	0bcH
	DB	0d6H
	DB	0dbH
	DB	0deH
	DB	0dbH
	DB	0deH
	DB	0bcH
	DB	0deH
	DB	0bbH
	DB	0d6H
	DB	0bbH
	DB	0d6H
	DB	0bbH
	DB	0d6H
	DB	0dcH
	DB	0deH
	DB	0dbH
	DB	0deH
	DB	0bbH
	DB	0d6H
	DB	0dcH
	DB	0deH
	DB	0dbH
	DB	0deH
	DB	0bbH
	DB	0deH
	DB	0dcH
	DB	0deH
	DB	0dbH
	DB	0d6H
	DB	0dbH
	DB	0d6H
	DB	0bbH
	DB	0d6H
	DB	0bbH
	DB	0deH
	DB	0bbH
	DB	0d6H
	DB	0dcH
	DB	0deH
	DB	0bbH
	DB	0d6H
	DB	0dbH
	DB	0deH
	DB	0bbH
	DB	0d6H
	DB	0bbH
	DB	0d6H
	DB	0dcH
	DB	0deH
	DB	0bbH
	DB	0d6H
	DB	03dH
	DB	0e7H
	DB	0d3H
	DB	09cH
	DB	021H
	DB	08H
	DB	066H
	DB	031H
	DB	076H
	DB	0b5H
	DB	072H
	DB	094H
	DB	062H
	DB	010H
	DB	00H
	DB	00H
	DB	069H
	DB	04aH
	DB	0f4H
	DB	09cH
	DB	092H
	DB	094H
	DB	025H
	DB	029H
	DB	00H
	DB	00H
	DB	092H
	DB	094H
	DB	0fcH
	DB	0e6H
	DB	0dcH
	DB	0deH
	DB	0bbH
	DB	0deH
	DB	0bbH
	DB	0deH
	DB	0bbH
	DB	0d6H
	DB	09bH
	DB	0d6H
	DB	0dcH
	DB	0deH
	DB	09aH
	DB	0d6H
	DB	05dH
	DB	0efH
	DB	05aH
	DB	0ceH
	DB	0f8H
	DB	0bdH
	DB	059H
	DB	0ceH
	DB	0bbH
	DB	0deH
	DB	0bbH
	DB	0d6H
	DB	0bbH
	DB	0d6H
	DB	0dbH
	DB	0deH
	DB	0bbH
	DB	0d6H
	DB	09aH
	DB	0d6H
	DB	0dcH
	DB	0deH
	DB	0dbH
	DB	0deH
	DB	09bH
	DB	0d6H
	DB	09bH
	DB	0d6H
	DB	0dcH
	DB	0deH
	DB	0fcH
	DB	0deH
	DB	0fcH
	DB	0deH
	DB	01dH
	DB	0e7H
	DB	01dH
	DB	0e7H
	DB	09bH
	DB	0d6H
	DB	0fcH
	DB	0deH
	DB	0bbH
	DB	0deH
	DB	0bbH
	DB	0deH
	DB	0bbH
	DB	0d6H
	DB	0dbH
	DB	0deH
	DB	0bbH
	DB	0d6H
	DB	03dH
	DB	0e7H
	DB	055H
	DB	0a5H
	DB	0a7H
	DB	031H
	DB	0aaH
	DB	04aH
	DB	082H
	DB	08H
	DB	00H
	DB	00H
	DB	020H
	DB	00H
	DB	00H
	DB	00H
	DB	00H
	DB	00H
	DB	00H
	DB	00H
	DB	00H
	DB	00H
	DB	00H
	DB	00H
	DB	00H
	DB	00H
	DB	00H
	DB	00H
	DB	01H
	DB	00H
	DB	00H
	DB	00H
	DB	00H
	DB	00H
	DB	00H
	DB	00H
	DB	00H
	DB	00H
	DB	00H
	DB	00H
	DB	020H
	DB	08H
	DB	021H
	DB	08H
	DB	021H
	DB	00H
	DB	00H
	DB	00H
	DB	00H
	DB	00H
	DB	00H
	DB	00H
	DB	00H
	DB	00H
	DB	01H
	DB	00H
	DB	01H
	DB	00H
	DB	01H
	DB	00H
	DB	00H
	DB	00H
	DB	041H
	DB	08H
	DB	021H
	DB	08H
	DB	021H
	DB	00H
	DB	00H
	DB	00H
	DB	00H
	DB	00H
	DB	021H
	DB	00H
	DB	00H
	DB	00H
	DB	066H
	DB	031H
	DB	092H
	DB	094H
	DB	0fcH
	DB	0deH
	DB	01dH
	DB	0e7H
	DB	09aH
	DB	0d6H
	DB	0bbH
	DB	0d6H
	DB	09aH
	DB	0d6H
	DB	0bbH
	DB	0d6H
	DB	0bbH
	DB	0d6H
	DB	0dcH
	DB	0deH
	DB	0dbH
	DB	0d6H
	DB	0bbH
	DB	0d6H
	DB	0bcH
	DB	0deH
	DB	0bbH
	DB	0d6H
	DB	0bbH
	DB	0d6H
	DB	0dbH
	DB	0deH
	DB	0bbH
	DB	0d6H
	DB	0bbH
	DB	0d6H
	DB	0dcH
	DB	0deH
	DB	0dcH
	DB	0deH
	DB	0dcH
	DB	0deH
	DB	0bbH
	DB	0d6H
	DB	0bbH
	DB	0deH
	DB	0dcH
	DB	0deH
	DB	0bbH
	DB	0d6H
	DB	0bbH
	DB	0deH
	DB	0bbH
	DB	0deH
	DB	0bbH
	DB	0d6H
	DB	0bcH
	DB	0deH
	DB	0dbH
	DB	0deH
	DB	0bbH
	DB	0deH
	DB	0bbH
	DB	0d6H
	DB	0bbH
	DB	0d6H
	DB	0dcH
	DB	0deH
	DB	0bbH
	DB	0d6H
	DB	0bbH
	DB	0deH
	DB	0bbH
	DB	0d6H
	DB	0bbH
	DB	0d6H
	DB	0dcH
	DB	0deH
	DB	0dbH
	DB	0deH
	DB	0bbH
	DB	0d6H
	DB	0bbH
	DB	0deH
	DB	0bbH
	DB	0deH
	DB	0bbH
	DB	0d6H
	DB	0bbH
	DB	0deH
	DB	0dbH
	DB	0deH
	DB	0bbH
	DB	0d6H
	DB	0bbH
	DB	0d6H
	DB	0dbH
	DB	0deH
	DB	0bbH
	DB	0d6H
	DB	0bbH
	DB	0d6H
	DB	0dbH
	DB	0deH
	DB	0dbH
	DB	0d6H
	DB	0bbH
	DB	0d6H
	DB	0bcH
	DB	0deH
	DB	0dbH
	DB	0deH
	DB	0bbH
	DB	0d6H
	DB	0bbH
	DB	0d6H
	DB	0dcH
	DB	0deH
	DB	0bbH
	DB	0deH
	DB	0dbH
	DB	0d6H
	DB	0bcH
	DB	0deH
	DB	0bbH
	DB	0deH
	DB	0bbH
	DB	0deH
	DB	0bbH
	DB	0d6H
	DB	0dcH
	DB	0deH
	DB	0bbH
	DB	0deH
	DB	0dbH
	DB	0deH
	DB	0bbH
	DB	0d6H
	DB	0bbH
	DB	0deH
	DB	0dbH
	DB	0deH
	DB	0bbH
	DB	0d6H
	DB	0bbH
	DB	0d6H
	DB	0bbH
	DB	0deH
	DB	0dcH
	DB	0deH
	DB	0dbH
	DB	0d6H
	DB	0bbH
	DB	0deH
	DB	0bcH
	DB	0deH
	DB	0bbH
	DB	0d6H
	DB	0dbH
	DB	0deH
	DB	0dcH
	DB	0deH
	DB	0bbH
	DB	0d6H
	DB	0dcH
	DB	0deH
	DB	0bbH
	DB	0deH
	DB	0bbH
	DB	0deH
	DB	0dbH
	DB	0deH
	DB	0bbH
	DB	0deH
	DB	0dbH
	DB	0deH
	DB	0bbH
	DB	0deH
	DB	0bbH
	DB	0d6H
	DB	0dcH
	DB	0deH
	DB	0bbH
	DB	0d6H
	DB	0bbH
	DB	0deH
	DB	0dcH
	DB	0d6H
	DB	0bbH
	DB	0d6H
	DB	0bbH
	DB	0deH
	DB	0dcH
	DB	0d6H
	DB	0bbH
	DB	0deH
	DB	0bbH
	DB	0d6H
	DB	0dbH
	DB	0deH
	DB	0dbH
	DB	0deH
	DB	0dbH
	DB	0deH
	DB	0bbH
	DB	0deH
	DB	0bbH
	DB	0d6H
	DB	0dbH
	DB	0deH
	DB	0bbH
	DB	0d6H
	DB	0bbH
	DB	0d6H
	DB	0dbH
	DB	0deH
	DB	0bbH
	DB	0deH
	DB	0bbH
	DB	0deH
	DB	0bbH
	DB	0deH
	DB	0bbH
	DB	0d6H
	DB	0bbH
	DB	0d6H
	DB	0bbH
	DB	0deH
	DB	0dcH
	DB	0deH
	DB	0bbH
	DB	0d6H
	DB	0bbH
	DB	0d6H
	DB	0bbH
	DB	0deH
	DB	0bbH
	DB	0d6H
	DB	0bbH
	DB	0deH
	DB	07aH
	DB	0d6H
	DB	01cH
	DB	0e7H
	DB	031H
	DB	084H
	DB	00H
	DB	00H
	DB	0abH
	DB	052H
	DB	0dbH
	DB	0deH
	DB	0fcH
	DB	0e6H
	DB	0a3H
	DB	018H
	DB	00H
	DB	00H
	DB	010H
	DB	084H
	DB	05eH
	DB	0efH
	DB	0dbH
	DB	0deH
	DB	0a7H
	DB	039H
	DB	00H
	DB	00H
	DB	0d4H
	DB	09cH
	DB	03dH
	DB	0e7H
	DB	0bbH
	DB	0d6H
	DB	0bbH
	DB	0deH
	DB	09aH
	DB	0d6H
	DB	0dbH
	DB	0d6H
	DB	0bbH
	DB	0deH
	DB	0bbH
	DB	0d6H
	DB	09bH
	DB	0d6H
	DB	0dbH
	DB	0deH
	DB	0dbH
	DB	0deH
	DB	0dbH
	DB	0deH
	DB	0fcH
	DB	0deH
	DB	0dcH
	DB	0deH
	DB	0dbH
	DB	0deH
	DB	09bH
	DB	0d6H
	DB	0dcH
	DB	0deH
	DB	0bbH
	DB	0d6H
	DB	0fcH
	DB	0deH
	DB	0bbH
	DB	0d6H
	DB	07aH
	DB	0d6H
	DB	0fcH
	DB	0deH
	DB	0dcH
	DB	0deH
	DB	0bbH
	DB	0d6H
	DB	09bH
	DB	0d6H
	DB	0dcH
	DB	0deH
	DB	0bbH
	DB	0d6H
	DB	0bbH
	DB	0deH
	DB	09bH
	DB	0d6H
	DB	0bbH
	DB	0d6H
	DB	0bbH
	DB	0d6H
	DB	0bbH
	DB	0d6H
	DB	0bbH
	DB	0deH
	DB	0bbH
	DB	0d6H
	DB	0bbH
	DB	0d6H
	DB	0fcH
	DB	0deH
	DB	0b7H
	DB	0b5H
	DB	0e4H
	DB	018H
	DB	062H
	DB	08H
	DB	020H
	DB	00H
	DB	020H
	DB	00H
	DB	00H
	DB	00H
	DB	020H
	DB	08H
	DB	00H
	DB	00H
	DB	00H
	DB	00H
	DB	00H
	DB	00H
	DB	00H
	DB	00H
	DB	00H
	DB	00H
	DB	021H
	DB	08H
	DB	00H
	DB	00H
	DB	00H
	DB	00H
	DB	00H
	DB	00H
	DB	021H
	DB	08H
	DB	020H
	DB	00H
	DB	00H
	DB	00H
	DB	00H
	DB	00H
	DB	00H
	DB	00H
	DB	00H
	DB	00H
	DB	00H
	DB	00H
	DB	00H
	DB	00H
	DB	01H
	DB	00H
	DB	00H
	DB	00H
	DB	021H
	DB	00H
	DB	00H
	DB	00H
	DB	00H
	DB	00H
	DB	021H
	DB	00H
	DB	00H
	DB	00H
	DB	00H
	DB	00H
	DB	021H
	DB	00H
	DB	00H
	DB	00H
	DB	00H
	DB	00H
	DB	00H
	DB	00H
	DB	00H
	DB	00H
	DB	00H
	DB	00H
	DB	00H
	DB	00H
	DB	04dH
	DB	06bH
	DB	0bbH
	DB	0deH
	DB	01cH
	DB	0e7H
	DB	09aH
	DB	0d6H
	DB	0fcH
	DB	0e6H
	DB	0dcH
	DB	0deH
	DB	0bbH
	DB	0d6H
	DB	09bH
	DB	0d6H
	DB	0dcH
	DB	0deH
	DB	0dbH
	DB	0deH
	DB	0bbH
	DB	0d6H
	DB	09bH
	DB	0d6H
	DB	0dcH
	DB	0deH
	DB	09bH
	DB	0d6H
	DB	0dbH
	DB	0deH
	DB	0dcH
	DB	0deH
	DB	0dcH
	DB	0deH
	DB	09bH
	DB	0d6H
	DB	09bH
	DB	0d6H
	DB	09bH
	DB	0d6H
	DB	0dbH
	DB	0deH
	DB	0dcH
	DB	0deH
	DB	0bbH
	DB	0d6H
	DB	0bbH
	DB	0d6H
	DB	0bbH
	DB	0d6H
	DB	0dcH
	DB	0deH
	DB	0bbH
	DB	0d6H
	DB	0bbH
	DB	0deH
	DB	0bbH
	DB	0d6H
	DB	0dbH
	DB	0deH
	DB	0bbH
	DB	0d6H
	DB	0bbH
	DB	0deH
	DB	0bbH
	DB	0d6H
	DB	0bcH
	DB	0d6H
	DB	0dcH
	DB	0deH
	DB	0bbH
	DB	0d6H
	DB	0bbH
	DB	0deH
	DB	0bbH
	DB	0d6H
	DB	0dbH
	DB	0deH
	DB	0dcH
	DB	0deH
	DB	0dbH
	DB	0d6H
	DB	0bbH
	DB	0d6H
	DB	0bbH
	DB	0d6H
	DB	0bbH
	DB	0d6H
	DB	0dcH
	DB	0deH
	DB	0bbH
	DB	0d6H
	DB	0bbH
	DB	0deH
	DB	0bbH
	DB	0deH
	DB	0bbH
	DB	0d6H
	DB	0bbH
	DB	0deH
	DB	0bbH
	DB	0d6H
	DB	0bbH
	DB	0d6H
	DB	0bbH
	DB	0deH
	DB	0bbH
	DB	0d6H
	DB	0bbH
	DB	0d6H
	DB	0bbH
	DB	0d6H
	DB	0bbH
	DB	0d6H
	DB	0bbH
	DB	0d6H
	DB	0dbH
	DB	0deH
	DB	0bbH
	DB	0d6H
	DB	0bbH
	DB	0d6H
	DB	0bbH
	DB	0deH
	DB	0dbH
	DB	0deH
	DB	0bbH
	DB	0d6H
	DB	0dbH
	DB	0deH
	DB	0bbH
	DB	0d6H
	DB	0dcH
	DB	0deH
	DB	0dbH
	DB	0deH
	DB	0bbH
	DB	0d6H
	DB	0bbH
	DB	0deH
	DB	0bbH
	DB	0d6H
	DB	0bbH
	DB	0d6H
	DB	0bbH
	DB	0d6H
	DB	0dcH
	DB	0deH
	DB	0bbH
	DB	0d6H
	DB	0dbH
	DB	0deH
	DB	0dbH
	DB	0d6H
	DB	0bcH
	DB	0deH
	DB	0bbH
	DB	0d6H
	DB	0dbH
	DB	0deH
	DB	0dcH
	DB	0d6H
	DB	0bbH
	DB	0d6H
	DB	0dcH
	DB	0deH
	DB	0bcH
	DB	0d6H
	DB	0bbH
	DB	0d6H
	DB	0dcH
	DB	0deH
	DB	0dbH
	DB	0deH
	DB	0bcH
	DB	0deH
	DB	0dbH
	DB	0deH
	DB	0bbH
	DB	0deH
	DB	0bbH
	DB	0d6H
	DB	0dbH
	DB	0deH
	DB	0dbH
	DB	0deH
	DB	0dbH
	DB	0deH
	DB	0bbH
	DB	0deH
	DB	0bbH
	DB	0d6H
	DB	0dbH
	DB	0deH
	DB	0bbH
	DB	0d6H
	DB	0dcH
	DB	0deH
	DB	0bcH
	DB	0deH
	DB	0dbH
	DB	0d6H
	DB	0dcH
	DB	0deH
	DB	0bbH
	DB	0deH
	DB	0dcH
	DB	0deH
	DB	0bbH
	DB	0d6H
	DB	0dcH
	DB	0d6H
	DB	0dbH
	DB	0deH
	DB	0bcH
	DB	0d6H
	DB	0dbH
	DB	0deH
	DB	0bbH
	DB	0deH
	DB	0dbH
	DB	0deH
	DB	0bbH
	DB	0d6H
	DB	0bbH
	DB	0d6H
	DB	0bbH
	DB	0d6H
	DB	0bbH
	DB	0deH
	DB	0dbH
	DB	0deH
	DB	0dbH
	DB	0deH
	DB	0bbH
	DB	0deH
	DB	0bbH
	DB	0d6H
	DB	01dH
	DB	0e7H
	DB	06eH
	DB	06bH
	DB	00H
	DB	00H
	DB	06aH
	DB	052H
	DB	03dH
	DB	0e7H
	DB	07aH
	DB	0ceH
	DB	086H
	DB	031H
	DB	02dH
	DB	063H
	DB	0d3H
	DB	09cH
	DB	0b7H
	DB	0bdH
	DB	07aH
	DB	0d6H
	DB	087H
	DB	031H
	DB	00H
	DB	00H
	DB	093H
	DB	094H
	DB	0dcH
	DB	0deH
	DB	09bH
	DB	0d6H
	DB	0bbH
	DB	0deH
	DB	0bbH
	DB	0deH
	DB	0bbH
	DB	0d6H
	DB	0bbH
	DB	0d6H
	DB	0bbH
	DB	0d6H
	DB	0bbH
	DB	0d6H
	DB	0bbH
	DB	0d6H
	DB	0bbH
	DB	0d6H
	DB	0bbH
	DB	0d6H
	DB	0bbH
	DB	0deH
	DB	0bbH
	DB	0d6H
	DB	0dbH
	DB	0d6H
	DB	0bbH
	DB	0deH
	DB	0bbH
	DB	0deH
	DB	0dbH
	DB	0deH
	DB	0bbH
	DB	0d6H
	DB	0bbH
	DB	0d6H
	DB	0bbH
	DB	0d6H
	DB	0bbH
	DB	0deH
	DB	0bbH
	DB	0deH
	DB	0bbH
	DB	0deH
	DB	0bbH
	DB	0d6H
	DB	0bbH
	DB	0d6H
	DB	0bbH
	DB	0deH
	DB	0bbH
	DB	0d6H
	DB	0bbH
	DB	0d6H
	DB	0bbH
	DB	0d6H
	DB	0bcH
	DB	0deH
	DB	0bbH
	DB	0deH
	DB	0bcH
	DB	0d6H
	DB	0bbH
	DB	0d6H
	DB	0bbH
	DB	0d6H
	DB	01cH
	DB	0e7H
	DB	0d3H
	DB	09cH
	DB	021H
	DB	00H
	DB	00H
	DB	00H
	DB	00H
	DB	00H
	DB	00H
	DB	00H
	DB	00H
	DB	08H
	DB	021H
	DB	08H
	DB	00H
	DB	00H
	DB	00H
	DB	00H
	DB	00H
	DB	00H
	DB	00H
	DB	08H
	DB	00H
	DB	00H
	DB	021H
	DB	00H
	DB	041H
	DB	08H
	DB	041H
	DB	08H
	DB	00H
	DB	00H
	DB	00H
	DB	00H
	DB	020H
	DB	00H
	DB	00H
	DB	00H
	DB	020H
	DB	00H
	DB	00H
	DB	00H
	DB	00H
	DB	00H
	DB	00H
	DB	00H
	DB	01H
	DB	00H
	DB	00H
	DB	00H
	DB	00H
	DB	00H
	DB	00H
	DB	00H
	DB	00H
	DB	00H
	DB	00H
	DB	00H
	DB	00H
	DB	00H
	DB	00H
	DB	00H
	DB	00H
	DB	00H
	DB	00H
	DB	00H
	DB	00H
	DB	00H
	DB	00H
	DB	00H
	DB	00H
	DB	00H
	DB	00H
	DB	00H
	DB	041H
	DB	08H
	DB	00H
	DB	00H
	DB	00H
	DB	00H
	DB	0e8H
	DB	039H
	DB	096H
	DB	0adH
	DB	05dH
	DB	0efH
	DB	07eH
	DB	0efH
	DB	03cH
	DB	0e7H
	DB	01cH
	DB	0e7H
	DB	0dbH
	DB	0deH
	DB	07aH
	DB	0d6H
	DB	07aH
	DB	0ceH
	DB	0fcH
	DB	0deH
	DB	0fcH
	DB	0deH
	DB	0dcH
	DB	0deH
	DB	0dcH
	DB	0deH
	DB	0dbH
	DB	0deH
	DB	0bbH
	DB	0d6H
	DB	0dbH
	DB	0deH
	DB	0fcH
	DB	0deH
	DB	0dbH
	DB	0deH
	DB	0dcH
	DB	0deH
	DB	0bbH
	DB	0d6H
	DB	0bbH
	DB	0d6H
	DB	0bbH
	DB	0deH
	DB	0bbH
	DB	0d6H
	DB	0bbH
	DB	0deH
	DB	0dbH
	DB	0deH
	DB	0bbH
	DB	0d6H
	DB	0bbH
	DB	0d6H
	DB	0bbH
	DB	0deH
	DB	0bbH
	DB	0d6H
	DB	0dcH
	DB	0deH
	DB	0dbH
	DB	0deH
	DB	0bbH
	DB	0d6H
	DB	0bbH
	DB	0deH
	DB	0bbH
	DB	0deH
	DB	0bbH
	DB	0d6H
	DB	0bbH
	DB	0d6H
	DB	0bbH
	DB	0d6H
	DB	0bbH
	DB	0deH
	DB	0bbH
	DB	0d6H
	DB	0dcH
	DB	0deH
	DB	0bbH
	DB	0deH
	DB	0bbH
	DB	0d6H
	DB	0bbH
	DB	0deH
	DB	0dcH
	DB	0deH
	DB	0dbH
	DB	0deH
	DB	0bbH
	DB	0d6H
	DB	0bbH
	DB	0d6H
	DB	0bbH
	DB	0deH
	DB	0dcH
	DB	0deH
	DB	0dbH
	DB	0deH
	DB	0bbH
	DB	0deH
	DB	0bbH
	DB	0d6H
	DB	0bbH
	DB	0deH
	DB	0dbH
	DB	0deH
	DB	0bbH
	DB	0deH
	DB	0bbH
	DB	0deH
	DB	0dcH
	DB	0deH
	DB	0bbH
	DB	0d6H
	DB	0bbH
	DB	0deH
	DB	0dcH
	DB	0deH
	DB	0bbH
	DB	0d6H
	DB	0bbH
	DB	0d6H
	DB	0bbH
	DB	0d6H
	DB	0dcH
	DB	0deH
	DB	0bbH
	DB	0d6H
	DB	0bbH
	DB	0deH
	DB	0bbH
	DB	0d6H
	DB	0bbH
	DB	0d6H
	DB	0dcH
	DB	0deH
	DB	0bbH
	DB	0deH
	DB	0dbH
	DB	0deH
	DB	0dcH
	DB	0deH
	DB	0bbH
	DB	0d6H
	DB	0bbH
	DB	0deH
	DB	0dbH
	DB	0deH
	DB	0bbH
	DB	0deH
	DB	0dbH
	DB	0d6H
	DB	0bbH
	DB	0deH
	DB	0dbH
	DB	0deH
	DB	0bbH
	DB	0deH
	DB	0dbH
	DB	0deH
	DB	0dbH
	DB	0d6H
	DB	0bbH
	DB	0deH
	DB	0dbH
	DB	0deH
	DB	0bbH
	DB	0d6H
	DB	0bbH
	DB	0d6H
	DB	0bbH
	DB	0d6H
	DB	0dbH
	DB	0deH
	DB	0bbH
	DB	0d6H
	DB	0dcH
	DB	0deH
	DB	0bbH
	DB	0deH
	DB	0bcH
	DB	0d6H
	DB	0dbH
	DB	0deH
	DB	0dbH
	DB	0d6H
	DB	0bcH
	DB	0deH
	DB	0bbH
	DB	0d6H
	DB	0dbH
	DB	0deH
	DB	0bbH
	DB	0d6H
	DB	0bbH
	DB	0d6H
	DB	0dbH
	DB	0deH
	DB	0bbH
	DB	0d6H
	DB	0bbH
	DB	0d6H
	DB	0dbH
	DB	0deH
	DB	0bcH
	DB	0deH
	DB	0bbH
	DB	0deH
	DB	0dbH
	DB	0d6H
	DB	0bbH
	DB	0deH
	DB	0dbH
	DB	0d6H
	DB	0bbH
	DB	0d6H
	DB	0bbH
	DB	0d6H
	DB	0bbH
	DB	0deH
	DB	0bbH
	DB	0deH
	DB	0dbH
	DB	0deH
	DB	0bbH
	DB	0d6H
	DB	0bbH
	DB	0d6H
	DB	09bH
	DB	0d6H
	DB	0bbH
	DB	0d6H
	DB	0bbH
	DB	0deH
	DB	03dH
	DB	0e7H
	DB	0d0H
	DB	07bH
	DB	021H
	DB	08H
	DB	06aH
	DB	052H
	DB	03dH
	DB	0efH
	DB	039H
	DB	0ceH
	DB	046H
	DB	029H
	DB	087H
	DB	031H
	DB	04eH
	DB	06bH
	DB	03dH
	DB	0efH
	DB	0f8H
	DB	0c5H
	DB	0c8H
	DB	039H
	DB	042H
	DB	08H
	DB	093H
	DB	094H
	DB	01cH
	DB	0e7H
	DB	0bbH
	DB	0deH
	DB	0dcH
	DB	0deH
	DB	0bbH
	DB	0deH
	DB	0bbH
	DB	0d6H
	DB	0bbH
	DB	0d6H
	DB	0dbH
	DB	0deH
	DB	0bbH
	DB	0deH
	DB	0dbH
	DB	0deH
	DB	0bbH
	DB	0d6H
	DB	0bbH
	DB	0deH
	DB	0bbH
	DB	0d6H
	DB	0bbH
	DB	0d6H
	DB	0bbH
	DB	0deH
	DB	0bbH
	DB	0d6H
	DB	0bbH
	DB	0d6H
	DB	0bbH
	DB	0d6H
	DB	0bbH
	DB	0d6H
	DB	0bcH
	DB	0deH
	DB	0dcH
	DB	0deH
	DB	0bbH
	DB	0d6H
	DB	0bbH
	DB	0d6H
	DB	0bbH
	DB	0d6H
	DB	0dcH
	DB	0deH
	DB	0dcH
	DB	0deH
	DB	0dbH
	DB	0deH
	DB	0dbH
	DB	0d6H
	DB	0bbH
	DB	0d6H
	DB	0bbH
	DB	0d6H
	DB	0dcH
	DB	0deH
	DB	0dbH
	DB	0deH
	DB	0dcH
	DB	0deH
	DB	0dcH
	DB	0deH
	DB	0bbH
	DB	0deH
	DB	03dH
	DB	0e7H
	DB	031H
	DB	084H
	DB	00H
	DB	00H
	DB	00H
	DB	00H
	DB	00H
	DB	00H
	DB	00H
	DB	00H
	DB	00H
	DB	00H
	DB	00H
	DB	00H
	DB	00H
	DB	00H
	DB	00H
	DB	00H
	DB	00H
	DB	00H
	DB	00H
	DB	00H
	DB	020H
	DB	00H
	DB	00H
	DB	00H
	DB	021H
	DB	08H
	DB	021H
	DB	00H
	DB	00H
	DB	00H
	DB	00H
	DB	00H
	DB	00H
	DB	00H
	DB	00H
	DB	00H
	DB	00H
	DB	00H
	DB	00H
	DB	00H
	DB	00H
	DB	00H
	DB	00H
	DB	00H
	DB	00H
	DB	00H
	DB	00H
	DB	00H
	DB	00H
	DB	00H
	DB	00H
	DB	00H
	DB	00H
	DB	00H
	DB	00H
	DB	00H
	DB	00H
	DB	00H
	DB	00H
	DB	00H
	DB	00H
	DB	00H
	DB	00H
	DB	00H
	DB	00H
	DB	00H
	DB	00H
	DB	00H
	DB	00H
	DB	00H
	DB	00H
	DB	00H
	DB	00H
	DB	00H
	DB	041H
	DB	08H
	DB	061H
	DB	08H
	DB	00H
	DB	00H
	DB	020H
	DB	00H
	DB	0a2H
	DB	010H
	DB	024H
	DB	021H
	DB	010H
	DB	084H
	DB	07aH
	DB	0ceH
	DB	0dcH
	DB	0deH
	DB	03dH
	DB	0e7H
	DB	03dH
	DB	0e7H
	DB	0bbH
	DB	0deH
	DB	07aH
	DB	0d6H
	DB	09aH
	DB	0d6H
	DB	09bH
	DB	0d6H
	DB	0dbH
	DB	0deH
	DB	07aH
	DB	0ceH
	DB	0dcH
	DB	0deH
	DB	09bH
	DB	0d6H
	DB	0bbH
	DB	0d6H
	DB	0dbH
	DB	0deH
	DB	0bbH
	DB	0d6H
	DB	0dcH
	DB	0deH
	DB	0bbH
	DB	0deH
	DB	0dcH
	DB	0deH
	DB	0dcH
	DB	0deH
	DB	0bbH
	DB	0d6H
	DB	0bbH
	DB	0deH
	DB	0bbH
	DB	0d6H
	DB	0bbH
	DB	0deH
	DB	0dcH
	DB	0deH
	DB	0bbH
	DB	0d6H
	DB	0bbH
	DB	0d6H
	DB	0dbH
	DB	0deH
	DB	0dbH
	DB	0deH
	DB	0dbH
	DB	0deH
	DB	0bbH
	DB	0d6H
	DB	0bbH
	DB	0deH
	DB	0bbH
	DB	0deH
	DB	0bbH
	DB	0d6H
	DB	0bbH
	DB	0d6H
	DB	0dbH
	DB	0deH
	DB	0bcH
	DB	0deH
	DB	0bbH
	DB	0d6H
	DB	0bbH
	DB	0d6H
	DB	0bbH
	DB	0d6H
	DB	0dbH
	DB	0deH
	DB	0bbH
	DB	0d6H
	DB	0dcH
	DB	0deH
	DB	0bbH
	DB	0d6H
	DB	0dbH
	DB	0deH
	DB	0bbH
	DB	0d6H
	DB	0bbH
	DB	0d6H
	DB	0bcH
	DB	0deH
	DB	0dbH
	DB	0d6H
	DB	0dcH
	DB	0deH
	DB	0bbH
	DB	0d6H
	DB	0dbH
	DB	0deH
	DB	0bbH
	DB	0d6H
	DB	0bbH
	DB	0d6H
	DB	0bbH
	DB	0d6H
	DB	0bbH
	DB	0deH
	DB	0dcH
	DB	0deH
	DB	0bbH
	DB	0d6H
	DB	0dbH
	DB	0deH
	DB	0bbH
	DB	0d6H
	DB	0bbH
	DB	0deH
	DB	0bbH
	DB	0d6H
	DB	0dcH
	DB	0deH
	DB	0dbH
	DB	0deH
	DB	0bbH
	DB	0d6H
	DB	0bbH
	DB	0d6H
	DB	0bbH
	DB	0deH
	DB	0bbH
	DB	0d6H
	DB	0bbH
	DB	0d6H
	DB	0dbH
	DB	0deH
	DB	0bcH
	DB	0deH
	DB	0bbH
	DB	0d6H
	DB	0dbH
	DB	0deH
	DB	0dcH
	DB	0d6H
	DB	0bbH
	DB	0deH
	DB	0bbH
	DB	0deH
	DB	0dcH
	DB	0d6H
	DB	0bbH
	DB	0deH
	DB	0dbH
	DB	0deH
	DB	0dcH
	DB	0deH
	DB	0bbH
	DB	0deH
	DB	0dbH
	DB	0d6H
	DB	0bbH
	DB	0d6H
	DB	0dcH
	DB	0deH
	DB	0bbH
	DB	0d6H
	DB	0dbH
	DB	0deH
	DB	0bbH
	DB	0d6H
	DB	0bbH
	DB	0d6H
	DB	0dcH
	DB	0deH
	DB	0bbH
	DB	0deH
	DB	0dbH
	DB	0d6H
	DB	0dcH
	DB	0deH
	DB	0bbH
	DB	0deH
	DB	0dbH
	DB	0deH
	DB	0dcH
	DB	0deH
	DB	0bbH
	DB	0deH
	DB	0bbH
	DB	0d6H
	DB	0dbH
	DB	0deH
	DB	0dbH
	DB	0deH
	DB	0bbH
	DB	0d6H
	DB	0dbH
	DB	0deH
	DB	0bbH
	DB	0deH
	DB	0bbH
	DB	0d6H
	DB	0bbH
	DB	0deH
	DB	0bbH
	DB	0d6H
	DB	0bbH
	DB	0deH
	DB	0bbH
	DB	0d6H
	DB	0bbH
	DB	0deH
	DB	0bbH
	DB	0d6H
	DB	0bbH
	DB	0deH
	DB	0bbH
	DB	0d6H
	DB	0dcH
	DB	0deH
	DB	0dcH
	DB	0deH
	DB	0bbH
	DB	0d6H
	DB	0fcH
	DB	0deH
	DB	010H
	DB	084H
	DB	062H
	DB	010H
	DB	04aH
	DB	04aH
	DB	07aH
	DB	0d6H
	DB	07aH
	DB	0ceH
	DB	0ecH
	DB	062H
	DB	0dH
	DB	063H
	DB	015H
	DB	0a5H
	DB	0dcH
	DB	0deH
	DB	0dcH
	DB	0deH
	DB	066H
	DB	031H
	DB	01H
	DB	00H
	DB	0b3H
	DB	09cH
	DB	0fcH
	DB	0e6H
	DB	09bH
	DB	0d6H
	DB	09bH
	DB	0d6H
	DB	0bbH
	DB	0deH
	DB	0bbH
	DB	0deH
	DB	0bbH
	DB	0deH
	DB	0bbH
	DB	0d6H
	DB	0dbH
	DB	0deH
	DB	0bbH
	DB	0deH
	DB	0bbH
	DB	0d6H
	DB	0bbH
	DB	0d6H
	DB	0bbH
	DB	0d6H
	DB	0bbH
	DB	0d6H
	DB	0bbH
	DB	0deH
	DB	0bcH
	DB	0d6H
	DB	0bbH
	DB	0deH
	DB	0bbH
	DB	0d6H
	DB	0bbH
	DB	0d6H
	DB	0bbH
	DB	0deH
	DB	0bbH
	DB	0deH
	DB	0bbH
	DB	0d6H
	DB	0bbH
	DB	0d6H
	DB	0bbH
	DB	0d6H
	DB	0bbH
	DB	0d6H
	DB	0bbH
	DB	0d6H
	DB	0bbH
	DB	0d6H
	DB	0bbH
	DB	0d6H
	DB	0bcH
	DB	0deH
	DB	0bbH
	DB	0d6H
	DB	0bbH
	DB	0d6H
	DB	0bbH
	DB	0d6H
	DB	0bbH
	DB	0d6H
	DB	0bbH
	DB	0deH
	DB	0bbH
	DB	0d6H
	DB	0fcH
	DB	0e6H
	DB	0b2H
	DB	094H
	DB	00H
	DB	00H
	DB	021H
	DB	08H
	DB	021H
	DB	08H
	DB	00H
	DB	00H
	DB	020H
	DB	00H
	DB	00H
	DB	00H
	DB	00H
	DB	00H
	DB	021H
	DB	00H
	DB	00H
	DB	08H
	DB	00H
	DB	00H
	DB	020H
	DB	00H
	DB	021H
	DB	08H
	DB	021H
	DB	00H
	DB	00H
	DB	00H
	DB	00H
	DB	00H
	DB	00H
	DB	00H
	DB	020H
	DB	08H
	DB	020H
	DB	08H
	DB	00H
	DB	00H
	DB	00H
	DB	00H
	DB	01H
	DB	00H
	DB	020H
	DB	00H
	DB	00H
	DB	00H
	DB	00H
	DB	00H
	DB	01H
	DB	00H
	DB	00H
	DB	00H
	DB	00H
	DB	00H
	DB	00H
	DB	00H
	DB	00H
	DB	00H
	DB	00H
	DB	00H
	DB	00H
	DB	00H
	DB	00H
	DB	00H
	DB	00H
	DB	00H
	DB	00H
	DB	00H
	DB	00H
	DB	00H
	DB	00H
	DB	00H
	DB	020H
	DB	00H
	DB	021H
	DB	00H
	DB	021H
	DB	08H
	DB	062H
	DB	010H
	DB	020H
	DB	00H
	DB	00H
	DB	00H
	DB	00H
	DB	00H
	DB	00H
	DB	00H
	DB	021H
	DB	08H
	DB	0e8H
	DB	039H
	DB	011H
	DB	084H
	DB	015H
	DB	0a5H
	DB	0dbH
	DB	0deH
	DB	05dH
	DB	0efH
	DB	0fcH
	DB	0deH
	DB	0bbH
	DB	0d6H
	DB	0dcH
	DB	0deH
	DB	0fcH
	DB	0deH
	DB	0bbH
	DB	0deH
	DB	0dcH
	DB	0deH
	DB	0bbH
	DB	0d6H
	DB	0dcH
	DB	0deH
	DB	0bbH
	DB	0deH
	DB	0dcH
	DB	0d6H
	DB	0bbH
	DB	0d6H
	DB	0dbH
	DB	0deH
	DB	0bbH
	DB	0d6H
	DB	0bbH
	DB	0d6H
	DB	0dcH
	DB	0deH
	DB	0dbH
	DB	0deH
	DB	0dbH
	DB	0d6H
	DB	0bbH
	DB	0deH
	DB	0bbH
	DB	0d6H
	DB	0bbH
	DB	0d6H
	DB	0bbH
	DB	0d6H
	DB	0dcH
	DB	0deH
	DB	0bbH
	DB	0d6H
	DB	0dbH
	DB	0deH
	DB	0dcH
	DB	0deH
	DB	0bbH
	DB	0d6H
	DB	0bbH
	DB	0deH
	DB	0bbH
	DB	0d6H
	DB	0dbH
	DB	0deH
	DB	0bbH
	DB	0d6H
	DB	0dbH
	DB	0deH
	DB	0bbH
	DB	0deH
	DB	0bbH
	DB	0deH
	DB	0dcH
	DB	0deH
	DB	0bbH
	DB	0deH
	DB	0dbH
	DB	0deH
	DB	0bbH
	DB	0d6H
	DB	0bbH
	DB	0d6H
	DB	0bbH
	DB	0deH
	DB	0bbH
	DB	0d6H
	DB	0bbH
	DB	0d6H
	DB	0bbH
	DB	0deH
	DB	0bbH
	DB	0d6H
	DB	0bbH
	DB	0d6H
	DB	0dcH
	DB	0deH
	DB	0bbH
	DB	0deH
	DB	0bbH
	DB	0deH
	DB	0dbH
	DB	0deH
	DB	0bbH
	DB	0d6H
	DB	0dbH
	DB	0deH
	DB	0bbH
	DB	0deH
	DB	0bbH
	DB	0d6H
	DB	0dcH
	DB	0deH
	DB	0dbH
	DB	0deH
	DB	0bbH
	DB	0deH
	DB	0bbH
	DB	0d6H
	DB	0bbH
	DB	0deH
	DB	0bbH
	DB	0d6H
	DB	0bbH
	DB	0deH
	DB	0bbH
	DB	0d6H
	DB	0bbH
	DB	0deH
	DB	0dcH
	DB	0deH
	DB	0bbH
	DB	0d6H
	DB	0bbH
	DB	0d6H
	DB	0dcH
	DB	0deH
	DB	0bbH
	DB	0d6H
	DB	0bbH
	DB	0deH
	DB	0dcH
	DB	0d6H
	DB	0dbH
	DB	0d6H
	DB	0bbH
	DB	0deH
	DB	0bcH
	DB	0d6H
	DB	0dbH
	DB	0d6H
	DB	0bbH
	DB	0deH
	DB	0dcH
	DB	0deH
	DB	0dbH
	DB	0deH
	DB	0bcH
	DB	0deH
	DB	0bbH
	DB	0deH
	DB	0dbH
	DB	0deH
	DB	0bcH
	DB	0d6H
	DB	0bbH
	DB	0deH
	DB	0dbH
	DB	0deH
	DB	0bbH
	DB	0d6H
	DB	0bbH
	DB	0deH
	DB	0dbH
	DB	0deH
	DB	0bcH
	DB	0d6H
	DB	0bbH
	DB	0deH
	DB	0dbH
	DB	0d6H
	DB	0bcH
	DB	0deH
	DB	0dbH
	DB	0deH
	DB	0bcH
	DB	0d6H
	DB	0bbH
	DB	0d6H
	DB	0bbH
	DB	0deH
	DB	0bbH
	DB	0d6H
	DB	0dcH
	DB	0d6H
	DB	0dcH
	DB	0deH
	DB	0bbH
	DB	0deH
	DB	0dbH
	DB	0d6H
	DB	0dbH
	DB	0deH
	DB	0bbH
	DB	0d6H
	DB	0bbH
	DB	0deH
	DB	0dcH
	DB	0d6H
	DB	0dcH
	DB	0deH
	DB	0bbH
	DB	0d6H
	DB	0bbH
	DB	0d6H
	DB	0bbH
	DB	0deH
	DB	0dbH
	DB	0deH
	DB	0dbH
	DB	0deH
	DB	0dcH
	DB	0deH
	DB	0f0H
	DB	083H
	DB	0e4H
	DB	018H
	DB	02dH
	DB	06bH
	DB	0fcH
	DB	0deH
	DB	09bH
	DB	0d6H
	DB	07aH
	DB	0d6H
	DB	039H
	DB	0ceH
	DB	0bbH
	DB	0d6H
	DB	01cH
	DB	0e7H
	DB	059H
	DB	0ceH
	DB	08fH
	DB	073H
	DB	0cH
	DB	063H
	DB	097H
	DB	0b5H
	DB	0dcH
	DB	0deH
	DB	0dcH
	DB	0deH
	DB	0bbH
	DB	0d6H
	DB	0dbH
	DB	0deH
	DB	0dcH
	DB	0deH
	DB	0bbH
	DB	0d6H
	DB	0dbH
	DB	0deH
	DB	0bbH
	DB	0d6H
	DB	0bbH
	DB	0d6H
	DB	0bbH
	DB	0deH
	DB	0bbH
	DB	0deH
	DB	0dbH
	DB	0deH
	DB	0bbH
	DB	0deH
	DB	0bbH
	DB	0d6H
	DB	0dcH
	DB	0deH
	DB	0bbH
	DB	0deH
	DB	0bbH
	DB	0deH
	DB	0bbH
	DB	0d6H
	DB	0bcH
	DB	0deH
	DB	0bbH
	DB	0d6H
	DB	0bbH
	DB	0deH
	DB	0dcH
	DB	0deH
	DB	0bbH
	DB	0d6H
	DB	09bH
	DB	0d6H
	DB	09bH
	DB	0d6H
	DB	0bbH
	DB	0d6H
	DB	0dbH
	DB	0d6H
	DB	0dcH
	DB	0deH
	DB	0dcH
	DB	0deH
	DB	0bbH
	DB	0deH
	DB	0bbH
	DB	0d6H
	DB	0bbH
	DB	0d6H
	DB	0bbH
	DB	0d6H
	DB	09bH
	DB	0d6H
	DB	0dcH
	DB	0deH
	DB	014H
	DB	0a5H
	DB	00H
	DB	00H
	DB	021H
	DB	00H
	DB	01H
	DB	08H
	DB	00H
	DB	00H
	DB	021H
	DB	08H
	DB	021H
	DB	08H
	DB	020H
	DB	08H
	DB	00H
	DB	00H
	DB	00H
	DB	00H
	DB	00H
	DB	00H
	DB	00H
	DB	00H
	DB	01H
	DB	00H
	DB	021H
	DB	08H
	DB	021H
	DB	08H
	DB	020H
	DB	00H
	DB	00H
	DB	00H
	DB	00H
	DB	00H
	DB	021H
	DB	08H
	DB	00H
	DB	00H
	DB	00H
	DB	00H
	DB	00H
	DB	00H
	DB	01H
	DB	00H
	DB	00H
	DB	00H
	DB	00H
	DB	00H
	DB	00H
	DB	00H
	DB	01H
	DB	00H
	DB	00H
	DB	00H
	DB	00H
	DB	00H
	DB	00H
	DB	00H
	DB	00H
	DB	00H
	DB	00H
	DB	00H
	DB	00H
	DB	00H
	DB	00H
	DB	00H
	DB	00H
	DB	00H
	DB	00H
	DB	00H
	DB	00H
	DB	00H
	DB	00H
	DB	00H
	DB	00H
	DB	00H
	DB	00H
	DB	00H
	DB	00H
	DB	00H
	DB	021H
	DB	08H
	DB	041H
	DB	08H
	DB	00H
	DB	00H
	DB	020H
	DB	00H
	DB	020H
	DB	00H
	DB	00H
	DB	00H
	DB	00H
	DB	00H
	DB	041H
	DB	08H
	DB	04aH
	DB	04aH
	DB	0b3H
	DB	094H
	DB	0fcH
	DB	0deH
	DB	0fcH
	DB	0e6H
	DB	07aH
	DB	0d6H
	DB	0bbH
	DB	0d6H
	DB	0bbH
	DB	0d6H
	DB	09bH
	DB	0d6H
	DB	0dcH
	DB	0deH
	DB	09aH
	DB	0d6H
	DB	0bbH
	DB	0d6H
	DB	0bbH
	DB	0d6H
	DB	0dcH
	DB	0deH
	DB	0bbH
	DB	0deH
	DB	0dbH
	DB	0deH
	DB	0bbH
	DB	0d6H
	DB	0bbH
	DB	0deH
	DB	0bbH
	DB	0d6H
	DB	0bcH
	DB	0deH
	DB	0bbH
	DB	0d6H
	DB	0bbH
	DB	0deH
	DB	0dbH
	DB	0deH
	DB	0dcH
	DB	0deH
	DB	0bbH
	DB	0d6H
	DB	0bbH
	DB	0d6H
	DB	0bbH
	DB	0d6H
	DB	0bbH
	DB	0deH
	DB	0bbH
	DB	0d6H
	DB	0bbH
	DB	0d6H
	DB	0dcH
	DB	0deH
	DB	0dbH
	DB	0deH
	DB	0bbH
	DB	0d6H
	DB	0bbH
	DB	0d6H
	DB	0dcH
	DB	0deH
	DB	0dbH
	DB	0deH
	DB	0bbH
	DB	0d6H
	DB	0bbH
	DB	0d6H
	DB	0bbH
	DB	0d6H
	DB	0bbH
	DB	0deH
	DB	0bbH
	DB	0deH
	DB	0dcH
	DB	0deH
	DB	0bbH
	DB	0d6H
	DB	0dbH
	DB	0deH
	DB	0dcH
	DB	0deH
	DB	0bbH
	DB	0d6H
	DB	0bbH
	DB	0deH
	DB	0dbH
	DB	0deH
	DB	0bbH
	DB	0d6H
	DB	0bbH
	DB	0d6H
	DB	0dcH
	DB	0deH
	DB	0dbH
	DB	0d6H
	DB	0bbH
	DB	0deH
	DB	0bbH
	DB	0d6H
	DB	0bbH
	DB	0d6H
	DB	0dcH
	DB	0deH
	DB	0bbH
	DB	0deH
	DB	0bbH
	DB	0d6H
	DB	0bbH
	DB	0d6H
	DB	0dcH
	DB	0deH
	DB	0bbH
	DB	0d6H
	DB	0dbH
	DB	0deH
	DB	0bbH
	DB	0d6H
	DB	0bbH
	DB	0deH
	DB	0dbH
	DB	0deH
	DB	0dbH
	DB	0d6H
	DB	0bbH
	DB	0deH
	DB	0bbH
	DB	0d6H
	DB	0dbH
	DB	0deH
	DB	0bbH
	DB	0deH
	DB	0bbH
	DB	0deH
	DB	0dbH
	DB	0deH
	DB	0bbH
	DB	0deH
	DB	0dbH
	DB	0deH
	DB	0bbH
	DB	0d6H
	DB	0bbH
	DB	0d6H
	DB	0dbH
	DB	0deH
	DB	0bbH
	DB	0d6H
	DB	0dbH
	DB	0d6H
	DB	0dbH
	DB	0deH
	DB	0bbH
	DB	0deH
	DB	0dbH
	DB	0d6H
	DB	0dcH
	DB	0deH
	DB	0bbH
	DB	0d6H
	DB	0dbH
	DB	0deH
	DB	0bcH
	DB	0deH
	DB	0dbH
	DB	0d6H
	DB	0dbH
	DB	0deH
	DB	0bbH
	DB	0d6H
	DB	0dbH
	DB	0deH
	DB	0bbH
	DB	0d6H
	DB	0dbH
	DB	0deH
	DB	0dbH
	DB	0deH
	DB	0bcH
	DB	0deH
	DB	0dbH
	DB	0deH
	DB	0bbH
	DB	0deH
	DB	0bbH
	DB	0d6H
	DB	0dbH
	DB	0deH
	DB	0bbH
	DB	0deH
	DB	0bcH
	DB	0d6H
	DB	0bbH
	DB	0d6H
	DB	0bbH
	DB	0deH
	DB	0bbH
	DB	0d6H
	DB	0bbH
	DB	0d6H
	DB	0bbH
	DB	0deH
	DB	0bbH
	DB	0deH
	DB	0dbH
	DB	0deH
	DB	0bbH
	DB	0d6H
	DB	09bH
	DB	0d6H
	DB	09aH
	DB	0d6H
	DB	0dcH
	DB	0deH
	DB	09bH
	DB	0d6H
	DB	0b7H
	DB	0bdH
	DB	05aH
	DB	0ceH
	DB	03dH
	DB	0e7H
	DB	0bbH
	DB	0d6H
	DB	01cH
	DB	0dfH
	DB	07aH
	DB	0ceH
	DB	0bbH
	DB	0d6H
	DB	0fcH
	DB	0deH
	DB	09bH
	DB	0ceH
	DB	01cH
	DB	0dfH
	DB	0dbH
	DB	0d6H
	DB	0bbH
	DB	0d6H
	DB	0dbH
	DB	0d6H
	DB	0bbH
	DB	0d6H
	DB	09aH
	DB	0ceH
	DB	0dcH
	DB	0deH
	DB	0bbH
	DB	0d6H
	DB	0bbH
	DB	0d6H
	DB	0bbH
	DB	0d6H
	DB	0bcH
	DB	0deH
	DB	0bbH
	DB	0d6H
	DB	0bbH
	DB	0d6H
	DB	0bbH
	DB	0deH
	DB	0bbH
	DB	0d6H
	DB	0bbH
	DB	0d6H
	DB	0bbH
	DB	0deH
	DB	0bbH
	DB	0d6H
	DB	0bbH
	DB	0d6H
	DB	0bbH
	DB	0d6H
	DB	0dbH
	DB	0deH
	DB	0dbH
	DB	0deH
	DB	0bbH
	DB	0d6H
	DB	0bbH
	DB	0d6H
	DB	0dbH
	DB	0deH
	DB	0bbH
	DB	0d6H
	DB	0bbH
	DB	0d6H
	DB	0bbH
	DB	0d6H
	DB	0bbH
	DB	0deH
	DB	0bbH
	DB	0d6H
	DB	0dcH
	DB	0deH
	DB	0bbH
	DB	0d6H
	DB	0bbH
	DB	0d6H
	DB	0bbH
	DB	0d6H
	DB	0bcH
	DB	0deH
	DB	0dbH
	DB	0deH
	DB	0bbH
	DB	0deH
	DB	01dH
	DB	0e7H
	DB	0d4H
	DB	09cH
	DB	082H
	DB	010H
	DB	061H
	DB	08H
	DB	00H
	DB	00H
	DB	020H
	DB	00H
	DB	021H
	DB	08H
	DB	021H
	DB	08H
	DB	021H
	DB	08H
	DB	00H
	DB	00H
	DB	00H
	DB	00H
	DB	01H
	DB	00H
	DB	021H
	DB	00H
	DB	021H
	DB	00H
	DB	021H
	DB	00H
	DB	00H
	DB	00H
	DB	021H
	DB	08H
	DB	041H
	DB	08H
	DB	00H
	DB	00H
	DB	020H
	DB	00H
	DB	00H
	DB	00H
	DB	00H
	DB	00H
	DB	00H
	DB	00H
	DB	00H
	DB	00H
	DB	020H
	DB	08H
	DB	00H
	DB	00H
	DB	00H
	DB	00H
	DB	00H
	DB	00H
	DB	00H
	DB	00H
	DB	020H
	DB	00H
	DB	00H
	DB	00H
	DB	00H
	DB	00H
	DB	00H
	DB	00H
	DB	00H
	DB	00H
	DB	00H
	DB	00H
	DB	00H
	DB	00H
	DB	00H
	DB	00H
	DB	00H
	DB	00H
	DB	00H
	DB	00H
	DB	00H
	DB	00H
	DB	021H
	DB	08H
	DB	041H
	DB	08H
	DB	00H
	DB	00H
	DB	00H
	DB	00H
	DB	020H
	DB	00H
	DB	021H
	DB	08H
	DB	020H
	DB	00H
	DB	020H
	DB	00H
	DB	021H
	DB	08H
	DB	020H
	DB	00H
	DB	00H
	DB	00H
	DB	041H
	DB	08H
	DB	0aaH
	DB	052H
	DB	079H
	DB	0ceH
	DB	0fbH
	DB	0deH
	DB	0dbH
	DB	0deH
	DB	0bbH
	DB	0d6H
	DB	0bbH
	DB	0deH
	DB	09bH
	DB	0d6H
	DB	0bbH
	DB	0d6H
	DB	0bbH
	DB	0d6H
	DB	0bbH
	DB	0deH
	DB	0bbH
	DB	0deH
	DB	0bbH
	DB	0d6H
	DB	0bbH
	DB	0d6H
	DB	0dbH
	DB	0deH
	DB	0bbH
	DB	0deH
	DB	0bbH
	DB	0d6H
	DB	0bbH
	DB	0d6H
	DB	0bbH
	DB	0d6H
	DB	0bbH
	DB	0deH
	DB	0bbH
	DB	0d6H
	DB	0bbH
	DB	0deH
	DB	0dbH
	DB	0deH
	DB	0bbH
	DB	0d6H
	DB	0bbH
	DB	0deH
	DB	0dcH
	DB	0deH
	DB	0bbH
	DB	0d6H
	DB	0bbH
	DB	0d6H
	DB	0dbH
	DB	0deH
	DB	0bcH
	DB	0deH
	DB	0dbH
	DB	0deH
	DB	0bbH
	DB	0d6H
	DB	0bbH
	DB	0deH
	DB	0dcH
	DB	0d6H
	DB	0bbH
	DB	0d6H
	DB	0bbH
	DB	0deH
	DB	0bbH
	DB	0d6H
	DB	0dcH
	DB	0deH
	DB	0dbH
	DB	0deH
	DB	0bbH
	DB	0d6H
	DB	0dcH
	DB	0deH
	DB	0bbH
	DB	0d6H
	DB	0bbH
	DB	0deH
	DB	0bbH
	DB	0d6H
	DB	0dbH
	DB	0deH
	DB	0bbH
	DB	0d6H
	DB	0bbH
	DB	0d6H
	DB	0bbH
	DB	0deH
	DB	0bcH
	DB	0deH
	DB	0dbH
	DB	0deH
	DB	0dcH
	DB	0d6H
	DB	0bbH
	DB	0deH
	DB	0bbH
	DB	0d6H
	DB	0dbH
	DB	0deH
	DB	0dbH
	DB	0deH
	DB	0bbH
	DB	0d6H
	DB	0bbH
	DB	0deH
	DB	0dcH
	DB	0deH
	DB	0bbH
	DB	0d6H
	DB	0bbH
	DB	0d6H
	DB	0bbH
	DB	0d6H
	DB	0bbH
	DB	0d6H
	DB	0dcH
	DB	0deH
	DB	0dbH
	DB	0deH
	DB	0bbH
	DB	0d6H
	DB	0dcH
	DB	0deH
	DB	0bbH
	DB	0d6H
	DB	0bbH
	DB	0d6H
	DB	0dcH
	DB	0deH
	DB	0bbH
	DB	0d6H
	DB	0dcH
	DB	0deH
	DB	0dbH
	DB	0deH
	DB	0bcH
	DB	0deH
	DB	0dbH
	DB	0deH
	DB	0bbH
	DB	0d6H
	DB	0bcH
	DB	0deH
	DB	0bbH
	DB	0d6H
	DB	0dcH
	DB	0deH
	DB	0bbH
	DB	0d6H
	DB	0bbH
	DB	0deH
	DB	0dbH
	DB	0deH
	DB	0bbH
	DB	0d6H
	DB	0dbH
	DB	0deH
	DB	0bcH
	DB	0d6H
	DB	0bbH
	DB	0deH
	DB	0dbH
	DB	0deH
	DB	0dcH
	DB	0deH
	DB	0bbH
	DB	0d6H
	DB	0bbH
	DB	0deH
	DB	0dcH
	DB	0d6H
	DB	0bbH
	DB	0deH
	DB	0bbH
	DB	0d6H
	DB	0dbH
	DB	0d6H
	DB	0dcH
	DB	0deH
	DB	0bbH
	DB	0deH
	DB	0dbH
	DB	0d6H
	DB	0dbH
	DB	0deH
	DB	0bbH
	DB	0d6H
	DB	0dbH
	DB	0deH
	DB	0dbH
	DB	0deH
	DB	0bbH
	DB	0d6H
	DB	0dbH
	DB	0deH
	DB	0bbH
	DB	0d6H
	DB	0bbH
	DB	0d6H
	DB	0dbH
	DB	0deH
	DB	0bbH
	DB	0d6H
	DB	0bbH
	DB	0d6H
	DB	0dcH
	DB	0deH
	DB	0bbH
	DB	0d6H
	DB	0dbH
	DB	0deH
	DB	0fcH
	DB	0deH
	DB	0fcH
	DB	0e6H
	DB	09bH
	DB	0d6H
	DB	0fcH
	DB	0deH
	DB	09aH
	DB	0d6H
	DB	0dcH
	DB	0d6H
	DB	0bbH
	DB	0d6H
	DB	0bbH
	DB	0d6H
	DB	0bbH
	DB	0d6H
	DB	0fcH
	DB	0deH
	DB	0bbH
	DB	0d6H
	DB	0fcH
	DB	0deH
	DB	09aH
	DB	0ceH
	DB	0dbH
	DB	0d6H
	DB	0dbH
	DB	0d6H
	DB	0fcH
	DB	0d6H
	DB	0bbH
	DB	0deH
	DB	0dbH
	DB	0deH
	DB	09bH
	DB	0d6H
	DB	0bbH
	DB	0deH
	DB	09bH
	DB	0d6H
	DB	0bbH
	DB	0d6H
	DB	09bH
	DB	0d6H
	DB	0bbH
	DB	0d6H
	DB	0bbH
	DB	0d6H
	DB	0bbH
	DB	0d6H
	DB	09bH
	DB	0d6H
	DB	0dbH
	DB	0deH
	DB	0bbH
	DB	0deH
	DB	0bbH
	DB	0d6H
	DB	09bH
	DB	0d6H
	DB	0dcH
	DB	0deH
	DB	0bbH
	DB	0deH
	DB	0bbH
	DB	0d6H
	DB	0dcH
	DB	0deH
	DB	0dcH
	DB	0deH
	DB	0dbH
	DB	0deH
	DB	0bbH
	DB	0d6H
	DB	0dcH
	DB	0deH
	DB	0bbH
	DB	0d6H
	DB	0bbH
	DB	0d6H
	DB	0bbH
	DB	0deH
	DB	0bcH
	DB	0deH
	DB	09bH
	DB	0d6H
	DB	0bbH
	DB	0d6H
	DB	0bbH
	DB	0deH
	DB	0fcH
	DB	0e6H
	DB	0d4H
	DB	09cH
	DB	0a7H
	DB	039H
	DB	025H
	DB	029H
	DB	01H
	DB	00H
	DB	021H
	DB	08H
	DB	00H
	DB	00H
	DB	01H
	DB	00H
	DB	021H
	DB	00H
	DB	00H
	DB	00H
	DB	0e4H
	DB	018H
	DB	09H
	DB	042H
	DB	0aaH
	DB	052H
	DB	0ecH
	DB	05aH
	DB	0cbH
	DB	052H
	DB	04H
	DB	019H
	DB	00H
	DB	00H
	DB	021H
	DB	00H
	DB	020H
	DB	00H
	DB	00H
	DB	00H
	DB	00H
	DB	00H
	DB	020H
	DB	08H
	DB	021H
	DB	08H
	DB	020H
	DB	00H
	DB	00H
	DB	00H
	DB	00H
	DB	00H
	DB	00H
	DB	00H
	DB	020H
	DB	00H
	DB	00H
	DB	08H
	DB	00H
	DB	00H
	DB	00H
	DB	00H
	DB	020H
	DB	08H
	DB	00H
	DB	00H
	DB	00H
	DB	00H
	DB	00H
	DB	00H
	DB	00H
	DB	00H
	DB	00H
	DB	00H
	DB	00H
	DB	00H
	DB	00H
	DB	00H
	DB	00H
	DB	00H
	DB	020H
	DB	00H
	DB	021H
	DB	00H
	DB	00H
	DB	00H
	DB	020H
	DB	08H
	DB	021H
	DB	08H
	DB	00H
	DB	00H
	DB	00H
	DB	00H
	DB	00H
	DB	00H
	DB	020H
	DB	00H
	DB	020H
	DB	00H
	DB	041H
	DB	08H
	DB	020H
	DB	00H
	DB	00H
	DB	00H
	DB	06aH
	DB	04aH
	DB	059H
	DB	0ceH
	DB	01cH
	DB	0e7H
	DB	0fcH
	DB	0deH
	DB	09aH
	DB	0d6H
	DB	0fcH
	DB	0deH
	DB	09bH
	DB	0d6H
	DB	0dbH
	DB	0deH
	DB	0bbH
	DB	0d6H
	DB	0bbH
	DB	0d6H
	DB	0bbH
	DB	0d6H
	DB	0bbH
	DB	0deH
	DB	0dcH
	DB	0deH
	DB	0bbH
	DB	0d6H
	DB	0bbH
	DB	0d6H
	DB	0bbH
	DB	0deH
	DB	0dbH
	DB	0deH
	DB	0bbH
	DB	0d6H
	DB	0dcH
	DB	0deH
	DB	0bbH
	DB	0deH
	DB	0bbH
	DB	0d6H
	DB	0dcH
	DB	0deH
	DB	0bbH
	DB	0deH
	DB	0bbH
	DB	0d6H
	DB	0dbH
	DB	0deH
	DB	0dbH
	DB	0deH
	DB	0bbH
	DB	0deH
	DB	0bbH
	DB	0d6H
	DB	0dcH
	DB	0deH
	DB	0bbH
	DB	0deH
	DB	0bbH
	DB	0d6H
	DB	0bbH
	DB	0d6H
	DB	0dbH
	DB	0deH
	DB	0dbH
	DB	0deH
	DB	0bcH
	DB	0deH
	DB	0bbH
	DB	0d6H
	DB	0bbH
	DB	0d6H
	DB	0dbH
	DB	0deH
	DB	0bbH
	DB	0d6H
	DB	0dcH
	DB	0deH
	DB	0bbH
	DB	0d6H
	DB	0bbH
	DB	0deH
	DB	0dcH
	DB	0deH
	DB	0bbH
	DB	0d6H
	DB	0dbH
	DB	0deH
	DB	0bbH
	DB	0d6H
	DB	0bbH
	DB	0deH
	DB	0dbH
	DB	0d6H
	DB	0bbH
	DB	0deH
	DB	0dcH
	DB	0deH
	DB	0bbH
	DB	0deH
	DB	0bbH
	DB	0d6H
	DB	0dcH
	DB	0deH
	DB	0bbH
	DB	0d6H
	DB	0dbH
	DB	0deH
	DB	0dbH
	DB	0deH
	DB	0bbH
	DB	0deH
	DB	0dcH
	DB	0deH
	DB	0dbH
	DB	0deH
	DB	0bbH
	DB	0deH
	DB	0bbH
	DB	0d6H
	DB	0bbH
	DB	0d6H
	DB	0dcH
	DB	0deH
	DB	0bbH
	DB	0deH
	DB	0dbH
	DB	0deH
	DB	0dcH
	DB	0deH
	DB	0bbH
	DB	0d6H
	DB	0dbH
	DB	0d6H
	DB	0bbH
	DB	0deH
	DB	0bcH
	DB	0d6H
	DB	0dbH
	DB	0deH
	DB	0dbH
	DB	0deH
	DB	0dcH
	DB	0deH
	DB	0bbH
	DB	0deH
	DB	0dbH
	DB	0deH
	DB	0bbH
	DB	0d6H
	DB	0bbH
	DB	0d6H
	DB	0dcH
	DB	0deH
	DB	0bbH
	DB	0deH
	DB	0dbH
	DB	0d6H
	DB	0bcH
	DB	0deH
	DB	0dbH
	DB	0deH
	DB	0bbH
	DB	0d6H
	DB	0bbH
	DB	0deH
	DB	0dcH
	DB	0d6H
	DB	0bbH
	DB	0deH
	DB	0dbH
	DB	0deH
	DB	0dcH
	DB	0d6H
	DB	0bbH
	DB	0deH
	DB	0bbH
	DB	0deH
	DB	0dbH
	DB	0d6H
	DB	0bcH
	DB	0deH
	DB	0bbH
	DB	0deH
	DB	0dcH
	DB	0d6H
	DB	0bbH
	DB	0deH
	DB	0dbH
	DB	0deH
	DB	0bbH
	DB	0d6H
	DB	0bbH
	DB	0d6H
	DB	0bbH
	DB	0deH
	DB	0bbH
	DB	0d6H
	DB	0bbH
	DB	0deH
	DB	0bbH
	DB	0d6H
	DB	0bbH
	DB	0deH
	DB	0bbH
	DB	0d6H
	DB	0bbH
	DB	0deH
	DB	0dbH
	DB	0deH
	DB	0dbH
	DB	0d6H
	DB	0bbH
	DB	0deH
	DB	0bbH
	DB	0d6H
	DB	0dcH
	DB	0deH
	DB	07aH
	DB	0ceH
	DB	0fcH
	DB	0deH
	DB	09aH
	DB	0d6H
	DB	0bbH
	DB	0d6H
	DB	0dbH
	DB	0d6H
	DB	01cH
	DB	0e7H
	DB	0bbH
	DB	0d6H
	DB	0dbH
	DB	0d6H
	DB	0dbH
	DB	0deH
	DB	0bbH
	DB	0d6H
	DB	0bbH
	DB	0d6H
	DB	0dbH
	DB	0deH
	DB	0bbH
	DB	0d6H
	DB	0bbH
	DB	0d6H
	DB	0bbH
	DB	0d6H
	DB	09aH
	DB	0d6H
	DB	0fcH
	DB	0deH
	DB	0dbH
	DB	0deH
	DB	09bH
	DB	0d6H
	DB	0bbH
	DB	0d6H
	DB	0bbH
	DB	0d6H
	DB	0dcH
	DB	0deH
	DB	0bbH
	DB	0deH
	DB	0bbH
	DB	0d6H
	DB	0fcH
	DB	0deH
	DB	0dbH
	DB	0deH
	DB	0bbH
	DB	0d6H
	DB	07aH
	DB	0ceH
	DB	0bbH
	DB	0d6H
	DB	0fcH
	DB	0deH
	DB	0bbH
	DB	0deH
	DB	0dbH
	DB	0deH
	DB	09bH
	DB	0d6H
	DB	09bH
	DB	0d6H
	DB	0dcH
	DB	0deH
	DB	07aH
	DB	0d6H
	DB	0bbH
	DB	0deH
	DB	0bbH
	DB	0d6H
	DB	0dcH
	DB	0deH
	DB	0dbH
	DB	0deH
	DB	0bbH
	DB	0d6H
	DB	0bbH
	DB	0d6H
	DB	0bbH
	DB	0d6H
	DB	0bbH
	DB	0d6H
	DB	03dH
	DB	0e7H
	DB	0b3H
	DB	094H
	DB	0a7H
	DB	031H
	DB	066H
	DB	029H
	DB	083H
	DB	010H
	DB	041H
	DB	00H
	DB	021H
	DB	00H
	DB	021H
	DB	00H
	DB	041H
	DB	00H
	DB	082H
	DB	08H
	DB	08eH
	DB	06bH
	DB	0b2H
	DB	08cH
	DB	051H
	DB	084H
	DB	092H
	DB	084H
	DB	072H
	DB	084H
	DB	08eH
	DB	06bH
	DB	065H
	DB	021H
	DB	020H
	DB	00H
	DB	021H
	DB	00H
	DB	021H
	DB	00H
	DB	020H
	DB	00H
	DB	020H
	DB	08H
	DB	021H
	DB	00H
	DB	00H
	DB	00H
	DB	00H
	DB	00H
	DB	00H
	DB	00H
	DB	00H
	DB	00H
	DB	00H
	DB	00H
	DB	00H
	DB	00H
	DB	00H
	DB	00H
	DB	00H
	DB	00H
	DB	01H
	DB	00H
	DB	020H
	DB	00H
	DB	00H
	DB	00H
	DB	00H
	DB	00H
	DB	00H
	DB	00H
	DB	00H
	DB	00H
	DB	00H
	DB	00H
	DB	00H
	DB	00H
	DB	00H
	DB	00H
	DB	00H
	DB	00H
	DB	00H
	DB	00H
	DB	00H
	DB	00H
	DB	00H
	DB	00H
	DB	00H
	DB	00H
	DB	00H
	DB	00H
	DB	00H
	DB	00H
	DB	00H
	DB	00H
	DB	00H
	DB	00H
	DB	00H
	DB	00H
	DB	020H
	DB	00H
	DB	020H
	DB	00H
	DB	021H
	DB	00H
	DB	00H
	DB	00H
	DB	0e7H
	DB	039H
	DB	0f8H
	DB	0c5H
	DB	01dH
	DB	0e7H
	DB	0bbH
	DB	0d6H
	DB	09bH
	DB	0d6H
	DB	0bbH
	DB	0d6H
	DB	0bbH
	DB	0deH
	DB	0bbH
	DB	0deH
	DB	0bbH
	DB	0d6H
	DB	0bbH
	DB	0d6H
	DB	0fcH
	DB	0deH
	DB	0bbH
	DB	0d6H
	DB	0bbH
	DB	0d6H
	DB	0dbH
	DB	0deH
	DB	0bbH
	DB	0deH
	DB	0bbH
	DB	0d6H
	DB	0bbH
	DB	0d6H
	DB	0bbH
	DB	0deH
	DB	0bbH
	DB	0d6H
	DB	0dbH
	DB	0deH
	DB	0dbH
	DB	0deH
	DB	0bbH
	DB	0d6H
	DB	0bbH
	DB	0d6H
	DB	0bbH
	DB	0d6H
	DB	0bcH
	DB	0deH
	DB	0bbH
	DB	0d6H
	DB	0dbH
	DB	0d6H
	DB	0bbH
	DB	0d6H
	DB	0dbH
	DB	0deH
	DB	0bbH
	DB	0deH
	DB	0bbH
	DB	0deH
	DB	0dbH
	DB	0deH
	DB	0bcH
	DB	0d6H
	DB	0bbH
	DB	0d6H
	DB	0bbH
	DB	0deH
	DB	0dbH
	DB	0deH
	DB	0bbH
	DB	0d6H
	DB	0bbH
	DB	0deH
	DB	0bbH
	DB	0d6H
	DB	0dbH
	DB	0deH
	DB	0dbH
	DB	0deH
	DB	0bbH
	DB	0d6H
	DB	0bbH
	DB	0d6H
	DB	0bbH
	DB	0deH
	DB	0bbH
	DB	0d6H
	DB	0bbH
	DB	0d6H
	DB	0bbH
	DB	0d6H
	DB	0bbH
	DB	0d6H
	DB	0dbH
	DB	0deH
	DB	0bbH
	DB	0d6H
	DB	0bbH
	DB	0d6H
	DB	0dcH
	DB	0deH
	DB	0bbH
	DB	0d6H
	DB	0bbH
	DB	0d6H
	DB	0bbH
	DB	0d6H
	DB	0dbH
	DB	0deH
	DB	0bbH
	DB	0d6H
	DB	0bbH
	DB	0d6H
	DB	0bbH
	DB	0deH
	DB	0bbH
	DB	0d6H
	DB	0bbH
	DB	0deH
	DB	0bbH
	DB	0d6H
	DB	0bbH
	DB	0d6H
	DB	0dbH
	DB	0deH
	DB	0bbH
	DB	0d6H
	DB	0bbH
	DB	0deH
	DB	0dbH
	DB	0deH
	DB	0bbH
	DB	0d6H
	DB	0dbH
	DB	0deH
	DB	0bbH
	DB	0d6H
	DB	0bbH
	DB	0d6H
	DB	0dbH
	DB	0d6H
	DB	0dbH
	DB	0deH
	DB	0bcH
	DB	0deH
	DB	0dbH
	DB	0deH
	DB	0dbH
	DB	0deH
	DB	0bcH
	DB	0d6H
	DB	0dbH
	DB	0deH
	DB	0bbH
	DB	0deH
	DB	0dbH
	DB	0d6H
	DB	0dbH
	DB	0deH
	DB	0bbH
	DB	0deH
	DB	0dcH
	DB	0d6H
	DB	0bbH
	DB	0d6H
	DB	0bbH
	DB	0deH
	DB	0dbH
	DB	0deH
	DB	0bbH
	DB	0d6H
	DB	0dbH
	DB	0deH
	DB	0dbH
	DB	0deH
	DB	0bbH
	DB	0d6H
	DB	0bbH
	DB	0d6H
	DB	0dbH
	DB	0deH
	DB	0bbH
	DB	0deH
	DB	0bcH
	DB	0d6H
	DB	0dbH
	DB	0deH
	DB	0bbH
	DB	0deH
	DB	0bbH
	DB	0d6H
	DB	0bcH
	DB	0deH
	DB	0dcH
	DB	0deH
	DB	0dbH
	DB	0deH
	DB	0bbH
	DB	0d6H
	DB	0dcH
	DB	0deH
	DB	0bbH
	DB	0d6H
	DB	0dcH
	DB	0deH
	DB	0bbH
	DB	0deH
	DB	09aH
	DB	0d6H
	DB	0dcH
	DB	0deH
	DB	0bbH
	DB	0d6H
	DB	0dbH
	DB	0deH
	DB	09aH
	DB	0d6H
	DB	0dbH
	DB	0deH
	DB	0dbH
	DB	0d6H
	DB	0dcH
	DB	0deH
	DB	09bH
	DB	0d6H
	DB	09aH
	DB	0d6H
	DB	0bbH
	DB	0d6H
	DB	09aH
	DB	0d6H
	DB	0dbH
	DB	0d6H
	DB	09bH
	DB	0d6H
	DB	0dbH
	DB	0d6H
	DB	0dbH
	DB	0d6H
	DB	0bbH
	DB	0deH
	DB	0fcH
	DB	0deH
	DB	0bbH
	DB	0d6H
	DB	0dcH
	DB	0deH
	DB	0bbH
	DB	0deH
	DB	0dbH
	DB	0deH
	DB	0fcH
	DB	0deH
	DB	0bbH
	DB	0deH
	DB	0dbH
	DB	0deH
	DB	0dbH
	DB	0deH
	DB	0bbH
	DB	0d6H
	DB	0bbH
	DB	0d6H
	DB	0fcH
	DB	0deH
	DB	0bbH
	DB	0d6H
	DB	0dcH
	DB	0deH
	DB	0dcH
	DB	0deH
	DB	0dbH
	DB	0deH
	DB	09bH
	DB	0d6H
	DB	09aH
	DB	0ceH
	DB	0bbH
	DB	0d6H
	DB	0dcH
	DB	0deH
	DB	09aH
	DB	0d6H
	DB	0fcH
	DB	0deH
	DB	0bbH
	DB	0d6H
	DB	0dbH
	DB	0deH
	DB	0bbH
	DB	0d6H
	DB	0dbH
	DB	0deH
	DB	0bbH
	DB	0d6H
	DB	0bbH
	DB	0deH
	DB	0dcH
	DB	0deH
	DB	0bcH
	DB	0deH
	DB	09bH
	DB	0d6H
	DB	01dH
	DB	0e7H
	DB	052H
	DB	08cH
	DB	049H
	DB	042H
	DB	0cfH
	DB	073H
	DB	06aH
	DB	042H
	DB	082H
	DB	08H
	DB	01H
	DB	00H
	DB	021H
	DB	00H
	DB	020H
	DB	00H
	DB	08H
	DB	032H
	DB	011H
	DB	07cH
	DB	0b3H
	DB	08cH
	DB	031H
	DB	07cH
	DB	072H
	DB	084H
	DB	051H
	DB	07cH
	DB	0b2H
	DB	084H
	DB	0cfH
	DB	073H
	DB	045H
	DB	021H
	DB	020H
	DB	00H
	DB	082H
	DB	08H
	DB	021H
	DB	00H
	DB	00H
	DB	00H
	DB	00H
	DB	00H
	DB	00H
	DB	00H
	DB	021H
	DB	00H
	DB	021H
	DB	08H
	DB	00H
	DB	00H
	DB	00H
	DB	00H
	DB	00H
	DB	00H
	DB	00H
	DB	00H
	DB	00H
	DB	00H
	DB	00H
	DB	00H
	DB	00H
	DB	00H
	DB	00H
	DB	00H
	DB	00H
	DB	00H
	DB	00H
	DB	00H
	DB	00H
	DB	00H
	DB	00H
	DB	00H
	DB	00H
	DB	00H
	DB	00H
	DB	00H
	DB	00H
	DB	00H
	DB	00H
	DB	00H
	DB	00H
	DB	00H
	DB	00H
	DB	00H
	DB	00H
	DB	00H
	DB	00H
	DB	00H
	DB	00H
	DB	00H
	DB	00H
	DB	00H
	DB	00H
	DB	00H
	DB	00H
	DB	00H
	DB	00H
	DB	00H
	DB	00H
	DB	00H
	DB	041H
	DB	08H
	DB	041H
	DB	08H
	DB	00H
	DB	00H
	DB	09H
	DB	042H
	DB	0f8H
	DB	0bdH
	DB	0fcH
	DB	0e6H
	DB	0bbH
	DB	0d6H
	DB	0fcH
	DB	0deH
	DB	09aH
	DB	0d6H
	DB	07aH
	DB	0ceH
	DB	0dcH
	DB	0deH
	DB	0fcH
	DB	0deH
	DB	09bH
	DB	0d6H
	DB	0bbH
	DB	0deH
	DB	0bbH
	DB	0deH
	DB	0bbH
	DB	0d6H
	DB	0bbH
	DB	0d6H
	DB	0bcH
	DB	0d6H
	DB	0bbH
	DB	0deH
	DB	0bbH
	DB	0d6H
	DB	0bbH
	DB	0d6H
	DB	0bbH
	DB	0d6H
	DB	0bbH
	DB	0d6H
	DB	0bbH
	DB	0deH
	DB	0bbH
	DB	0deH
	DB	0bbH
	DB	0d6H
	DB	0bbH
	DB	0d6H
	DB	0dbH
	DB	0deH
	DB	0bbH
	DB	0d6H
	DB	0bbH
	DB	0deH
	DB	0dcH
	DB	0deH
	DB	0dbH
	DB	0d6H
	DB	0bbH
	DB	0d6H
	DB	0bcH
	DB	0deH
	DB	0bbH
	DB	0d6H
	DB	0dbH
	DB	0deH
	DB	0bbH
	DB	0d6H
	DB	0bbH
	DB	0d6H
	DB	0bbH
	DB	0deH
	DB	0bbH
	DB	0d6H
	DB	0dbH
	DB	0deH
	DB	0bbH
	DB	0d6H
	DB	0bbH
	DB	0d6H
	DB	0dcH
	DB	0deH
	DB	0dbH
	DB	0deH
	DB	0bcH
	DB	0deH
	DB	0bbH
	DB	0deH
	DB	0dcH
	DB	0deH
	DB	0bbH
	DB	0deH
	DB	0dbH
	DB	0deH
	DB	0bbH
	DB	0d6H
	DB	0bbH
	DB	0deH
	DB	0bbH
	DB	0deH
	DB	0bbH
	DB	0d6H
	DB	0dbH
	DB	0deH
	DB	0bbH
	DB	0deH
	DB	0bbH
	DB	0d6H
	DB	0dcH
	DB	0deH
	DB	0bbH
	DB	0d6H
	DB	0bbH
	DB	0deH
	DB	0dcH
	DB	0deH
	DB	0dbH
	DB	0deH
	DB	0dbH
	DB	0deH
	DB	0bcH
	DB	0deH
	DB	0bbH
	DB	0d6H
	DB	0bbH
	DB	0deH
	DB	0bbH
	DB	0d6H
	DB	0bbH
	DB	0d6H
	DB	0dcH
	DB	0deH
	DB	0dbH
	DB	0deH
	DB	0bcH
	DB	0deH
	DB	0dbH
	DB	0deH
	DB	0bcH
	DB	0d6H
	DB	0bbH
	DB	0deH
	DB	0dbH
	DB	0d6H
	DB	0bcH
	DB	0d6H
	DB	0bbH
	DB	0deH
	DB	0dbH
	DB	0deH
	DB	0bbH
	DB	0d6H
	DB	0bbH
	DB	0deH
	DB	0dcH
	DB	0deH
	DB	0bbH
	DB	0d6H
	DB	0bbH
	DB	0deH
	DB	0dcH
	DB	0deH
	DB	0dbH
	DB	0d6H
	DB	0bbH
	DB	0deH
	DB	0dbH
	DB	0deH
	DB	0bcH
	DB	0d6H
	DB	0bbH
	DB	0deH
	DB	0dcH
	DB	0d6H
	DB	0bbH
	DB	0deH
	DB	0bcH
	DB	0deH
	DB	0dbH
	DB	0d6H
	DB	0dbH
	DB	0deH
	DB	0bbH
	DB	0deH
	DB	0dbH
	DB	0d6H
	DB	0bbH
	DB	0deH
	DB	0dbH
	DB	0deH
	DB	0bbH
	DB	0d6H
	DB	0bbH
	DB	0d6H
	DB	0dbH
	DB	0deH
	DB	0dbH
	DB	0deH
	DB	0dcH
	DB	0deH
	DB	0bbH
	DB	0d6H
	DB	0dbH
	DB	0deH
	DB	0dcH
	DB	0deH
	DB	09bH
	DB	0d6H
	DB	0dcH
	DB	0deH
	DB	09aH
	DB	0d6H
	DB	0bbH
	DB	0d6H
	DB	0bbH
	DB	0deH
	DB	0dcH
	DB	0deH
	DB	09bH
	DB	0d6H
	DB	0bbH
	DB	0d6H
	DB	0dcH
	DB	0deH
	DB	07aH
	DB	0d6H
	DB	09aH
	DB	0d6H
	DB	0fcH
	DB	0deH
	DB	0fcH
	DB	0deH
	DB	07aH
	DB	0ceH
	DB	0dcH
	DB	0d6H
	DB	0dcH
	DB	0deH
	DB	09bH
	DB	0d6H
	DB	0bbH
	DB	0d6H
	DB	0dbH
	DB	0d6H
	DB	07aH
	DB	0ceH
	DB	0fcH
	DB	0deH
	DB	09aH
	DB	0d6H
	DB	09bH
	DB	0d6H
	DB	07aH
	DB	0ceH
	DB	0dcH
	DB	0deH
	DB	09bH
	DB	0d6H
	DB	0bbH
	DB	0deH
	DB	0dcH
	DB	0deH
	DB	0fcH
	DB	0deH
	DB	0dbH
	DB	0deH
	DB	09bH
	DB	0d6H
	DB	09bH
	DB	0d6H
	DB	0bbH
	DB	0d6H
	DB	0bbH
	DB	0d6H
	DB	0bbH
	DB	0deH
	DB	0dbH
	DB	0deH
	DB	0bbH
	DB	0d6H
	DB	0dbH
	DB	0deH
	DB	09aH
	DB	0d6H
	DB	0bbH
	DB	0d6H
	DB	0dbH
	DB	0deH
	DB	0dbH
	DB	0deH
	DB	0dcH
	DB	0deH
	DB	09bH
	DB	0d6H
	DB	09bH
	DB	0d6H
	DB	0bbH
	DB	0deH
	DB	0dbH
	DB	0deH
	DB	0bbH
	DB	0d6H
	DB	0bbH
	DB	0d6H
	DB	01cH
	DB	0dfH
	DB	092H
	DB	08cH
	DB	049H
	DB	03aH
	DB	092H
	DB	084H
	DB	0cH
	DB	053H
	DB	066H
	DB	021H
	DB	065H
	DB	019H
	DB	06aH
	DB	042H
	DB	0ecH
	DB	04aH
	DB	051H
	DB	07cH
	DB	071H
	DB	07cH
	DB	072H
	DB	07cH
	DB	031H
	DB	074H
	DB	050H
	DB	074H
	DB	091H
	DB	074H
	DB	051H
	DB	07cH
	DB	0b2H
	DB	084H
	DB	010H
	DB	07cH
	DB	0c7H
	DB	031H
	DB	00H
	DB	00H
	DB	020H
	DB	00H
	DB	041H
	DB	08H
	DB	020H
	DB	08H
	DB	020H
	DB	00H
	DB	020H
	DB	08H
	DB	00H
	DB	00H
	DB	00H
	DB	00H
	DB	00H
	DB	00H
	DB	00H
	DB	00H
	DB	00H
	DB	00H
	DB	00H
	DB	00H
	DB	00H
	DB	00H
	DB	00H
	DB	08H
	DB	00H
	DB	00H
	DB	00H
	DB	00H
	DB	00H
	DB	00H
	DB	00H
	DB	00H
	DB	00H
	DB	00H
	DB	00H
	DB	00H
	DB	00H
	DB	00H
	DB	00H
	DB	00H
	DB	00H
	DB	00H
	DB	00H
	DB	00H
	DB	00H
	DB	00H
	DB	00H
	DB	00H
	DB	00H
	DB	00H
	DB	00H
	DB	00H
	DB	00H
	DB	00H
	DB	020H
	DB	00H
	DB	020H
	DB	00H
	DB	00H
	DB	00H
	DB	021H
	DB	08H
	DB	020H
	DB	00H
	DB	00H
	DB	00H
	DB	061H
	DB	08H
	DB	00H
	DB	00H
	DB	06aH
	DB	04aH
	DB	0dbH
	DB	0deH
	DB	0bbH
	DB	0d6H
	DB	07aH
	DB	0d6H
	DB	0dbH
	DB	0deH
	DB	0dcH
	DB	0deH
	DB	07aH
	DB	0ceH
	DB	0bbH
	DB	0d6H
	DB	09bH
	DB	0d6H
	DB	0dcH
	DB	0deH
	DB	0dbH
	DB	0deH
	DB	0bbH
	DB	0d6H
	DB	0bbH
	DB	0deH
	DB	0bbH
	DB	0d6H
	DB	0dcH
	DB	0deH
	DB	0bbH
	DB	0deH
	DB	0bcH
	DB	0deH
	DB	0dcH
	DB	0deH
	DB	0bbH
	DB	0d6H
	DB	0bcH
	DB	0deH
	DB	0dbH
	DB	0deH
	DB	0dbH
	DB	0deH
	DB	0bbH
	DB	0d6H
	DB	0bcH
	DB	0deH
	DB	0bbH
	DB	0deH
	DB	0bbH
	DB	0d6H
	DB	0bbH
	DB	0deH
	DB	0dcH
	DB	0deH
	DB	0dbH
	DB	0d6H
	DB	0bbH
	DB	0d6H
	DB	0bbH
	DB	0deH
	DB	0bbH
	DB	0deH
	DB	0dcH
	DB	0deH
	DB	0bbH
	DB	0d6H
	DB	0bbH
	DB	0deH
	DB	0bcH
	DB	0deH
	DB	0bbH
	DB	0d6H
	DB	0dcH
	DB	0deH
	DB	0bbH
	DB	0deH
	DB	0bbH
	DB	0d6H
	DB	0bbH
	DB	0d6H
	DB	0bbH
	DB	0d6H
	DB	0bbH
	DB	0d6H
	DB	0bbH
	DB	0d6H
	DB	0dcH
	DB	0deH
	DB	0bbH
	DB	0d6H
	DB	0bbH
	DB	0d6H
	DB	0bbH
	DB	0deH
	DB	0dcH
	DB	0deH
	DB	0dbH
	DB	0d6H
	DB	0bbH
	DB	0deH
	DB	0bbH
	DB	0d6H
	DB	0bbH
	DB	0deH
	DB	0bbH
	DB	0d6H
	DB	0bbH
	DB	0d6H
	DB	0bbH
	DB	0deH
	DB	0bbH
	DB	0d6H
	DB	0bbH
	DB	0d6H
	DB	0bbH
	DB	0d6H
	DB	0dbH
	DB	0deH
	DB	0dbH
	DB	0deH
	DB	0bbH
	DB	0d6H
	DB	0bbH
	DB	0d6H
	DB	0dcH
	DB	0deH
	DB	0bbH
	DB	0deH
	DB	0bbH
	DB	0d6H
	DB	0dbH
	DB	0d6H
	DB	0dbH
	DB	0deH
	DB	0bcH
	DB	0deH
	DB	0dbH
	DB	0deH
	DB	0dbH
	DB	0deH
	DB	0bbH
	DB	0d6H
	DB	0dbH
	DB	0deH
	DB	0dcH
	DB	0d6H
	DB	0bbH
	DB	0deH
	DB	0dbH
	DB	0d6H
	DB	0dcH
	DB	0deH
	DB	0bbH
	DB	0d6H
	DB	0dbH
	DB	0deH
	DB	0bbH
	DB	0deH
	DB	0bbH
	DB	0d6H
	DB	0dbH
	DB	0deH
	DB	0bcH
	DB	0deH
	DB	0bbH
	DB	0d6H
	DB	0bbH
	DB	0d6H
	DB	0dbH
	DB	0deH
	DB	0bbH
	DB	0deH
	DB	0dbH
	DB	0d6H
	DB	0bcH
	DB	0deH
	DB	0bbH
	DB	0d6H
	DB	0dcH
	DB	0deH
	DB	0dbH
	DB	0deH
	DB	0bbH
	DB	0d6H
	DB	0bbH
	DB	0deH
	DB	0bbH
	DB	0d6H
	DB	0bbH
	DB	0d6H
	DB	0dbH
	DB	0deH
	DB	0bbH
	DB	0d6H
	DB	0bbH
	DB	0d6H
	DB	0bbH
	DB	0d6H
	DB	0bbH
	DB	0deH
	DB	0dbH
	DB	0deH
	DB	07aH
	DB	0ceH
	DB	03dH
	DB	0e7H
	DB	07aH
	DB	0ceH
	DB	01cH
	DB	0e7H
	DB	09bH
	DB	0d6H
	DB	0fcH
	DB	0deH
	DB	0dcH
	DB	0deH
	DB	0fcH
	DB	0e6H
	DB	0fcH
	DB	0e6H
	DB	0dcH
	DB	0e6H
	DB	01cH
	DB	0e7H
	DB	0dbH
	DB	0d6H
	DB	0fcH
	DB	0deH
	DB	0dbH
	DB	0deH
	DB	03dH
	DB	0e7H
	DB	09aH
	DB	0d6H
	DB	0dbH
	DB	0deH
	DB	0fcH
	DB	0deH
	DB	0dbH
	DB	0deH
	DB	0bbH
	DB	0deH
	DB	0bbH
	DB	0d6H
	DB	0dbH
	DB	0deH
	DB	0dbH
	DB	0deH
	DB	0fcH
	DB	0deH
	DB	0bbH
	DB	0d6H
	DB	01dH
	DB	0e7H
	DB	0dbH
	DB	0deH
	DB	0dcH
	DB	0deH
	DB	0fcH
	DB	0deH
	DB	09bH
	DB	0d6H
	DB	0fcH
	DB	0e6H
	DB	01cH
	DB	0e7H
	DB	0dcH
	DB	0deH
	DB	0fcH
	DB	0e6H
	DB	01cH
	DB	0e7H
	DB	03dH
	DB	0e7H
	DB	01dH
	DB	0e7H
	DB	0bbH
	DB	0deH
	DB	07eH
	DB	0efH
	DB	01cH
	DB	0e7H
	DB	01dH
	DB	0e7H
	DB	09aH
	DB	0d6H
	DB	09aH
	DB	0d6H
	DB	0fcH
	DB	0deH
	DB	0bbH
	DB	0deH
	DB	0bbH
	DB	0deH
	DB	09bH
	DB	0d6H
	DB	0bbH
	DB	0d6H
	DB	09bH
	DB	0ceH
	DB	01cH
	DB	0dfH
	DB	092H
	DB	084H
	DB	0a7H
	DB	029H
	DB	072H
	DB	07cH
	DB	051H
	DB	07cH
	DB	052H
	DB	07cH
	DB	051H
	DB	07cH
	DB	093H
	DB	084H
	DB	0d3H
	DB	084H
	DB	093H
	DB	07cH
	DB	031H
	DB	06cH
	DB	030H
	DB	06cH
	DB	0d3H
	DB	084H
	DB	092H
	DB	074H
	DB	051H
	DB	074H
	DB	071H
	DB	074H
	DB	031H
	DB	074H
	DB	0d3H
	DB	08cH
	DB	071H
	DB	084H
	DB	0a6H
	DB	029H
	DB	020H
	DB	00H
	DB	00H
	DB	00H
	DB	021H
	DB	08H
	DB	041H
	DB	08H
	DB	00H
	DB	00H
	DB	00H
	DB	00H
	DB	00H
	DB	00H
	DB	00H
	DB	00H
	DB	00H
	DB	00H
	DB	00H
	DB	00H
	DB	00H
	DB	00H
	DB	020H
	DB	00H
	DB	00H
	DB	00H
	DB	00H
	DB	00H
	DB	00H
	DB	00H
	DB	00H
	DB	00H
	DB	00H
	DB	00H
	DB	00H
	DB	00H
	DB	00H
	DB	00H
	DB	00H
	DB	00H
	DB	00H
	DB	00H
	DB	00H
	DB	00H
	DB	00H
	DB	00H
	DB	00H
	DB	00H
	DB	00H
	DB	00H
	DB	00H
	DB	00H
	DB	00H
	DB	00H
	DB	00H
	DB	00H
	DB	00H
	DB	00H
	DB	00H
	DB	00H
	DB	00H
	DB	00H
	DB	041H
	DB	08H
	DB	041H
	DB	08H
	DB	020H
	DB	00H
	DB	041H
	DB	08H
	DB	00H
	DB	00H
	DB	00H
	DB	00H
	DB	0cH
	DB	063H
	DB	0dcH
	DB	0deH
	DB	0dbH
	DB	0deH
	DB	0bbH
	DB	0d6H
	DB	03dH
	DB	0e7H
	DB	0dbH
	DB	0deH
	DB	0fcH
	DB	0deH
	DB	0bbH
	DB	0deH
	DB	0bbH
	DB	0d6H
	DB	0dbH
	DB	0deH
	DB	0bbH
	DB	0d6H
	DB	0bbH
	DB	0deH
	DB	0bbH
	DB	0deH
	DB	0bbH
	DB	0d6H
	DB	0bbH
	DB	0d6H
	DB	0dbH
	DB	0deH
	DB	0dbH
	DB	0deH
	DB	0dbH
	DB	0d6H
	DB	0bbH
	DB	0d6H
	DB	0bcH
	DB	0d6H
	DB	0bbH
	DB	0deH
	DB	0dbH
	DB	0deH
	DB	0dbH
	DB	0d6H
	DB	0dcH
	DB	0deH
	DB	0bbH
	DB	0deH
	DB	0bbH
	DB	0d6H
	DB	0bbH
	DB	0d6H
	DB	0bbH
	DB	0deH
	DB	0dbH
	DB	0deH
	DB	0dbH
	DB	0d6H
	DB	0bbH
	DB	0d6H
	DB	0bbH
	DB	0deH
	DB	0dbH
	DB	0deH
	DB	0dbH
	DB	0d6H
	DB	0dbH
	DB	0deH
	DB	0dbH
	DB	0deH
	DB	0bbH
	DB	0deH
	DB	0bbH
	DB	0d6H
	DB	0dbH
	DB	0deH
	DB	0dcH
	DB	0deH
	DB	0dbH
	DB	0deH
	DB	0bbH
	DB	0d6H
	DB	0dbH
	DB	0deH
	DB	0bbH
	DB	0d6H
	DB	0bbH
	DB	0deH
	DB	0dcH
	DB	0deH
	DB	0dbH
	DB	0d6H
	DB	0bbH
	DB	0d6H
	DB	0bbH
	DB	0deH
	DB	0bcH
	DB	0deH
	DB	0bbH
	DB	0d6H
	DB	0bbH
	DB	0deH
	DB	0dcH
	DB	0deH
	DB	0dbH
	DB	0deH
	DB	0bbH
	DB	0d6H
	DB	0bbH
	DB	0deH
	DB	0bcH
	DB	0deH
	DB	0bbH
	DB	0d6H
	DB	0dbH
	DB	0deH
	DB	0bcH
	DB	0deH
	DB	0bbH
	DB	0d6H
	DB	0dbH
	DB	0deH
	DB	0dbH
	DB	0deH
	DB	0bbH
	DB	0deH
	DB	0bcH
	DB	0d6H
	DB	0dbH
	DB	0deH
	DB	0bbH
	DB	0deH
	DB	0bbH
	DB	0d6H
	DB	0dbH
	DB	0deH
	DB	0bcH
	DB	0deH
	DB	0bbH
	DB	0deH
	DB	0dbH
	DB	0d6H
	DB	0bcH
	DB	0deH
	DB	0bbH
	DB	0deH
	DB	0dbH
	DB	0d6H
	DB	0bbH
	DB	0deH
	DB	0dcH
	DB	0deH
	DB	0dbH
	DB	0d6H
	DB	0bbH
	DB	0deH
	DB	0dcH
	DB	0d6H
	DB	0dbH
	DB	0deH
	DB	0bbH
	DB	0deH
	DB	0dbH
	DB	0d6H
	DB	0dbH
	DB	0deH
	DB	0bcH
	DB	0deH
	DB	0dbH
	DB	0d6H
	DB	0dbH
	DB	0deH
	DB	0bbH
	DB	0deH
	DB	0dbH
	DB	0d6H
	DB	0bbH
	DB	0d6H
	DB	0bbH
	DB	0deH
	DB	0dbH
	DB	0deH
	DB	0bbH
	DB	0d6H
	DB	0bbH
	DB	0deH
	DB	0bbH
	DB	0deH
	DB	0dcH
	DB	0deH
	DB	0bbH
	DB	0deH
	DB	0bbH
	DB	0d6H
	DB	0bbH
	DB	0deH
	DB	0dcH
	DB	0deH
	DB	07aH
	DB	0ceH
	DB	0fcH
	DB	0deH
	DB	07aH
	DB	0ceH
	DB	03dH
	DB	0e7H
	DB	039H
	DB	0ceH
	DB	07aH
	DB	0ceH
	DB	07aH
	DB	0ceH
	DB	0bbH
	DB	0deH
	DB	019H
	DB	0c6H
	DB	059H
	DB	0ceH
	DB	019H
	DB	0ceH
	DB	07bH
	DB	0d6H
	DB	05aH
	DB	0ceH
	DB	0bbH
	DB	0d6H
	DB	0dbH
	DB	0deH
	DB	09aH
	DB	0d6H
	DB	09bH
	DB	0d6H
	DB	0fcH
	DB	0deH
	DB	09aH
	DB	0d6H
	DB	07bH
	DB	0d6H
	DB	0fcH
	DB	0deH
	DB	09bH
	DB	0d6H
	DB	0dbH
	DB	0deH
	DB	0bbH
	DB	0d6H
	DB	0d7H
	DB	0bdH
	DB	0abH
	DB	052H
	DB	0cbH
	DB	05aH
	DB	0c7H
	DB	039H
	DB	049H
	DB	04aH
	DB	0ecH
	DB	05aH
	DB	0c8H
	DB	039H
	DB	086H
	DB	031H
	DB	0ecH
	DB	05aH
	DB	0afH
	DB	07bH
	DB	052H
	DB	08cH
	DB	0b3H
	DB	094H
	DB	056H
	DB	0adH
	DB	0f8H
	DB	0bdH
	DB	0d7H
	DB	0bdH
	DB	0f8H
	DB	0c5H
	DB	055H
	DB	0adH
	DB	0b7H
	DB	0b5H
	DB	059H
	DB	0ceH
	DB	01cH
	DB	0e7H
	DB	0bbH
	DB	0d6H
	DB	0bbH
	DB	0d6H
	DB	0dbH
	DB	0deH
	DB	0bbH
	DB	0d6H
	DB	0bbH
	DB	0d6H
	DB	0bbH
	DB	0d6H
	DB	03dH
	DB	0dfH
	DB	072H
	DB	084H
	DB	06aH
	DB	03aH
	DB	092H
	DB	07cH
	DB	092H
	DB	07cH
	DB	072H
	DB	074H
	DB	052H
	DB	074H
	DB	051H
	DB	074H
	DB	072H
	DB	074H
	DB	072H
	DB	074H
	DB	092H
	DB	07cH
	DB	072H
	DB	074H
	DB	072H
	DB	074H
	DB	051H
	DB	06cH
	DB	092H
	DB	07cH
	DB	092H
	DB	07cH
	DB	071H
	DB	07cH
	DB	030H
	DB	074H
	DB	092H
	DB	084H
	DB	031H
	DB	07cH
	DB	0c7H
	DB	031H
	DB	00H
	DB	00H
	DB	00H
	DB	00H
	DB	041H
	DB	08H
	DB	00H
	DB	00H
	DB	00H
	DB	00H
	DB	020H
	DB	00H
	DB	00H
	DB	00H
	DB	00H
	DB	00H
	DB	00H
	DB	00H
	DB	00H
	DB	00H
	DB	01H
	DB	00H
	DB	020H
	DB	00H
	DB	00H
	DB	00H
	DB	00H
	DB	00H
	DB	00H
	DB	00H
	DB	00H
	DB	00H
	DB	00H
	DB	00H
	DB	00H
	DB	00H
	DB	00H
	DB	00H
	DB	00H
	DB	00H
	DB	00H
	DB	00H
	DB	00H
	DB	00H
	DB	00H
	DB	00H
	DB	00H
	DB	00H
	DB	00H
	DB	00H
	DB	00H
	DB	00H
	DB	00H
	DB	00H
	DB	020H
	DB	00H
	DB	020H
	DB	00H
	DB	00H
	DB	00H
	DB	020H
	DB	00H
	DB	020H
	DB	00H
	DB	041H
	DB	08H
	DB	041H
	DB	08H
	DB	021H
	DB	00H
	DB	01H
	DB	00H
	DB	00H
	DB	00H
	DB	0dH
	DB	063H
	DB	03dH
	DB	0e7H
	DB	0bbH
	DB	0deH
	DB	019H
	DB	0c6H
	DB	09bH
	DB	0d6H
	DB	0bbH
	DB	0d6H
	DB	0dbH
	DB	0deH
	DB	09bH
	DB	0d6H
	DB	0dbH
	DB	0deH
	DB	0bbH
	DB	0d6H
	DB	0bbH
	DB	0d6H
	DB	0bbH
	DB	0deH
	DB	0bbH
	DB	0d6H
	DB	0dbH
	DB	0d6H
	DB	0bbH
	DB	0deH
	DB	0bbH
	DB	0d6H
	DB	0bbH
	DB	0deH
	DB	0bbH
	DB	0d6H
	DB	0dbH
	DB	0deH
	DB	0bbH
	DB	0d6H
	DB	0bbH
	DB	0d6H
	DB	0bbH
	DB	0d6H
	DB	0dbH
	DB	0deH
	DB	0dbH
	DB	0deH
	DB	0bbH
	DB	0d6H
	DB	0bbH
	DB	0d6H
	DB	0dcH
	DB	0deH
	DB	0bbH
	DB	0deH
	DB	0bbH
	DB	0d6H
	DB	0dcH
	DB	0deH
	DB	0bbH
	DB	0d6H
	DB	0bbH
	DB	0d6H
	DB	0bbH
	DB	0d6H
	DB	0bbH
	DB	0d6H
	DB	0bbH
	DB	0d6H
	DB	0bbH
	DB	0d6H
	DB	0bbH
	DB	0deH
	DB	0dcH
	DB	0deH
	DB	0bbH
	DB	0d6H
	DB	0bbH
	DB	0deH
	DB	0bbH
	DB	0deH
	DB	0dcH
	DB	0deH
	DB	0dbH
	DB	0deH
	DB	0bbH
	DB	0d6H
	DB	0bbH
	DB	0deH
	DB	0bbH
	DB	0d6H
	DB	0bbH
	DB	0d6H
	DB	0dbH
	DB	0deH
	DB	0bbH
	DB	0d6H
	DB	0dbH
	DB	0d6H
	DB	0dbH
	DB	0deH
	DB	0bbH
	DB	0d6H
	DB	0bbH
	DB	0d6H
	DB	0bbH
	DB	0d6H
	DB	0bbH
	DB	0deH
	DB	0bbH
	DB	0d6H
	DB	0dbH
	DB	0deH
	DB	0bcH
	DB	0d6H
	DB	0bbH
	DB	0d6H
	DB	0bbH
	DB	0deH
	DB	0bbH
	DB	0d6H
	DB	0bbH
	DB	0d6H
	DB	0bbH
	DB	0d6H
	DB	0dbH
	DB	0deH
	DB	0bbH
	DB	0d6H
	DB	0bbH
	DB	0d6H
	DB	0dcH
	DB	0deH
	DB	0dbH
	DB	0d6H
	DB	0bbH
	DB	0d6H
	DB	0dcH
	DB	0deH
	DB	0dbH
	DB	0deH
	DB	0bbH
	DB	0d6H
	DB	0dbH
	DB	0deH
	DB	0bbH
	DB	0deH
	DB	0bbH
	DB	0d6H
	DB	0dcH
	DB	0deH
	DB	0bbH
	DB	0deH
	DB	0bbH
	DB	0d6H
	DB	0dcH
	DB	0deH
	DB	0bbH
	DB	0d6H
	DB	0bbH
	DB	0d6H
	DB	0dbH
	DB	0deH
	DB	0bbH
	DB	0deH
	DB	0bcH
	DB	0d6H
	DB	0bbH
	DB	0d6H
	DB	0bbH
	DB	0d6H
	DB	0bbH
	DB	0deH
	DB	0dcH
	DB	0deH
	DB	0bbH
	DB	0d6H
	DB	0dcH
	DB	0deH
	DB	0bbH
	DB	0deH
	DB	0bbH
	DB	0d6H
	DB	0bbH
	DB	0deH
	DB	0dbH
	DB	0d6H
	DB	0dbH
	DB	0deH
	DB	0bcH
	DB	0deH
	DB	0dbH
	DB	0d6H
	DB	0dbH
	DB	0deH
	DB	0dbH
	DB	0deH
	DB	0bbH
	DB	0d6H
	DB	0bbH
	DB	0d6H
	DB	0fcH
	DB	0e6H
	DB	0dH
	DB	063H
	DB	087H
	DB	031H
	DB	066H
	DB	029H
	DB	04aH
	DB	04aH
	DB	0b7H
	DB	0bdH
	DB	0c8H
	DB	041H
	DB	0a3H
	DB	018H
	DB	05H
	DB	029H
	DB	025H
	DB	021H
	DB	086H
	DB	031H
	DB	0e9H
	DB	041H
	DB	0c8H
	DB	039H
	DB	0dH
	DB	063H
	DB	0dcH
	DB	0deH
	DB	0dbH
	DB	0deH
	DB	0dbH
	DB	0deH
	DB	0fdH
	DB	0deH
	DB	09bH
	DB	0d6H
	DB	0fcH
	DB	0deH
	DB	07aH
	DB	0ceH
	DB	0fcH
	DB	0e6H
	DB	08fH
	DB	073H
	DB	04aH
	DB	04aH
	DB	083H
	DB	010H
	DB	00H
	DB	00H
	DB	00H
	DB	00H
	DB	00H
	DB	00H
	DB	00H
	DB	00H
	DB	00H
	DB	00H
	DB	00H
	DB	00H
	DB	00H
	DB	00H
	DB	00H
	DB	00H
	DB	00H
	DB	00H
	DB	00H
	DB	00H
	DB	00H
	DB	00H
	DB	01H
	DB	00H
	DB	00H
	DB	00H
	DB	00H
	DB	00H
	DB	041H
	DB	08H
	DB	09H
	DB	042H
	DB	038H
	DB	0c6H
	DB	0bbH
	DB	0d6H
	DB	0bbH
	DB	0deH
	DB	0dbH
	DB	0deH
	DB	0dbH
	DB	0deH
	DB	0dbH
	DB	0d6H
	DB	0dbH
	DB	0d6H
	DB	05dH
	DB	0dfH
	DB	0f0H
	DB	06bH
	DB	08aH
	DB	042H
	DB	072H
	DB	07cH
	DB	052H
	DB	074H
	DB	051H
	DB	074H
	DB	072H
	DB	074H
	DB	051H
	DB	074H
	DB	072H
	DB	074H
	DB	092H
	DB	074H
	DB	051H
	DB	06cH
	DB	093H
	DB	07cH
	DB	031H
	DB	06cH
	DB	091H
	DB	074H
	DB	092H
	DB	074H
	DB	051H
	DB	074H
	DB	0b2H
	DB	07cH
	DB	092H
	DB	07cH
	DB	051H
	DB	07cH
	DB	072H
	DB	084H
	DB	031H
	DB	07cH
	DB	0a7H
	DB	031H
	DB	00H
	DB	00H
	DB	00H
	DB	00H
	DB	041H
	DB	08H
	DB	021H
	DB	00H
	DB	021H
	DB	00H
	DB	020H
	DB	08H
	DB	00H
	DB	00H
	DB	00H
	DB	00H
	DB	00H
	DB	00H
	DB	00H
	DB	00H
	DB	00H
	DB	00H
	DB	00H
	DB	00H
	DB	00H
	DB	00H
	DB	00H
	DB	00H
	DB	00H
	DB	00H
	DB	00H
	DB	00H
	DB	00H
	DB	00H
	DB	00H
	DB	00H
	DB	00H
	DB	00H
	DB	00H
	DB	00H
	DB	00H
	DB	00H
	DB	00H
	DB	00H
	DB	00H
	DB	00H
	DB	00H
	DB	00H
	DB	00H
	DB	00H
	DB	020H
	DB	00H
	DB	020H
	DB	00H
	DB	00H
	DB	00H
	DB	00H
	DB	00H
	DB	021H
	DB	00H
	DB	00H
	DB	00H
	DB	00H
	DB	00H
	DB	041H
	DB	08H
	DB	021H
	DB	00H
	DB	021H
	DB	00H
	DB	021H
	DB	08H
	DB	00H
	DB	00H
	DB	04dH
	DB	06bH
	DB	09fH
	DB	0f7H
	DB	0bbH
	DB	0d6H
	DB	0fcH
	DB	0e6H
	DB	09aH
	DB	0d6H
	DB	0dbH
	DB	0deH
	DB	09bH
	DB	0d6H
	DB	0bbH
	DB	0d6H
	DB	0bbH
	DB	0d6H
	DB	0bbH
	DB	0deH
	DB	0dbH
	DB	0deH
	DB	0bcH
	DB	0d6H
	DB	0bbH
	DB	0deH
	DB	0dbH
	DB	0deH
	DB	0bbH
	DB	0d6H
	DB	0bbH
	DB	0d6H
	DB	0bbH
	DB	0deH
	DB	0bbH
	DB	0deH
	DB	0bbH
	DB	0d6H
	DB	0dcH
	DB	0deH
	DB	0bbH
	DB	0deH
	DB	0bbH
	DB	0d6H
	DB	0dcH
	DB	0deH
	DB	0bbH
	DB	0d6H
	DB	0dbH
	DB	0deH
	DB	0bbH
	DB	0d6H
	DB	0bbH
	DB	0deH
	DB	0dbH
	DB	0deH
	DB	0bbH
	DB	0d6H
	DB	0bbH
	DB	0d6H
	DB	0dcH
	DB	0deH
	DB	0bbH
	DB	0deH
	DB	0bbH
	DB	0deH
	DB	0bcH
	DB	0d6H
	DB	0bbH
	DB	0deH
	DB	0dbH
	DB	0deH
	DB	0bbH
	DB	0d6H
	DB	0bbH
	DB	0d6H
	DB	0bbH
	DB	0d6H
	DB	0bbH
	DB	0d6H
	DB	0bbH
	DB	0d6H
	DB	0bbH
	DB	0deH
	DB	0dbH
	DB	0deH
	DB	0bbH
	DB	0d6H
	DB	0bbH
	DB	0d6H
	DB	0bbH
	DB	0deH
	DB	0bbH
	DB	0deH
	DB	0dbH
	DB	0deH
	DB	0bbH
	DB	0d6H
	DB	0bcH
	DB	0deH
	DB	0bbH
	DB	0deH
	DB	0bbH
	DB	0d6H
	DB	0bbH
	DB	0deH
	DB	0dcH
	DB	0deH
	DB	0bbH
	DB	0d6H
	DB	0bbH
	DB	0d6H
	DB	0dbH
	DB	0deH
	DB	0dbH
	DB	0deH
	DB	0dbH
	DB	0deH
	DB	0bcH
	DB	0deH
	DB	0bbH
	DB	0d6H
	DB	0bbH
	DB	0deH
	DB	0dcH
	DB	0deH
	DB	0dbH
	DB	0deH
	DB	0bbH
	DB	0deH
	DB	0bcH
	DB	0deH
	DB	0dbH
	DB	0d6H
	DB	0bbH
	DB	0deH
	DB	0bbH
	DB	0deH
	DB	0dbH
	DB	0d6H
	DB	0dcH
	DB	0deH
	DB	0bbH
	DB	0d6H
	DB	0dcH
	DB	0deH
	DB	0dbH
	DB	0d6H
	DB	0bbH
	DB	0deH
	DB	0dbH
	DB	0deH
	DB	0bbH
	DB	0d6H
	DB	0bbH
	DB	0deH
	DB	0dbH
	DB	0deH
	DB	0bcH
	DB	0d6H
	DB	0bbH
	DB	0deH
	DB	0dbH
	DB	0deH
	DB	0dbH
	DB	0deH
	DB	0dbH
	DB	0deH
	DB	0bbH
	DB	0deH
	DB	0dcH
	DB	0d6H
	DB	0bbH
	DB	0d6H
	DB	0bbH
	DB	0deH
	DB	0bbH
	DB	0d6H
	DB	0bbH
	DB	0d6H
	DB	0dbH
	DB	0deH
	DB	0bcH
	DB	0d6H
	DB	0bbH
	DB	0d6H
	DB	0dbH
	DB	0deH
	DB	0bbH
	DB	0d6H
	DB	0bcH
	DB	0d6H
	DB	0bbH
	DB	0d6H
	DB	0dbH
	DB	0deH
	DB	0fcH
	DB	0e6H
	DB	07aH
	DB	0ceH
	DB	07eH
	DB	0efH
	DB	066H
	DB	031H
	DB	082H
	DB	010H
	DB	00H
	DB	00H
	DB	0ecH
	DB	062H
	DB	04dH
	DB	06bH
	DB	066H
	DB	031H
	DB	0c8H
	DB	039H
	DB	049H
	DB	04aH
	DB	045H
	DB	029H
	DB	0e4H
	DB	020H
	DB	00H
	DB	00H
	DB	00H
	DB	00H
	DB	0a7H
	DB	039H
	DB	0fcH
	DB	0deH
	DB	0bbH
	DB	0d6H
	DB	09bH
	DB	0d6H
	DB	07aH
	DB	0d6H
	DB	05aH
	DB	0ceH
	DB	0fcH
	DB	0deH
	DB	09bH
	DB	0d6H
	DB	01dH
	DB	0e7H
	DB	052H
	DB	08cH
	DB	0e4H
	DB	018H
	DB	00H
	DB	00H
	DB	021H
	DB	00H
	DB	00H
	DB	00H
	DB	00H
	DB	00H
	DB	021H
	DB	00H
	DB	00H
	DB	00H
	DB	041H
	DB	08H
	DB	021H
	DB	00H
	DB	00H
	DB	00H
	DB	020H
	DB	08H
	DB	00H
	DB	00H
	DB	00H
	DB	00H
	DB	00H
	DB	00H
	DB	00H
	DB	00H
	DB	062H
	DB	08H
	DB	01H
	DB	00H
	DB	01H
	DB	00H
	DB	0b7H
	DB	0bdH
	DB	01dH
	DB	0e7H
	DB	09aH
	DB	0d6H
	DB	0bbH
	DB	0deH
	DB	09aH
	DB	0d6H
	DB	0bbH
	DB	0d6H
	DB	0dcH
	DB	0deH
	DB	03dH
	DB	0e7H
	DB	08eH
	DB	063H
	DB	0abH
	DB	04aH
	DB	072H
	DB	07cH
	DB	072H
	DB	074H
	DB	072H
	DB	074H
	DB	072H
	DB	07cH
	DB	093H
	DB	07cH
	DB	092H
	DB	07cH
	DB	092H
	DB	074H
	DB	072H
	DB	074H
	DB	092H
	DB	074H
	DB	072H
	DB	074H
	DB	092H
	DB	074H
	DB	051H
	DB	06cH
	DB	052H
	DB	074H
	DB	072H
	DB	074H
	DB	071H
	DB	07cH
	DB	051H
	DB	074H
	DB	031H
	DB	074H
	DB	072H
	DB	07cH
	DB	030H
	DB	07cH
	DB	0e7H
	DB	031H
	DB	021H
	DB	00H
	DB	00H
	DB	00H
	DB	021H
	DB	08H
	DB	020H
	DB	08H
	DB	00H
	DB	00H
	DB	00H
	DB	00H
	DB	00H
	DB	00H
	DB	020H
	DB	00H
	DB	00H
	DB	00H
	DB	00H
	DB	08H
	DB	00H
	DB	00H
	DB	00H
	DB	00H
	DB	00H
	DB	00H
	DB	00H
	DB	00H
	DB	00H
	DB	00H
	DB	00H
	DB	00H
	DB	00H
	DB	00H
	DB	00H
	DB	00H
	DB	00H
	DB	00H
	DB	00H
	DB	00H
	DB	00H
	DB	00H
	DB	00H
	DB	00H
	DB	00H
	DB	00H
	DB	00H
	DB	00H
	DB	00H
	DB	00H
	DB	00H
	DB	00H
	DB	00H
	DB	00H
	DB	00H
	DB	00H
	DB	00H
	DB	00H
	DB	00H
	DB	00H
	DB	00H
	DB	00H
	DB	00H
	DB	00H
	DB	00H
	DB	00H
	DB	00H
	DB	00H
	DB	020H
	DB	00H
	DB	01H
	DB	00H
	DB	00H
	DB	00H
	DB	010H
	DB	084H
	DB	07eH
	DB	0f7H
	DB	09aH
	DB	0d6H
	DB	0dcH
	DB	0deH
	DB	09bH
	DB	0d6H
	DB	0bbH
	DB	0d6H
	DB	0bbH
	DB	0d6H
	DB	0bcH
	DB	0deH
	DB	0bbH
	DB	0deH
	DB	0dcH
	DB	0d6H
	DB	0bbH
	DB	0d6H
	DB	0bbH
	DB	0d6H
	DB	0dcH
	DB	0deH
	DB	0bbH
	DB	0deH
	DB	0bbH
	DB	0d6H
	DB	0dcH
	DB	0deH
	DB	0dcH
	DB	0deH
	DB	0dbH
	DB	0deH
	DB	0bbH
	DB	0d6H
	DB	0bbH
	DB	0deH
	DB	0bbH
	DB	0deH
	DB	0bbH
	DB	0d6H
	DB	0bbH
	DB	0deH
	DB	0bbH
	DB	0deH
	DB	0bbH
	DB	0d6H
	DB	0dcH
	DB	0deH
	DB	0bbH
	DB	0d6H
	DB	0bbH
	DB	0deH
	DB	0bbH
	DB	0d6H
	DB	0bbH
	DB	0deH
	DB	0dbH
	DB	0deH
	DB	0bbH
	DB	0d6H
	DB	0dcH
	DB	0deH
	DB	0dbH
	DB	0deH
	DB	0bbH
	DB	0d6H
	DB	0bbH
	DB	0d6H
	DB	0dcH
	DB	0deH
	DB	0dbH
	DB	0deH
	DB	0dbH
	DB	0deH
	DB	0bbH
	DB	0d6H
	DB	0bbH
	DB	0d6H
	DB	0dcH
	DB	0deH
	DB	0bbH
	DB	0deH
	DB	0dcH
	DB	0deH
	DB	0dbH
	DB	0deH
	DB	0bbH
	DB	0d6H
	DB	0bbH
	DB	0d6H
	DB	0bcH
	DB	0deH
	DB	0dbH
	DB	0deH
	DB	0dbH
	DB	0deH
	DB	0dcH
	DB	0deH
	DB	0bbH
	DB	0d6H
	DB	0bbH
	DB	0d6H
	DB	0dbH
	DB	0deH
	DB	0bbH
	DB	0d6H
	DB	0bcH
	DB	0deH
	DB	0dbH
	DB	0deH
	DB	0bbH
	DB	0d6H
	DB	0dcH
	DB	0deH
	DB	0dbH
	DB	0deH
	DB	0bbH
	DB	0d6H
	DB	0dcH
	DB	0deH
	DB	0bbH
	DB	0d6H
	DB	0dbH
	DB	0deH
	DB	0bbH
	DB	0deH
	DB	0dbH
	DB	0d6H
	DB	0dcH
	DB	0deH
	DB	0bbH
	DB	0deH
	DB	0bbH
	DB	0d6H
	DB	0dbH
	DB	0deH
	DB	0bbH
	DB	0d6H
	DB	0bbH
	DB	0d6H
	DB	0bbH
	DB	0deH
	DB	0bbH
	DB	0d6H
	DB	0dcH
	DB	0d6H
	DB	0dbH
	DB	0deH
	DB	0bbH
	DB	0d6H
	DB	0dbH
	DB	0deH
	DB	0bbH
	DB	0deH
	DB	0dcH
	DB	0d6H
	DB	0bbH
	DB	0d6H
	DB	0dbH
	DB	0deH
	DB	0bcH
	DB	0deH
	DB	0dbH
	DB	0d6H
	DB	0bbH
	DB	0deH
	DB	0dbH
	DB	0deH
	DB	0bbH
	DB	0d6H
	DB	0bbH
	DB	0deH
	DB	0dbH
	DB	0deH
	DB	0bbH
	DB	0deH
	DB	0bbH
	DB	0d6H
	DB	0bbH
	DB	0deH
	DB	0dcH
	DB	0deH
	DB	0bbH
	DB	0d6H
	DB	0bbH
	DB	0deH
	DB	0dbH
	DB	0deH
	DB	0bbH
	DB	0d6H
	DB	07aH
	DB	0ceH
	DB	09aH
	DB	0d6H
	DB	0fcH
	DB	0e6H
	DB	029H
	DB	042H
	DB	00H
	DB	00H
	DB	0dH
	DB	063H
	DB	01cH
	DB	0e7H
	DB	055H
	DB	0adH
	DB	059H
	DB	0ceH
	DB	09aH
	DB	0d6H
	DB	07aH
	DB	0ceH
	DB	076H
	DB	0b5H
	DB	018H
	DB	0c6H
	DB	08aH
	DB	052H
	DB	021H
	DB	08H
	DB	087H
	DB	031H
	DB	0dcH
	DB	0deH
	DB	0bcH
	DB	0deH
	DB	0dcH
	DB	0deH
	DB	0dcH
	DB	0deH
	DB	0dcH
	DB	0deH
	DB	0bbH
	DB	0deH
	DB	0dbH
	DB	0deH
	DB	0dbH
	DB	0deH
	DB	0f4H
	DB	09cH
	DB	0e3H
	DB	018H
	DB	025H
	DB	029H
	DB	04H
	DB	021H
	DB	04H
	DB	021H
	DB	0c3H
	DB	018H
	DB	021H
	DB	00H
	DB	041H
	DB	08H
	DB	00H
	DB	00H
	DB	020H
	DB	00H
	DB	0a2H
	DB	010H
	DB	021H
	DB	08H
	DB	00H
	DB	00H
	DB	01H
	DB	00H
	DB	062H
	DB	08H
	DB	021H
	DB	08H
	DB	01H
	DB	00H
	DB	01H
	DB	00H
	DB	041H
	DB	08H
	DB	096H
	DB	0b5H
	DB	05eH
	DB	0efH
	DB	09bH
	DB	0d6H
	DB	0dbH
	DB	0d6H
	DB	0bbH
	DB	0d6H
	DB	0bbH
	DB	0d6H
	DB	0dbH
	DB	0deH
	DB	01cH
	DB	0dfH
	DB	06eH
	DB	063H
	DB	0ecH
	DB	052H
	DB	092H
	DB	07cH
	DB	052H
	DB	074H
	DB	072H
	DB	074H
	DB	072H
	DB	074H
	DB	092H
	DB	074H
	DB	093H
	DB	07cH
	DB	072H
	DB	074H
	DB	072H
	DB	074H
	DB	072H
	DB	074H
	DB	072H
	DB	074H
	DB	072H
	DB	074H
	DB	072H
	DB	074H
	DB	072H
	DB	074H
	DB	072H
	DB	074H
	DB	072H
	DB	074H
	DB	092H
	DB	07cH
	DB	092H
	DB	07cH
	DB	092H
	DB	074H
	DB	092H
	DB	084H
	DB	051H
	DB	07cH
	DB	0caH
	DB	04aH
	DB	0c2H
	DB	08H
	DB	040H
	DB	00H
	DB	020H
	DB	00H
	DB	00H
	DB	00H
	DB	00H
	DB	00H
	DB	00H
	DB	00H
	DB	00H
	DB	00H
	DB	020H
	DB	00H
	DB	00H
	DB	00H
	DB	00H
	DB	00H
	DB	00H
	DB	00H
	DB	00H
	DB	00H
	DB	00H
	DB	00H
	DB	00H
	DB	00H
	DB	00H
	DB	00H
	DB	00H
	DB	00H
	DB	00H
	DB	00H
	DB	00H
	DB	00H
	DB	00H
	DB	00H
	DB	00H
	DB	00H
	DB	00H
	DB	00H
	DB	00H
	DB	00H
	DB	00H
	DB	00H
	DB	00H
	DB	00H
	DB	00H
	DB	00H
	DB	00H
	DB	00H
	DB	00H
	DB	00H
	DB	00H
	DB	00H
	DB	00H
	DB	00H
	DB	00H
	DB	00H
	DB	00H
	DB	00H
	DB	00H
	DB	00H
	DB	00H
	DB	00H
	DB	00H
	DB	08H
	DB	020H
	DB	00H
	DB	00H
	DB	00H
	DB	082H
	DB	010H
	DB	019H
	DB	0c6H
	DB	01dH
	DB	0e7H
	DB	0bbH
	DB	0d6H
	DB	0bbH
	DB	0deH
	DB	0bbH
	DB	0d6H
	DB	09bH
	DB	0d6H
	DB	0dcH
	DB	0deH
	DB	0dbH
	DB	0deH
	DB	0bbH
	DB	0d6H
	DB	0bbH
	DB	0d6H
	DB	0bbH
	DB	0deH
	DB	0bbH
	DB	0d6H
	DB	0dbH
	DB	0deH
	DB	0dbH
	DB	0deH
	DB	0bbH
	DB	0d6H
	DB	0dbH
	DB	0deH
	DB	0bbH
	DB	0d6H
	DB	0bbH
	DB	0d6H
	DB	0bbH
	DB	0d6H
	DB	0dcH
	DB	0deH
	DB	0bbH
	DB	0d6H
	DB	0dbH
	DB	0deH
	DB	0bbH
	DB	0d6H
	DB	0bcH
	DB	0deH
	DB	0dbH
	DB	0deH
	DB	0bbH
	DB	0d6H
	DB	0bbH
	DB	0deH
	DB	0dcH
	DB	0deH
	DB	0bbH
	DB	0d6H
	DB	0bbH
	DB	0d6H
	DB	0bbH
	DB	0d6H
	DB	0dbH
	DB	0deH
	DB	0bbH
	DB	0d6H
	DB	0bbH
	DB	0deH
	DB	0bbH
	DB	0deH
	DB	0bbH
	DB	0d6H
	DB	0dcH
	DB	0deH
	DB	0dbH
	DB	0deH
	DB	0bcH
	DB	0deH
	DB	0bbH
	DB	0d6H
	DB	0bbH
	DB	0d6H
	DB	0bbH
	DB	0d6H
	DB	0bbH
	DB	0deH
	DB	0bbH
	DB	0d6H
	DB	0bbH
	DB	0d6H
	DB	0bcH
	DB	0deH
	DB	0bbH
	DB	0d6H
	DB	0bbH
	DB	0d6H
	DB	0dbH
	DB	0deH
	DB	0bbH
	DB	0d6H
	DB	0bbH
	DB	0d6H
	DB	0dbH
	DB	0deH
	DB	0bbH
	DB	0d6H
	DB	0bbH
	DB	0deH
	DB	0dbH
	DB	0deH
	DB	0bbH
	DB	0d6H
	DB	0bbH
	DB	0d6H
	DB	0dbH
	DB	0deH
	DB	0bbH
	DB	0d6H
	DB	0bbH
	DB	0d6H
	DB	0dbH
	DB	0deH
	DB	0bbH
	DB	0d6H
	DB	0dcH
	DB	0d6H
	DB	0bbH
	DB	0deH
	DB	0bbH
	DB	0deH
	DB	0dbH
	DB	0d6H
	DB	0bbH
	DB	0d6H
	DB	0dcH
	DB	0deH
	DB	0bbH
	DB	0deH
	DB	0dbH
	DB	0deH
	DB	0bcH
	DB	0deH
	DB	0dbH
	DB	0deH
	DB	0bbH
	DB	0deH
	DB	0bcH
	DB	0deH
	DB	0dbH
	DB	0deH
	DB	0bcH
	DB	0d6H
	DB	0bbH
	DB	0deH
	DB	0dbH
	DB	0deH
	DB	0dcH
	DB	0d6H
	DB	0bbH
	DB	0d6H
	DB	0bbH
	DB	0deH
	DB	0dcH
	DB	0d6H
	DB	0bbH
	DB	0deH
	DB	0bbH
	DB	0deH
	DB	0dcH
	DB	0deH
	DB	0dbH
	DB	0d6H
	DB	0bbH
	DB	0deH
	DB	0dcH
	DB	0deH
	DB	0bbH
	DB	0d6H
	DB	0bbH
	DB	0d6H
	DB	0bbH
	DB	0d6H
	DB	0bcH
	DB	0deH
	DB	0bbH
	DB	0deH
	DB	0bbH
	DB	0d6H
	DB	0bcH
	DB	0deH
	DB	09bH
	DB	0d6H
	DB	0dbH
	DB	0deH
	DB	01cH
	DB	0e7H
	DB	0dbH
	DB	0deH
	DB	029H
	DB	042H
	DB	04H
	DB	021H
	DB	092H
	DB	094H
	DB	07eH
	DB	0f7H
	DB	0dcH
	DB	0deH
	DB	0fcH
	DB	0deH
	DB	0bbH
	DB	0deH
	DB	0bbH
	DB	0d6H
	DB	09aH
	DB	0d6H
	DB	05dH
	DB	0efH
	DB	093H
	DB	094H
	DB	00H
	DB	00H
	DB	0e8H
	DB	039H
	DB	0fcH
	DB	0e6H
	DB	0fdH
	DB	0e6H
	DB	09bH
	DB	0d6H
	DB	05aH
	DB	0ceH
	DB	0fcH
	DB	0deH
	DB	0bbH
	DB	0d6H
	DB	07aH
	DB	0ceH
	DB	01dH
	DB	0e7H
	DB	0dbH
	DB	0deH
	DB	0bbH
	DB	0d6H
	DB	0dbH
	DB	0deH
	DB	059H
	DB	0ceH
	DB	0dbH
	DB	0d6H
	DB	092H
	DB	094H
	DB	0cfH
	DB	07bH
	DB	051H
	DB	08cH
	DB	0ebH
	DB	05aH
	DB	06eH
	DB	073H
	DB	06dH
	DB	073H
	DB	0c3H
	DB	018H
	DB	0a3H
	DB	018H
	DB	08bH
	DB	052H
	DB	0e4H
	DB	018H
	DB	021H
	DB	08H
	DB	00H
	DB	00H
	DB	00H
	DB	00H
	DB	02dH
	DB	063H
	DB	0dbH
	DB	0d6H
	DB	0bbH
	DB	0d6H
	DB	0bbH
	DB	0d6H
	DB	0bbH
	DB	0d6H
	DB	0dbH
	DB	0d6H
	DB	0dbH
	DB	0d6H
	DB	0bbH
	DB	0d6H
	DB	0fcH
	DB	0deH
	DB	0dH
	DB	05bH
	DB	0ecH
	DB	052H
	DB	093H
	DB	084H
	DB	072H
	DB	07cH
	DB	072H
	DB	074H
	DB	052H
	DB	074H
	DB	092H
	DB	074H
	DB	092H
	DB	074H
	DB	072H
	DB	074H
	DB	072H
	DB	074H
	DB	072H
	DB	07cH
	DB	072H
	DB	074H
	DB	072H
	DB	06cH
	DB	092H
	DB	074H
	DB	092H
	DB	074H
	DB	072H
	DB	074H
	DB	071H
	DB	06cH
	DB	092H
	DB	074H
	DB	092H
	DB	07cH
	DB	092H
	DB	07cH
	DB	051H
	DB	074H
	DB	092H
	DB	084H
	DB	051H
	DB	07cH
	DB	08aH
	DB	04aH
	DB	062H
	DB	08H
	DB	00H
	DB	00H
	DB	041H
	DB	08H
	DB	00H
	DB	08H
	DB	00H
	DB	00H
	DB	00H
	DB	00H
	DB	00H
	DB	00H
	DB	00H
	DB	00H
	DB	00H
	DB	00H
	DB	00H
	DB	00H
	DB	00H
	DB	00H
	DB	00H
	DB	00H
	DB	00H
	DB	00H
	DB	00H
	DB	00H
	DB	00H
	DB	00H
	DB	00H
	DB	00H
	DB	00H
	DB	00H
	DB	00H
	DB	00H
	DB	00H
	DB	00H
	DB	00H
	DB	00H
	DB	00H
	DB	00H
	DB	00H
	DB	00H
	DB	00H
	DB	00H
	DB	00H
	DB	00H
	DB	00H
	DB	00H
	DB	00H
	DB	00H
	DB	00H
	DB	00H
	DB	00H
	DB	00H
	DB	00H
	DB	00H
	DB	00H
	DB	00H
	DB	00H
	DB	00H
	DB	00H
	DB	00H
	DB	021H
	DB	00H
	DB	021H
	DB	08H
	DB	021H
	DB	00H
	DB	00H
	DB	00H
	DB	0ecH
	DB	062H
	DB	03dH
	DB	0efH
	DB	0dbH
	DB	0deH
	DB	0dcH
	DB	0deH
	DB	0bbH
	DB	0d6H
	DB	0bbH
	DB	0d6H
	DB	0bbH
	DB	0deH
	DB	0bbH
	DB	0d6H
	DB	0dcH
	DB	0deH
	DB	0bbH
	DB	0deH
	DB	0bbH
	DB	0deH
	DB	0bcH
	DB	0d6H
	DB	0bbH
	DB	0d6H
	DB	0bbH
	DB	0deH
	DB	0bbH
	DB	0d6H
	DB	0bbH
	DB	0d6H
	DB	0dcH
	DB	0deH
	DB	0bbH
	DB	0d6H
	DB	0dbH
	DB	0deH
	DB	0dcH
	DB	0deH
	DB	0bbH
	DB	0d6H
	DB	0bbH
	DB	0d6H
	DB	0bbH
	DB	0d6H
	DB	0bbH
	DB	0d6H
	DB	0bbH
	DB	0d6H
	DB	0bbH
	DB	0d6H
	DB	0dbH
	DB	0deH
	DB	0bbH
	DB	0d6H
	DB	0bbH
	DB	0deH
	DB	0dbH
	DB	0deH
	DB	0bbH
	DB	0deH
	DB	0bbH
	DB	0d6H
	DB	0bbH
	DB	0d6H
	DB	0bbH
	DB	0deH
	DB	0dcH
	DB	0deH
	DB	0bbH
	DB	0d6H
	DB	0bbH
	DB	0d6H
	DB	0dbH
	DB	0deH
	DB	0bbH
	DB	0deH
	DB	0bbH
	DB	0deH
	DB	0dbH
	DB	0deH
	DB	0bbH
	DB	0d6H
	DB	0dcH
	DB	0deH
	DB	0bbH
	DB	0d6H
	DB	0dbH
	DB	0deH
	DB	0bbH
	DB	0deH
	DB	0bbH
	DB	0d6H
	DB	0bbH
	DB	0d6H
	DB	0bbH
	DB	0deH
	DB	0dcH
	DB	0deH
	DB	0bbH
	DB	0deH
	DB	0dbH
	DB	0deH
	DB	0bbH
	DB	0d6H
	DB	0bbH
	DB	0d6H
	DB	0bbH
	DB	0deH
	DB	0dcH
	DB	0deH
	DB	0dbH
	DB	0deH
	DB	0bbH
	DB	0d6H
	DB	0bcH
	DB	0deH
	DB	0bbH
	DB	0deH
	DB	0dbH
	DB	0deH
	DB	0bbH
	DB	0deH
	DB	0dcH
	DB	0d6H
	DB	0dbH
	DB	0deH
	DB	0bbH
	DB	0deH
	DB	0bbH
	DB	0d6H
	DB	0bbH
	DB	0d6H
	DB	0bbH
	DB	0deH
	DB	0bbH
	DB	0d6H
	DB	0dcH
	DB	0d6H
	DB	0bbH
	DB	0d6H
	DB	0bbH
	DB	0d6H
	DB	0dbH
	DB	0deH
	DB	0bbH
	DB	0d6H
	DB	0dbH
	DB	0deH
	DB	0bbH
	DB	0d6H
	DB	0dcH
	DB	0deH
	DB	0bbH
	DB	0deH
	DB	0bbH
	DB	0deH
	DB	0bbH
	DB	0d6H
	DB	0dbH
	DB	0deH
	DB	0dbH
	DB	0deH
	DB	0bbH
	DB	0d6H
	DB	0bbH
	DB	0d6H
	DB	0dbH
	DB	0deH
	DB	0bbH
	DB	0d6H
	DB	0bbH
	DB	0d6H
	DB	0bbH
	DB	0d6H
	DB	0bbH
	DB	0deH
	DB	0bbH
	DB	0deH
	DB	0bbH
	DB	0d6H
	DB	0dbH
	DB	0deH
	DB	0bbH
	DB	0d6H
	DB	0dbH
	DB	0d6H
	DB	0bbH
	DB	0d6H
	DB	0dcH
	DB	0deH
	DB	0bbH
	DB	0deH
	DB	0bbH
	DB	0d6H
	DB	0fcH
	DB	0deH
	DB	02dH
	DB	063H
	DB	0cfH
	DB	07bH
	DB	0b3H
	DB	09cH
	DB	01cH
	DB	0e7H
	DB	0bbH
	DB	0d6H
	DB	0bbH
	DB	0deH
	DB	09aH
	DB	0d6H
	DB	0dbH
	DB	0deH
	DB	01cH
	DB	0e7H
	DB	01cH
	DB	0e7H
	DB	052H
	DB	08cH
	DB	00H
	DB	00H
	DB	066H
	DB	031H
	DB	0bbH
	DB	0deH
	DB	0fcH
	DB	0e6H
	DB	0bcH
	DB	0deH
	DB	0dcH
	DB	0e6H
	DB	09bH
	DB	0d6H
	DB	0fcH
	DB	0deH
	DB	09bH
	DB	0d6H
	DB	0fcH
	DB	0e6H
	DB	07aH
	DB	0ceH
	DB	0fcH
	DB	0deH
	DB	0fcH
	DB	0deH
	DB	0fcH
	DB	0deH
	DB	01cH
	DB	0e7H
	DB	0dbH
	DB	0deH
	DB	0dbH
	DB	0deH
	DB	07dH
	DB	0efH
	DB	079H
	DB	0ceH
	DB	092H
	DB	094H
	DB	0afH
	DB	07bH
	DB	029H
	DB	04aH
	DB	029H
	DB	04aH
	DB	018H
	DB	0c6H
	DB	08aH
	DB	052H
	DB	00H
	DB	00H
	DB	062H
	DB	010H
	DB	0d0H
	DB	07bH
	DB	07aH
	DB	0ceH
	DB	0dbH
	DB	0d6H
	DB	0bbH
	DB	0deH
	DB	0bbH
	DB	0deH
	DB	0dbH
	DB	0d6H
	DB	0dbH
	DB	0d6H
	DB	0baH
	DB	0d6H
	DB	0dbH
	DB	0d6H
	DB	0fcH
	DB	0deH
	DB	0ebH
	DB	052H
	DB	0cH
	DB	053H
	DB	093H
	DB	07cH
	DB	072H
	DB	074H
	DB	072H
	DB	074H
	DB	051H
	DB	074H
	DB	072H
	DB	074H
	DB	092H
	DB	074H
	DB	092H
	DB	074H
	DB	072H
	DB	074H
	DB	072H
	DB	074H
	DB	072H
	DB	074H
	DB	092H
	DB	074H
	DB	092H
	DB	074H
	DB	092H
	DB	074H
	DB	092H
	DB	074H
	DB	071H
	DB	074H
	DB	071H
	DB	074H
	DB	071H
	DB	074H
	DB	071H
	DB	074H
	DB	092H
	DB	07cH
	DB	051H
	DB	07cH
	DB	050H
	DB	07cH
	DB	092H
	DB	084H
	DB	086H
	DB	029H
	DB	020H
	DB	00H
	DB	041H
	DB	08H
	DB	020H
	DB	00H
	DB	00H
	DB	00H
	DB	00H
	DB	00H
	DB	00H
	DB	00H
	DB	00H
	DB	00H
	DB	00H
	DB	00H
	DB	00H
	DB	00H
	DB	00H
	DB	00H
	DB	00H
	DB	00H
	DB	00H
	DB	00H
	DB	00H
	DB	00H
	DB	00H
	DB	00H
	DB	00H
	DB	00H
	DB	00H
	DB	00H
	DB	00H
	DB	00H
	DB	00H
	DB	00H
	DB	00H
	DB	00H
	DB	00H
	DB	00H
	DB	00H
	DB	00H
	DB	00H
	DB	00H
	DB	00H
	DB	00H
	DB	00H
	DB	00H
	DB	00H
	DB	00H
	DB	00H
	DB	00H
	DB	00H
	DB	00H
	DB	00H
	DB	00H
	DB	00H
	DB	00H
	DB	00H
	DB	00H
	DB	00H
	DB	00H
	DB	00H
	DB	00H
	DB	021H
	DB	00H
	DB	01H
	DB	00H
	DB	00H
	DB	00H
	DB	041H
	DB	08H
	DB	093H
	DB	094H
	DB	03dH
	DB	0e7H
	DB	0bbH
	DB	0d6H
	DB	0bbH
	DB	0deH
	DB	09bH
	DB	0d6H
	DB	0dbH
	DB	0deH
	DB	0bbH
	DB	0deH
	DB	0bbH
	DB	0d6H
	DB	0bbH
	DB	0d6H
	DB	0bbH
	DB	0d6H
	DB	0dbH
	DB	0deH
	DB	0bcH
	DB	0deH
	DB	0bbH
	DB	0d6H
	DB	0bbH
	DB	0deH
	DB	0bbH
	DB	0d6H
	DB	0bbH
	DB	0deH
	DB	0bbH
	DB	0deH
	DB	0bbH
	DB	0d6H
	DB	0bbH
	DB	0deH
	DB	0bbH
	DB	0d6H
	DB	0dbH
	DB	0deH
	DB	0dbH
	DB	0deH
	DB	0bbH
	DB	0deH
	DB	0bbH
	DB	0d6H
	DB	0dbH
	DB	0deH
	DB	0bbH
	DB	0d6H
	DB	0bbH
	DB	0d6H
	DB	0dcH
	DB	0deH
	DB	0dbH
	DB	0deH
	DB	0bbH
	DB	0d6H
	DB	0dcH
	DB	0deH
	DB	0dcH
	DB	0deH
	DB	0dbH
	DB	0d6H
	DB	0bbH
	DB	0d6H
	DB	0dbH
	DB	0deH
	DB	0bbH
	DB	0d6H
	DB	0dcH
	DB	0deH
	DB	0dbH
	DB	0d6H
	DB	0dbH
	DB	0deH
	DB	0bcH
	DB	0deH
	DB	0bbH
	DB	0d6H
	DB	0dbH
	DB	0deH
	DB	0bbH
	DB	0deH
	DB	0dbH
	DB	0deH
	DB	0bbH
	DB	0d6H
	DB	0dbH
	DB	0deH
	DB	0dcH
	DB	0deH
	DB	0bbH
	DB	0d6H
	DB	0bbH
	DB	0d6H
	DB	0bbH
	DB	0d6H
	DB	0dcH
	DB	0deH
	DB	0bbH
	DB	0deH
	DB	0bbH
	DB	0d6H
	DB	0dcH
	DB	0deH
	DB	0bbH
	DB	0deH
	DB	0dbH
	DB	0d6H
	DB	0dcH
	DB	0deH
	DB	0bbH
	DB	0d6H
	DB	0dbH
	DB	0deH
	DB	0bcH
	DB	0deH
	DB	0dbH
	DB	0d6H
	DB	0bbH
	DB	0deH
	DB	0dcH
	DB	0deH
	DB	0dbH
	DB	0d6H
	DB	0dcH
	DB	0deH
	DB	0dbH
	DB	0deH
	DB	0bbH
	DB	0deH
	DB	0dbH
	DB	0deH
	DB	0bbH
	DB	0deH
	DB	0dbH
	DB	0deH
	DB	0dbH
	DB	0deH
	DB	0bcH
	DB	0d6H
	DB	0dbH
	DB	0deH
	DB	0bbH
	DB	0d6H
	DB	0dbH
	DB	0deH
	DB	0dbH
	DB	0d6H
	DB	0bbH
	DB	0deH
	DB	0dbH
	DB	0deH
	DB	0dcH
	DB	0d6H
	DB	0bbH
	DB	0deH
	DB	0bbH
	DB	0deH
	DB	0bbH
	DB	0d6H
	DB	0bbH
	DB	0d6H
	DB	0bcH
	DB	0deH
	DB	0dbH
	DB	0deH
	DB	0bbH
	DB	0deH
	DB	0bbH
	DB	0deH
	DB	0bbH
	DB	0d6H
	DB	0bbH
	DB	0deH
	DB	0bbH
	DB	0d6H
	DB	0bbH
	DB	0d6H
	DB	0bbH
	DB	0deH
	DB	0bbH
	DB	0d6H
	DB	0dcH
	DB	0deH
	DB	09bH
	DB	0d6H
	DB	09aH
	DB	0d6H
	DB	0dbH
	DB	0deH
	DB	0fcH
	DB	0deH
	DB	0f4H
	DB	0a4H
	DB	0cfH
	DB	07bH
	DB	045H
	DB	029H
	DB	059H
	DB	0ceH
	DB	05dH
	DB	0efH
	DB	01cH
	DB	0e7H
	DB	07eH
	DB	0efH
	DB	0fcH
	DB	0e6H
	DB	07eH
	DB	0efH
	DB	0bbH
	DB	0d6H
	DB	0c8H
	DB	039H
	DB	00H
	DB	00H
	DB	0c8H
	DB	039H
	DB	0dcH
	DB	0deH
	DB	0bbH
	DB	0d6H
	DB	0dcH
	DB	0deH
	DB	0dcH
	DB	0deH
	DB	05aH
	DB	0ceH
	DB	0fcH
	DB	0deH
	DB	0bbH
	DB	0d6H
	DB	09bH
	DB	0d6H
	DB	0dbH
	DB	0deH
	DB	0dbH
	DB	0deH
	DB	0dbH
	DB	0deH
	DB	0bbH
	DB	0d6H
	DB	09aH
	DB	0d6H
	DB	01cH
	DB	0e7H
	DB	0ffH
	DB	0ffH
	DB	0d3H
	DB	09cH
	DB	045H
	DB	029H
	DB	08aH
	DB	052H
	DB	096H
	DB	0b5H
	DB	051H
	DB	08cH
	DB	0efH
	DB	083H
	DB	0f0H
	DB	083H
	DB	0e4H
	DB	018H
	DB	08bH
	DB	052H
	DB	055H
	DB	0adH
	DB	03dH
	DB	0e7H
	DB	0fcH
	DB	0deH
	DB	0bbH
	DB	0deH
	DB	09aH
	DB	0d6H
	DB	0bbH
	DB	0deH
	DB	0dbH
	DB	0d6H
	DB	09aH
	DB	0d6H
	DB	0bbH
	DB	0d6H
	DB	0bbH
	DB	0d6H
	DB	0fcH
	DB	0deH
	DB	0acH
	DB	04aH
	DB	02dH
	DB	05bH
	DB	092H
	DB	07cH
	DB	052H
	DB	07cH
	DB	072H
	DB	074H
	DB	072H
	DB	074H
	DB	072H
	DB	074H
	DB	0b2H
	DB	074H
	DB	092H
	DB	074H
	DB	092H
	DB	074H
	DB	072H
	DB	074H
	DB	072H
	DB	07cH
	DB	072H
	DB	074H
	DB	051H
	DB	06cH
	DB	072H
	DB	074H
	DB	072H
	DB	074H
	DB	092H
	DB	074H
	DB	092H
	DB	074H
	DB	071H
	DB	06cH
	DB	071H
	DB	06cH
	DB	0b2H
	DB	07cH
	DB	091H
	DB	07cH
	DB	030H
	DB	074H
	DB	0d3H
	DB	08cH
	DB	0ebH
	DB	052H
	DB	041H
	DB	00H
	DB	021H
	DB	00H
	DB	020H
	DB	00H
	DB	00H
	DB	00H
	DB	00H
	DB	00H
	DB	00H
	DB	00H
	DB	00H
	DB	00H
	DB	00H
	DB	00H
	DB	00H
	DB	00H
	DB	00H
	DB	00H
	DB	00H
	DB	00H
	DB	00H
	DB	00H
	DB	00H
	DB	00H
	DB	00H
	DB	00H
	DB	00H
	DB	00H
	DB	00H
	DB	00H
	DB	00H
	DB	00H
	DB	00H
	DB	00H
	DB	00H
	DB	00H
	DB	00H
	DB	00H
	DB	00H
	DB	00H
	DB	00H
	DB	00H
	DB	00H
	DB	00H
	DB	00H
	DB	00H
	DB	00H
	DB	00H
	DB	00H
	DB	00H
	DB	00H
	DB	00H
	DB	00H
	DB	00H
	DB	00H
	DB	00H
	DB	00H
	DB	00H
	DB	00H
	DB	00H
	DB	00H
	DB	00H
	DB	00H
	DB	00H
	DB	00H
	DB	00H
	DB	021H
	DB	08H
	DB	00H
	DB	00H
	DB	046H
	DB	029H
	DB	05aH
	DB	0ceH
	DB	0dcH
	DB	0deH
	DB	0dcH
	DB	0deH
	DB	0bbH
	DB	0d6H
	DB	0dcH
	DB	0deH
	DB	0bcH
	DB	0deH
	DB	0dbH
	DB	0d6H
	DB	0bbH
	DB	0d6H
	DB	0bbH
	DB	0deH
	DB	0bbH
	DB	0d6H
	DB	0bbH
	DB	0d6H
	DB	0dbH
	DB	0deH
	DB	0bcH
	DB	0d6H
	DB	0dbH
	DB	0deH
	DB	0bbH
	DB	0d6H
	DB	0bbH
	DB	0d6H
	DB	0bbH
	DB	0deH
	DB	0dbH
	DB	0deH
	DB	0bbH
	DB	0d6H
	DB	0bbH
	DB	0d6H
	DB	0bbH
	DB	0deH
	DB	0dcH
	DB	0deH
	DB	0bbH
	DB	0deH
	DB	0dcH
	DB	0deH
	DB	0bbH
	DB	0deH
	DB	0bbH
	DB	0d6H
	DB	0bbH
	DB	0d6H
	DB	0bcH
	DB	0deH
	DB	0dbH
	DB	0deH
	DB	0bbH
	DB	0d6H
	DB	0bbH
	DB	0deH
	DB	0bbH
	DB	0deH
	DB	0dcH
	DB	0deH
	DB	0bbH
	DB	0deH
	DB	0bbH
	DB	0d6H
	DB	0bbH
	DB	0d6H
	DB	0bbH
	DB	0deH
	DB	0bbH
	DB	0d6H
	DB	0bbH
	DB	0d6H
	DB	0dbH
	DB	0deH
	DB	0bbH
	DB	0d6H
	DB	0dcH
	DB	0deH
	DB	0bbH
	DB	0d6H
	DB	0bbH
	DB	0d6H
	DB	0bbH
	DB	0deH
	DB	0bbH
	DB	0deH
	DB	0bbH
	DB	0d6H
	DB	0bbH
	DB	0deH
	DB	0bbH
	DB	0d6H
	DB	0bbH
	DB	0d6H
	DB	0bbH
	DB	0d6H
	DB	0bbH
	DB	0deH
	DB	0dbH
	DB	0d6H
	DB	0bbH
	DB	0d6H
	DB	0bbH
	DB	0deH
	DB	0dbH
	DB	0deH
	DB	0bbH
	DB	0d6H
	DB	0dbH
	DB	0d6H
	DB	0dbH
	DB	0deH
	DB	0bbH
	DB	0d6H
	DB	0bbH
	DB	0deH
	DB	0bbH
	DB	0deH
	DB	0bbH
	DB	0d6H
	DB	0dcH
	DB	0deH
	DB	0bbH
	DB	0deH
	DB	0dcH
	DB	0d6H
	DB	0bbH
	DB	0d6H
	DB	0bbH
	DB	0deH
	DB	0dcH
	DB	0deH
	DB	0bbH
	DB	0d6H
	DB	0bbH
	DB	0d6H
	DB	0bcH
	DB	0deH
	DB	0dbH
	DB	0deH
	DB	0bbH
	DB	0d6H
	DB	0bcH
	DB	0deH
	DB	0dbH
	DB	0d6H
	DB	0bbH
	DB	0deH
	DB	0bbH
	DB	0d6H
	DB	0dcH
	DB	0deH
	DB	0bbH
	DB	0deH
	DB	0dbH
	DB	0d6H
	DB	0dcH
	DB	0deH
	DB	0bbH
	DB	0deH
	DB	0bbH
	DB	0d6H
	DB	0dcH
	DB	0deH
	DB	0dbH
	DB	0deH
	DB	0dbH
	DB	0deH
	DB	0bbH
	DB	0d6H
	DB	0bbH
	DB	0d6H
	DB	0dcH
	DB	0deH
	DB	0dbH
	DB	0deH
	DB	0bbH
	DB	0deH
	DB	0bbH
	DB	0d6H
	DB	0bbH
	DB	0deH
	DB	0fbH
	DB	0deH
	DB	09aH
	DB	0d6H
	DB	0dbH
	DB	0deH
	DB	079H
	DB	0ceH
	DB	0a7H
	DB	039H
	DB	00H
	DB	00H
	DB	045H
	DB	029H
	DB	04dH
	DB	06bH
	DB	08eH
	DB	073H
	DB	0ecH
	DB	062H
	DB	04dH
	DB	06bH
	DB	0abH
	DB	052H
	DB	066H
	DB	031H
	DB	00H
	DB	00H
	DB	01H
	DB	00H
	DB	011H
	DB	084H
	DB	0fcH
	DB	0e6H
	DB	0bbH
	DB	0deH
	DB	0dcH
	DB	0deH
	DB	0bcH
	DB	0deH
	DB	09bH
	DB	0d6H
	DB	0dbH
	DB	0deH
	DB	0dbH
	DB	0deH
	DB	0fcH
	DB	0deH
	DB	0dbH
	DB	0deH
	DB	07aH
	DB	0ceH
	DB	09aH
	DB	0d6H
	DB	09aH
	DB	0d6H
	DB	07eH
	DB	0efH
	DB	075H
	DB	0adH
	DB	08aH
	DB	052H
	DB	041H
	DB	08H
	DB	0a6H
	DB	039H
	DB	092H
	DB	094H
	DB	0d7H
	DB	0bdH
	DB	0cbH
	DB	05aH
	DB	0e8H
	DB	041H
	DB	049H
	DB	04aH
	DB	0d4H
	DB	09cH
	DB	07eH
	DB	0efH
	DB	03dH
	DB	0e7H
	DB	07aH
	DB	0ceH
	DB	09aH
	DB	0d6H
	DB	01cH
	DB	0e7H
	DB	0bbH
	DB	0d6H
	DB	0bbH
	DB	0d6H
	DB	0dbH
	DB	0d6H
	DB	09aH
	DB	0d6H
	DB	0dbH
	DB	0deH
	DB	0dbH
	DB	0d6H
	DB	0fcH
	DB	0deH
	DB	0abH
	DB	04aH
	DB	04eH
	DB	05bH
	DB	092H
	DB	084H
	DB	072H
	DB	074H
	DB	051H
	DB	074H
	DB	092H
	DB	074H
	DB	092H
	DB	074H
	DB	092H
	DB	074H
	DB	092H
	DB	074H
	DB	092H
	DB	074H
	DB	072H
	DB	074H
	DB	072H
	DB	074H
	DB	072H
	DB	06cH
	DB	072H
	DB	074H
	DB	072H
	DB	074H
	DB	051H
	DB	074H
	DB	072H
	DB	074H
	DB	092H
	DB	074H
	DB	091H
	DB	074H
	DB	092H
	DB	074H
	DB	051H
	DB	06cH
	DB	071H
	DB	074H
	DB	0b2H
	DB	07cH
	DB	071H
	DB	07cH
	DB	0afH
	DB	063H
	DB	0a3H
	DB	010H
	DB	021H
	DB	00H
	DB	01H
	DB	00H
	DB	01H
	DB	00H
	DB	00H
	DB	00H
	DB	020H
	DB	00H
	DB	00H
	DB	00H
	DB	00H
	DB	00H
	DB	00H
	DB	00H
	DB	00H
	DB	00H
	DB	00H
	DB	00H
	DB	00H
	DB	00H
	DB	00H
	DB	00H
	DB	00H
	DB	00H
	DB	00H
	DB	00H
	DB	00H
	DB	00H
	DB	00H
	DB	00H
	DB	00H
	DB	00H
	DB	00H
	DB	00H
	DB	00H
	DB	00H
	DB	00H
	DB	00H
	DB	00H
	DB	00H
	DB	00H
	DB	00H
	DB	00H
	DB	00H
	DB	00H
	DB	00H
	DB	00H
	DB	00H
	DB	00H
	DB	00H
	DB	00H
	DB	00H
	DB	00H
	DB	00H
	DB	00H
	DB	00H
	DB	00H
	DB	00H
	DB	00H
	DB	00H
	DB	00H
	DB	00H
	DB	00H
	DB	00H
	DB	021H
	DB	00H
	DB	021H
	DB	08H
	DB	00H
	DB	00H
	DB	06eH
	DB	073H
	DB	0fcH
	DB	0e6H
	DB	0fcH
	DB	0deH
	DB	09bH
	DB	0d6H
	DB	0bbH
	DB	0deH
	DB	0bbH
	DB	0d6H
	DB	09bH
	DB	0d6H
	DB	0dcH
	DB	0deH
	DB	0bbH
	DB	0d6H
	DB	0bbH
	DB	0deH
	DB	0bbH
	DB	0deH
	DB	0bbH
	DB	0d6H
	DB	0bbH
	DB	0deH
	DB	0dbH
	DB	0deH
	DB	0dcH
	DB	0deH
	DB	0bbH
	DB	0d6H
	DB	0bbH
	DB	0d6H
	DB	0bbH
	DB	0d6H
	DB	0bbH
	DB	0deH
	DB	0bcH
	DB	0deH
	DB	0bbH
	DB	0d6H
	DB	0bbH
	DB	0d6H
	DB	0dbH
	DB	0deH
	DB	0bbH
	DB	0d6H
	DB	0bbH
	DB	0deH
	DB	0dbH
	DB	0deH
	DB	0bbH
	DB	0deH
	DB	0bbH
	DB	0d6H
	DB	0bbH
	DB	0d6H
	DB	0bbH
	DB	0deH
	DB	0bbH
	DB	0d6H
	DB	0bbH
	DB	0d6H
	DB	0dbH
	DB	0deH
	DB	0bbH
	DB	0d6H
	DB	0bcH
	DB	0deH
	DB	0bbH
	DB	0deH
	DB	0bbH
	DB	0d6H
	DB	0bbH
	DB	0deH
	DB	0dcH
	DB	0deH
	DB	0bbH
	DB	0d6H
	DB	0bbH
	DB	0d6H
	DB	0bbH
	DB	0deH
	DB	0dbH
	DB	0deH
	DB	0bbH
	DB	0d6H
	DB	0bbH
	DB	0d6H
	DB	0bbH
	DB	0deH
	DB	0bbH
	DB	0deH
	DB	0dcH
	DB	0deH
	DB	0dbH
	DB	0deH
	DB	0bbH
	DB	0deH
	DB	0dcH
	DB	0deH
	DB	0bbH
	DB	0d6H
	DB	0dbH
	DB	0deH
	DB	0bcH
	DB	0deH
	DB	0bbH
	DB	0d6H
	DB	0dbH
	DB	0deH
	DB	0bcH
	DB	0deH
	DB	0bbH
	DB	0deH
	DB	0dcH
	DB	0deH
	DB	0dbH
	DB	0d6H
	DB	0dcH
	DB	0deH
	DB	0bbH
	DB	0deH
	DB	0dbH
	DB	0d6H
	DB	0bbH
	DB	0deH
	DB	0bbH
	DB	0d6H
	DB	0dbH
	DB	0deH
	DB	0dcH
	DB	0d6H
	DB	0bbH
	DB	0deH
	DB	0dbH
	DB	0d6H
	DB	0bbH
	DB	0deH
	DB	0dbH
	DB	0deH
	DB	0bbH
	DB	0d6H
	DB	0bbH
	DB	0d6H
	DB	0dbH
	DB	0deH
	DB	0bcH
	DB	0deH
	DB	0dbH
	DB	0d6H
	DB	0bbH
	DB	0deH
	DB	0dcH
	DB	0deH
	DB	0dbH
	DB	0d6H
	DB	0bbH
	DB	0deH
	DB	0dcH
	DB	0deH
	DB	0dbH
	DB	0d6H
	DB	0bbH
	DB	0deH
	DB	0dbH
	DB	0d6H
	DB	0dbH
	DB	0d6H
	DB	0bbH
	DB	0deH
	DB	0bbH
	DB	0deH
	DB	0bbH
	DB	0d6H
	DB	0bbH
	DB	0deH
	DB	0bcH
	DB	0d6H
	DB	0bbH
	DB	0deH
	DB	0bbH
	DB	0d6H
	DB	0bbH
	DB	0d6H
	DB	0bbH
	DB	0deH
	DB	0dbH
	DB	0deH
	DB	0bbH
	DB	0d6H
	DB	0bbH
	DB	0d6H
	DB	03dH
	DB	0efH
	DB	015H
	DB	0a5H
	DB	0e4H
	DB	020H
	DB	00H
	DB	00H
	DB	00H
	DB	00H
	DB	00H
	DB	00H
	DB	00H
	DB	00H
	DB	00H
	DB	00H
	DB	082H
	DB	010H
	DB	0a7H
	DB	039H
	DB	01H
	DB	00H
	DB	049H
	DB	04aH
	DB	019H
	DB	0c6H
	DB	03dH
	DB	0e7H
	DB	07aH
	DB	0d6H
	DB	0bbH
	DB	0deH
	DB	09bH
	DB	0d6H
	DB	01dH
	DB	0e7H
	DB	0bbH
	DB	0d6H
	DB	059H
	DB	0ceH
	DB	0fcH
	DB	0e6H
	DB	0fcH
	DB	0deH
	DB	0dcH
	DB	0deH
	DB	05aH
	DB	0ceH
	DB	07aH
	DB	0d6H
	DB	0efH
	DB	07bH
	DB	0a3H
	DB	010H
	DB	00H
	DB	00H
	DB	020H
	DB	00H
	DB	061H
	DB	08H
	DB	045H
	DB	029H
	DB	0cH
	DB	063H
	DB	066H
	DB	031H
	DB	0d3H
	DB	09cH
	DB	0bbH
	DB	0d6H
	DB	01cH
	DB	0e7H
	DB	09bH
	DB	0d6H
	DB	09aH
	DB	0d6H
	DB	0fcH
	DB	0deH
	DB	0dcH
	DB	0deH
	DB	09aH
	DB	0d6H
	DB	0dcH
	DB	0deH
	DB	0bbH
	DB	0d6H
	DB	0bbH
	DB	0d6H
	DB	0dbH
	DB	0deH
	DB	0dbH
	DB	0deH
	DB	0dcH
	DB	0deH
	DB	0dcH
	DB	0d6H
	DB	08aH
	DB	04aH
	DB	04eH
	DB	05bH
	DB	093H
	DB	084H
	DB	052H
	DB	074H
	DB	072H
	DB	074H
	DB	092H
	DB	074H
	DB	092H
	DB	06cH
	DB	092H
	DB	06cH
	DB	072H
	DB	06cH
	DB	072H
	DB	074H
	DB	052H
	DB	074H
	DB	072H
	DB	07cH
	DB	072H
	DB	074H
	DB	092H
	DB	07cH
	DB	092H
	DB	07cH
	DB	072H
	DB	06cH
	DB	072H
	DB	074H
	DB	071H
	DB	074H
	DB	071H
	DB	074H
	DB	0b3H
	DB	07cH
	DB	092H
	DB	074H
	DB	051H
	DB	074H
	DB	092H
	DB	074H
	DB	072H
	DB	07cH
	DB	092H
	DB	084H
	DB	04H
	DB	019H
	DB	00H
	DB	00H
	DB	021H
	DB	00H
	DB	01H
	DB	00H
	DB	020H
	DB	00H
	DB	00H
	DB	08H
	DB	00H
	DB	00H
	DB	00H
	DB	00H
	DB	00H
	DB	00H
	DB	00H
	DB	00H
	DB	00H
	DB	00H
	DB	00H
	DB	00H
	DB	00H
	DB	00H
	DB	00H
	DB	00H
	DB	00H
	DB	00H
	DB	00H
	DB	00H
	DB	00H
	DB	00H
	DB	00H
	DB	00H
	DB	00H
	DB	00H
	DB	00H
	DB	00H
	DB	00H
	DB	00H
	DB	00H
	DB	00H
	DB	00H
	DB	00H
	DB	00H
	DB	00H
	DB	00H
	DB	00H
	DB	00H
	DB	00H
	DB	00H
	DB	00H
	DB	00H
	DB	00H
	DB	00H
	DB	00H
	DB	00H
	DB	00H
	DB	00H
	DB	00H
	DB	00H
	DB	00H
	DB	00H
	DB	00H
	DB	01H
	DB	00H
	DB	00H
	DB	00H
	DB	042H
	DB	08H
	DB	00H
	DB	00H
	DB	0e4H
	DB	018H
	DB	076H
	DB	0adH
	DB	0fcH
	DB	0deH
	DB	09bH
	DB	0d6H
	DB	0dcH
	DB	0deH
	DB	0bbH
	DB	0d6H
	DB	0fcH
	DB	0deH
	DB	09bH
	DB	0d6H
	DB	0bbH
	DB	0d6H
	DB	0bbH
	DB	0d6H
	DB	0bbH
	DB	0deH
	DB	0bbH
	DB	0d6H
	DB	0bbH
	DB	0d6H
	DB	0bbH
	DB	0deH
	DB	0bbH
	DB	0d6H
	DB	0dbH
	DB	0deH
	DB	0dcH
	DB	0deH
	DB	0bbH
	DB	0deH
	DB	0bbH
	DB	0d6H
	DB	0bbH
	DB	0d6H
	DB	0dbH
	DB	0deH
	DB	0dbH
	DB	0deH
	DB	0bbH
	DB	0d6H
	DB	0dcH
	DB	0deH
	DB	0bbH
	DB	0d6H
	DB	0bbH
	DB	0d6H
	DB	0bbH
	DB	0deH
	DB	0bbH
	DB	0d6H
	DB	0dcH
	DB	0deH
	DB	0bbH
	DB	0d6H
	DB	0bbH
	DB	0d6H
	DB	0dcH
	DB	0deH
	DB	0bbH
	DB	0d6H
	DB	0bbH
	DB	0deH
	DB	0dbH
	DB	0d6H
	DB	0dbH
	DB	0deH
	DB	0bbH
	DB	0d6H
	DB	0bbH
	DB	0d6H
	DB	0dbH
	DB	0deH
	DB	0bbH
	DB	0deH
	DB	0bbH
	DB	0d6H
	DB	0bbH
	DB	0deH
	DB	0bbH
	DB	0deH
	DB	0bbH
	DB	0d6H
	DB	0bbH
	DB	0d6H
	DB	0dcH
	DB	0deH
	DB	0bbH
	DB	0d6H
	DB	0bbH
	DB	0d6H
	DB	0bbH
	DB	0d6H
	DB	0bbH
	DB	0deH
	DB	0bbH
	DB	0d6H
	DB	0bbH
	DB	0d6H
	DB	0bbH
	DB	0deH
	DB	0dcH
	DB	0deH
	DB	0dbH
	DB	0d6H
	DB	0bbH
	DB	0deH
	DB	0dcH
	DB	0d6H
	DB	0bbH
	DB	0deH
	DB	0bbH
	DB	0deH
	DB	0dbH
	DB	0d6H
	DB	0bbH
	DB	0deH
	DB	0dcH
	DB	0d6H
	DB	0dbH
	DB	0deH
	DB	0bbH
	DB	0deH
	DB	0dcH
	DB	0deH
	DB	0bbH
	DB	0d6H
	DB	0dbH
	DB	0deH
	DB	0bcH
	DB	0deH
	DB	0bbH
	DB	0d6H
	DB	0dbH
	DB	0deH
	DB	0dcH
	DB	0deH
	DB	0bbH
	DB	0deH
	DB	0dbH
	DB	0deH
	DB	0bbH
	DB	0deH
	DB	0dbH
	DB	0d6H
	DB	0bbH
	DB	0deH
	DB	0dcH
	DB	0deH
	DB	0bbH
	DB	0d6H
	DB	0bbH
	DB	0d6H
	DB	0dbH
	DB	0deH
	DB	0bbH
	DB	0d6H
	DB	0bbH
	DB	0d6H
	DB	0bbH
	DB	0deH
	DB	0bbH
	DB	0deH
	DB	0bbH
	DB	0d6H
	DB	0bcH
	DB	0deH
	DB	0dbH
	DB	0deH
	DB	0bbH
	DB	0d6H
	DB	0bbH
	DB	0deH
	DB	0bcH
	DB	0deH
	DB	0bbH
	DB	0d6H
	DB	0bbH
	DB	0d6H
	DB	0dbH
	DB	0deH
	DB	0bbH
	DB	0d6H
	DB	09aH
	DB	0d6H
	DB	0dbH
	DB	0deH
	DB	0bbH
	DB	0d6H
	DB	0bbH
	DB	0d6H
	DB	03cH
	DB	0e7H
	DB	0f8H
	DB	0c5H
	DB	011H
	DB	084H
	DB	06eH
	DB	06bH
	DB	02dH
	DB	06bH
	DB	08aH
	DB	052H
	DB	0cbH
	DB	05aH
	DB	0abH
	DB	05aH
	DB	0ecH
	DB	062H
	DB	0d0H
	DB	07bH
	DB	0bbH
	DB	0deH
	DB	01cH
	DB	0e7H
	DB	09bH
	DB	0d6H
	DB	0bbH
	DB	0deH
	DB	0fcH
	DB	0deH
	DB	09bH
	DB	0d6H
	DB	0bbH
	DB	0d6H
	DB	0fcH
	DB	0deH
	DB	0bbH
	DB	0d6H
	DB	0fcH
	DB	0e6H
	DB	05aH
	DB	0ceH
	DB	03dH
	DB	0e7H
	DB	09aH
	DB	0d6H
	DB	0abH
	DB	05aH
	DB	00H
	DB	00H
	DB	061H
	DB	08H
	DB	020H
	DB	08H
	DB	00H
	DB	00H
	DB	00H
	DB	00H
	DB	0e4H
	DB	020H
	DB	04dH
	DB	06bH
	DB	0f8H
	DB	0c5H
	DB	0dbH
	DB	0deH
	DB	0dcH
	DB	0deH
	DB	07aH
	DB	0ceH
	DB	0dbH
	DB	0deH
	DB	0bbH
	DB	0deH
	DB	09bH
	DB	0d6H
	DB	09bH
	DB	0d6H
	DB	0bbH
	DB	0d6H
	DB	0dcH
	DB	0deH
	DB	0dbH
	DB	0d6H
	DB	0dbH
	DB	0d6H
	DB	0bbH
	DB	0d6H
	DB	0dbH
	DB	0d6H
	DB	0fcH
	DB	0deH
	DB	0bbH
	DB	0d6H
	DB	06aH
	DB	042H
	DB	04eH
	DB	05bH
	DB	0b3H
	DB	084H
	DB	052H
	DB	07cH
	DB	072H
	DB	074H
	DB	072H
	DB	074H
	DB	072H
	DB	06cH
	DB	092H
	DB	06cH
	DB	072H
	DB	06cH
	DB	072H
	DB	06cH
	DB	072H
	DB	074H
	DB	092H
	DB	07cH
	DB	072H
	DB	07cH
	DB	052H
	DB	074H
	DB	072H
	DB	07cH
	DB	072H
	DB	074H
	DB	0b3H
	DB	07cH
	DB	092H
	DB	07cH
	DB	071H
	DB	074H
	DB	0b2H
	DB	07cH
	DB	092H
	DB	074H
	DB	051H
	DB	06cH
	DB	092H
	DB	074H
	DB	071H
	DB	074H
	DB	093H
	DB	084H
	DB	086H
	DB	021H
	DB	00H
	DB	00H
	DB	021H
	DB	00H
	DB	021H
	DB	00H
	DB	00H
	DB	00H
	DB	00H
	DB	00H
	DB	021H
	DB	08H
	DB	00H
	DB	00H
	DB	00H
	DB	00H
	DB	00H
	DB	00H
	DB	00H
	DB	00H
	DB	00H
	DB	00H
	DB	00H
	DB	00H
	DB	00H
	DB	00H
	DB	00H
	DB	00H
	DB	00H
	DB	00H
	DB	00H
	DB	00H
	DB	00H
	DB	00H
	DB	00H
	DB	00H
	DB	00H
	DB	00H
	DB	00H
	DB	00H
	DB	00H
	DB	00H
	DB	00H
	DB	00H
	DB	00H
	DB	00H
	DB	00H
	DB	00H
	DB	00H
	DB	00H
	DB	00H
	DB	00H
	DB	00H
	DB	00H
	DB	00H
	DB	00H
	DB	00H
	DB	00H
	DB	00H
	DB	00H
	DB	00H
	DB	00H
	DB	00H
	DB	00H
	DB	00H
	DB	00H
	DB	01H
	DB	00H
	DB	00H
	DB	00H
	DB	01H
	DB	00H
	DB	00H
	DB	00H
	DB	0a7H
	DB	039H
	DB	09bH
	DB	0d6H
	DB	0fcH
	DB	0deH
	DB	0dbH
	DB	0deH
	DB	09bH
	DB	0d6H
	DB	0dcH
	DB	0deH
	DB	09aH
	DB	0d6H
	DB	0fcH
	DB	0deH
	DB	0dbH
	DB	0deH
	DB	0bbH
	DB	0d6H
	DB	0bbH
	DB	0d6H
	DB	0bbH
	DB	0d6H
	DB	0bbH
	DB	0d6H
	DB	0bbH
	DB	0deH
	DB	0bbH
	DB	0d6H
	DB	0bbH
	DB	0deH
	DB	0dcH
	DB	0deH
	DB	0dbH
	DB	0deH
	DB	0bbH
	DB	0d6H
	DB	0bbH
	DB	0deH
	DB	0bbH
	DB	0d6H
	DB	0bbH
	DB	0d6H
	DB	0dcH
	DB	0deH
	DB	0dbH
	DB	0deH
	DB	0dcH
	DB	0d6H
	DB	0dbH
	DB	0deH
	DB	0dbH
	DB	0deH
	DB	0dbH
	DB	0deH
	DB	0bbH
	DB	0d6H
	DB	0dbH
	DB	0deH
	DB	0dbH
	DB	0deH
	DB	0bbH
	DB	0deH
	DB	0bbH
	DB	0d6H
	DB	0dbH
	DB	0d6H
	DB	0bbH
	DB	0d6H
	DB	0bbH
	DB	0deH
	DB	0bbH
	DB	0d6H
	DB	0bbH
	DB	0deH
	DB	0bcH
	DB	0deH
	DB	0bbH
	DB	0d6H
	DB	0bbH
	DB	0deH
	DB	0dcH
	DB	0d6H
	DB	0dbH
	DB	0deH
	DB	0dbH
	DB	0deH
	DB	0bcH
	DB	0deH
	DB	0dbH
	DB	0deH
	DB	0dbH
	DB	0d6H
	DB	0bcH
	DB	0deH
	DB	0bbH
	DB	0deH
	DB	0bbH
	DB	0d6H
	DB	0bbH
	DB	0deH
	DB	0dbH
	DB	0deH
	DB	0bbH
	DB	0d6H
	DB	0bbH
	DB	0deH
	DB	0dbH
	DB	0deH
	DB	0dbH
	DB	0d6H
	DB	0bbH
	DB	0d6H
	DB	0dcH
	DB	0deH
	DB	0bbH
	DB	0deH
	DB	0bbH
	DB	0d6H
	DB	0dbH
	DB	0deH
	DB	0bcH
	DB	0d6H
	DB	0dbH
	DB	0deH
	DB	0bbH
	DB	0deH
	DB	0dbH
	DB	0d6H
	DB	0bbH
	DB	0deH
	DB	0dbH
	DB	0deH
	DB	0dcH
	DB	0d6H
	DB	0bbH
	DB	0deH
	DB	0bbH
	DB	0d6H
	DB	0dcH
	DB	0d6H
	DB	0bbH
	DB	0deH
	DB	0dcH
	DB	0d6H
	DB	0bbH
	DB	0deH
	DB	0dbH
	DB	0deH
	DB	0dbH
	DB	0d6H
	DB	0bbH
	DB	0deH
	DB	0bcH
	DB	0deH
	DB	0dbH
	DB	0deH
	DB	0bbH
	DB	0deH
	DB	0bcH
	DB	0d6H
	DB	0dcH
	DB	0deH
	DB	0bbH
	DB	0d6H
	DB	0dbH
	DB	0deH
	DB	0dbH
	DB	0deH
	DB	0dbH
	DB	0deH
	DB	0bbH
	DB	0d6H
	DB	0bbH
	DB	0d6H
	DB	0dcH
	DB	0deH
	DB	0bbH
	DB	0d6H
	DB	0dbH
	DB	0deH
	DB	0bbH
	DB	0d6H
	DB	0dcH
	DB	0deH
	DB	0bbH
	DB	0d6H
	DB	07aH
	DB	0d6H
	DB	0dbH
	DB	0deH
	DB	0fcH
	DB	0deH
	DB	059H
	DB	0ceH
	DB	0fcH
	DB	0deH
	DB	0ffH
	DB	0ffH
	DB	07eH
	DB	0efH
	DB	0fcH
	DB	0deH
	DB	0fcH
	DB	0deH
	DB	0dbH
	DB	0deH
	DB	09aH
	DB	0d6H
	DB	05dH
	DB	0efH
	DB	01dH
	DB	0e7H
	DB	0fcH
	DB	0e6H
	DB	07aH
	DB	0ceH
	DB	0fcH
	DB	0deH
	DB	0fcH
	DB	0e6H
	DB	09bH
	DB	0d6H
	DB	0dcH
	DB	0deH
	DB	0bbH
	DB	0deH
	DB	0dcH
	DB	0deH
	DB	0bbH
	DB	0deH
	DB	0dcH
	DB	0deH
	DB	0fcH
	DB	0deH
	DB	096H
	DB	0b5H
	DB	029H
	DB	042H
	DB	00H
	DB	00H
	DB	021H
	DB	08H
	DB	020H
	DB	08H
	DB	00H
	DB	00H
	DB	062H
	DB	08H
	DB	0cbH
	DB	05aH
	DB	0f8H
	DB	0c5H
	DB	09eH
	DB	0f7H
	DB	03cH
	DB	0efH
	DB	01cH
	DB	0e7H
	DB	01dH
	DB	0e7H
	DB	0fcH
	DB	0e6H
	DB	0bbH
	DB	0d6H
	DB	0dcH
	DB	0deH
	DB	0dcH
	DB	0deH
	DB	0fcH
	DB	0deH
	DB	0fbH
	DB	0deH
	DB	09aH
	DB	0d6H
	DB	09bH
	DB	0d6H
	DB	0dbH
	DB	0deH
	DB	0bbH
	DB	0d6H
	DB	09aH
	DB	0d6H
	DB	0fcH
	DB	0deH
	DB	0bbH
	DB	0ceH
	DB	06aH
	DB	042H
	DB	04dH
	DB	05bH
	DB	0b3H
	DB	084H
	DB	051H
	DB	074H
	DB	072H
	DB	074H
	DB	092H
	DB	074H
	DB	0b2H
	DB	074H
	DB	0b2H
	DB	074H
	DB	092H
	DB	06cH
	DB	0b2H
	DB	07cH
	DB	051H
	DB	074H
	DB	010H
	DB	06cH
	DB	051H
	DB	07cH
	DB	093H
	DB	084H
	DB	0dH
	DB	053H
	DB	0e8H
	DB	029H
	DB	029H
	DB	032H
	DB	0f0H
	DB	06bH
	DB	0f3H
	DB	08cH
	DB	050H
	DB	074H
	DB	0b2H
	DB	07cH
	DB	0b3H
	DB	07cH
	DB	0d3H
	DB	07cH
	DB	051H
	DB	074H
	DB	092H
	DB	07cH
	DB	029H
	DB	03aH
	DB	041H
	DB	00H
	DB	021H
	DB	00H
	DB	00H
	DB	00H
	DB	020H
	DB	00H
	DB	00H
	DB	00H
	DB	021H
	DB	08H
	DB	021H
	DB	00H
	DB	00H
	DB	00H
	DB	00H
	DB	00H
	DB	00H
	DB	00H
	DB	00H
	DB	00H
	DB	00H
	DB	00H
	DB	00H
	DB	00H
	DB	00H
	DB	00H
	DB	00H
	DB	00H
	DB	00H
	DB	00H
	DB	00H
	DB	00H
	DB	00H
	DB	00H
	DB	00H
	DB	00H
	DB	00H
	DB	00H
	DB	00H
	DB	00H
	DB	00H
	DB	00H
	DB	00H
	DB	00H
	DB	00H
	DB	00H
	DB	00H
	DB	00H
	DB	00H
	DB	00H
	DB	00H
	DB	00H
	DB	00H
	DB	00H
	DB	00H
	DB	00H
	DB	00H
	DB	00H
	DB	00H
	DB	00H
	DB	00H
	DB	00H
	DB	00H
	DB	00H
	DB	021H
	DB	08H
	DB	021H
	DB	08H
	DB	00H
	DB	00H
	DB	00H
	DB	00H
	DB	00H
	DB	00H
	DB	0f0H
	DB	083H
	DB	03dH
	DB	0e7H
	DB	09bH
	DB	0d6H
	DB	0bbH
	DB	0d6H
	DB	09aH
	DB	0d6H
	DB	0fcH
	DB	0deH
	DB	0bbH
	DB	0deH
	DB	0bcH
	DB	0deH
	DB	0bbH
	DB	0deH
	DB	0dbH
	DB	0deH
	DB	0dcH
	DB	0deH
	DB	0bbH
	DB	0deH
	DB	0dcH
	DB	0deH
	DB	0bbH
	DB	0d6H
	DB	0bbH
	DB	0d6H
	DB	0dbH
	DB	0deH
	DB	0dcH
	DB	0d6H
	DB	0bbH
	DB	0deH
	DB	0bbH
	DB	0d6H
	DB	0bbH
	DB	0d6H
	DB	0dcH
	DB	0deH
	DB	0bbH
	DB	0deH
	DB	0bbH
	DB	0deH
	DB	0bbH
	DB	0d6H
	DB	0bcH
	DB	0deH
	DB	0bbH
	DB	0d6H
	DB	0bbH
	DB	0d6H
	DB	0bbH
	DB	0deH
	DB	0bbH
	DB	0deH
	DB	0bbH
	DB	0d6H
	DB	0bbH
	DB	0deH
	DB	0bcH
	DB	0deH
	DB	0dcH
	DB	0deH
	DB	0bbH
	DB	0deH
	DB	0bbH
	DB	0d6H
	DB	0dbH
	DB	0deH
	DB	0dcH
	DB	0d6H
	DB	0dbH
	DB	0deH
	DB	0dbH
	DB	0deH
	DB	0bbH
	DB	0d6H
	DB	0bcH
	DB	0deH
	DB	0bbH
	DB	0d6H
	DB	0bbH
	DB	0d6H
	DB	0bbH
	DB	0d6H
	DB	0bbH
	DB	0deH
	DB	0dbH
	DB	0deH
	DB	0bbH
	DB	0d6H
	DB	0bbH
	DB	0d6H
	DB	0bbH
	DB	0deH
	DB	0bbH
	DB	0d6H
	DB	0dcH
	DB	0deH
	DB	0bbH
	DB	0d6H
	DB	0bbH
	DB	0deH
	DB	0dcH
	DB	0deH
	DB	0bbH
	DB	0deH
	DB	0dbH
	DB	0d6H
	DB	0dcH
	DB	0deH
	DB	0bbH
	DB	0deH
	DB	0dbH
	DB	0d6H
	DB	0bcH
	DB	0deH
	DB	0bbH
	DB	0deH
	DB	0dbH
	DB	0d6H
	DB	0dcH
	DB	0d6H
	DB	0bbH
	DB	0deH
	DB	0bbH
	DB	0deH
	DB	0dcH
	DB	0d6H
	DB	0dbH
	DB	0deH
	DB	0bbH
	DB	0d6H
	DB	0bbH
	DB	0d6H
	DB	0dbH
	DB	0deH
	DB	0bbH
	DB	0deH
	DB	0dcH
	DB	0d6H
	DB	0bbH
	DB	0deH
	DB	0bbH
	DB	0d6H
	DB	0bbH
	DB	0d6H
	DB	0dcH
	DB	0deH
	DB	0dbH
	DB	0deH
	DB	0bbH
	DB	0d6H
	DB	0dbH
	DB	0deH
	DB	0dbH
	DB	0deH
	DB	0bbH
	DB	0d6H
	DB	0bbH
	DB	0d6H
	DB	0dbH
	DB	0deH
	DB	0bbH
	DB	0d6H
	DB	0bbH
	DB	0deH
	DB	0bbH
	DB	0d6H
	DB	0bbH
	DB	0d6H
	DB	0bbH
	DB	0deH
	DB	0bbH
	DB	0deH
	DB	0dcH
	DB	0deH
	DB	0bbH
	DB	0d6H
	DB	09bH
	DB	0d6H
	DB	0fcH
	DB	0deH
	DB	09bH
	DB	0d6H
	DB	0fcH
	DB	0deH
	DB	076H
	DB	0b5H
	DB	045H
	DB	029H
	DB	0abH
	DB	052H
	DB	051H
	DB	08cH
	DB	0b7H
	DB	0bdH
	DB	0fcH
	DB	0e6H
	DB	03dH
	DB	0e7H
	DB	01dH
	DB	0e7H
	DB	0fcH
	DB	0deH
	DB	09bH
	DB	0d6H
	DB	0bbH
	DB	0d6H
	DB	09bH
	DB	0d6H
	DB	0fcH
	DB	0deH
	DB	07aH
	DB	0ceH
	DB	05aH
	DB	0ceH
	DB	0dcH
	DB	0deH
	DB	0dcH
	DB	0deH
	DB	09bH
	DB	0d6H
	DB	09bH
	DB	0d6H
	DB	0dbH
	DB	0deH
	DB	0fcH
	DB	0deH
	DB	07aH
	DB	0ceH
	DB	06aH
	DB	052H
	DB	021H
	DB	00H
	DB	0c3H
	DB	018H
	DB	045H
	DB	029H
	DB	00H
	DB	00H
	DB	041H
	DB	08H
	DB	0e4H
	DB	020H
	DB	0cH
	DB	063H
	DB	0f4H
	DB	0a4H
	DB	0d3H
	DB	09cH
	DB	072H
	DB	094H
	DB	092H
	DB	094H
	DB	0f4H
	DB	0a4H
	DB	0d8H
	DB	0bdH
	DB	018H
	DB	0c6H
	DB	07aH
	DB	0d6H
	DB	07aH
	DB	0d6H
	DB	0f8H
	DB	0c5H
	DB	0dcH
	DB	0deH
	DB	0bbH
	DB	0deH
	DB	0dbH
	DB	0deH
	DB	0bbH
	DB	0deH
	DB	0bbH
	DB	0deH
	DB	0bbH
	DB	0d6H
	DB	0dcH
	DB	0deH
	DB	09aH
	DB	0ceH
	DB	049H
	DB	042H
	DB	06eH
	DB	063H
	DB	072H
	DB	07cH
	DB	051H
	DB	07cH
	DB	052H
	DB	074H
	DB	092H
	DB	074H
	DB	051H
	DB	06cH
	DB	091H
	DB	06cH
	DB	051H
	DB	06cH
	DB	030H
	DB	06cH
	DB	0b2H
	DB	084H
	DB	0d3H
	DB	08cH
	DB	030H
	DB	07cH
	DB	0e7H
	DB	031H
	DB	021H
	DB	00H
	DB	00H
	DB	00H
	DB	00H
	DB	00H
	DB	0c3H
	DB	010H
	DB	04dH
	DB	05bH
	DB	092H
	DB	084H
	DB	092H
	DB	07cH
	DB	032H
	DB	074H
	DB	011H
	DB	06cH
	DB	092H
	DB	07cH
	DB	092H
	DB	07cH
	DB	04dH
	DB	05bH
	DB	082H
	DB	08H
	DB	020H
	DB	00H
	DB	041H
	DB	08H
	DB	00H
	DB	00H
	DB	00H
	DB	00H
	DB	020H
	DB	00H
	DB	00H
	DB	00H
	DB	00H
	DB	00H
	DB	00H
	DB	00H
	DB	00H
	DB	00H
	DB	00H
	DB	00H
	DB	00H
	DB	00H
	DB	00H
	DB	00H
	DB	00H
	DB	00H
	DB	00H
	DB	00H
	DB	00H
	DB	00H
	DB	00H
	DB	00H
	DB	00H
	DB	00H
	DB	00H
	DB	00H
	DB	00H
	DB	00H
	DB	00H
	DB	00H
	DB	00H
	DB	00H
	DB	00H
	DB	00H
	DB	00H
	DB	00H
	DB	00H
	DB	00H
	DB	00H
	DB	00H
	DB	00H
	DB	00H
	DB	00H
	DB	00H
	DB	00H
	DB	00H
	DB	00H
	DB	00H
	DB	020H
	DB	00H
	DB	00H
	DB	00H
	DB	00H
	DB	00H
	DB	020H
	DB	00H
	DB	021H
	DB	08H
	DB	00H
	DB	00H
	DB	041H
	DB	08H
	DB	00H
	DB	00H
	DB	0e4H
	DB	018H
	DB	0f8H
	DB	0c5H
	DB	0bbH
	DB	0d6H
	DB	0bbH
	DB	0deH
	DB	0fcH
	DB	0e6H
	DB	0bbH
	DB	0d6H
	DB	09bH
	DB	0d6H
	DB	0bbH
	DB	0d6H
	DB	0dbH
	DB	0deH
	DB	0bbH
	DB	0deH
	DB	0bbH
	DB	0d6H
	DB	0bbH
	DB	0d6H
	DB	0dbH
	DB	0deH
	DB	0bbH
	DB	0d6H
	DB	0dbH
	DB	0deH
	DB	0bbH
	DB	0d6H
	DB	0bbH
	DB	0deH
	DB	0bbH
	DB	0deH
	DB	0bbH
	DB	0d6H
	DB	0bbH
	DB	0deH
	DB	0dbH
	DB	0deH
	DB	0bbH
	DB	0d6H
	DB	0bbH
	DB	0d6H
	DB	0bbH
	DB	0deH
	DB	0bbH
	DB	0d6H
	DB	0bbH
	DB	0deH
	DB	0bbH
	DB	0d6H
	DB	0bcH
	DB	0d6H
	DB	0bbH
	DB	0deH
	DB	0dbH
	DB	0d6H
	DB	0bbH
	DB	0d6H
	DB	0bbH
	DB	0deH
	DB	0bbH
	DB	0d6H
	DB	0bbH
	DB	0d6H
	DB	0bbH
	DB	0deH
	DB	0dbH
	DB	0d6H
	DB	0bbH
	DB	0d6H
	DB	0bbH
	DB	0deH
	DB	0dbH
	DB	0d6H
	DB	0dbH
	DB	0deH
	DB	0bbH
	DB	0d6H
	DB	0bbH
	DB	0deH
	DB	0bbH
	DB	0d6H
	DB	0bbH
	DB	0deH
	DB	0bbH
	DB	0deH
	DB	0bbH
	DB	0d6H
	DB	0bbH
	DB	0d6H
	DB	0bbH
	DB	0deH
	DB	0dcH
	DB	0deH
	DB	0dbH
	DB	0d6H
	DB	0dbH
	DB	0deH
	DB	0bcH
	DB	0deH
	DB	0dbH
	DB	0d6H
	DB	0bbH
	DB	0d6H
	DB	0bcH
	DB	0deH
	DB	0dbH
	DB	0deH
	DB	0bbH
	DB	0d6H
	DB	0bbH
	DB	0deH
	DB	0dbH
	DB	0deH
	DB	0dbH
	DB	0d6H
	DB	0bbH
	DB	0d6H
	DB	0bbH
	DB	0deH
	DB	0dcH
	DB	0deH
	DB	0bbH
	DB	0d6H
	DB	0bbH
	DB	0d6H
	DB	0dbH
	DB	0deH
	DB	0bbH
	DB	0deH
	DB	0bbH
	DB	0deH
	DB	0bbH
	DB	0d6H
	DB	0bbH
	DB	0deH
	DB	0dbH
	DB	0deH
	DB	0bbH
	DB	0d6H
	DB	0dcH
	DB	0deH
	DB	0bbH
	DB	0d6H
	DB	0bbH
	DB	0deH
	DB	0dbH
	DB	0deH
	DB	0bbH
	DB	0d6H
	DB	0bcH
	DB	0d6H
	DB	0dbH
	DB	0deH
	DB	0dbH
	DB	0deH
	DB	0bbH
	DB	0deH
	DB	0bbH
	DB	0d6H
	DB	0bbH
	DB	0deH
	DB	0dcH
	DB	0deH
	DB	0dbH
	DB	0deH
	DB	0bbH
	DB	0deH
	DB	0bbH
	DB	0d6H
	DB	0bbH
	DB	0d6H
	DB	0dbH
	DB	0deH
	DB	0bbH
	DB	0d6H
	DB	0bbH
	DB	0deH
	DB	0dbH
	DB	0deH
	DB	0bbH
	DB	0d6H
	DB	0dcH
	DB	0deH
	DB	0dbH
	DB	0deH
	DB	035H
	DB	0a5H
	DB	00H
	DB	00H
	DB	041H
	DB	08H
	DB	021H
	DB	00H
	DB	025H
	DB	029H
	DB	08H
	DB	042H
	DB	031H
	DB	084H
	DB	0bbH
	DB	0deH
	DB	0bbH
	DB	0d6H
	DB	07eH
	DB	0efH
	DB	0bbH
	DB	0deH
	DB	0dcH
	DB	0deH
	DB	0dcH
	DB	0deH
	DB	0fcH
	DB	0deH
	DB	0dbH
	DB	0deH
	DB	0bbH
	DB	0d6H
	DB	09aH
	DB	0d6H
	DB	01dH
	DB	0e7H
	DB	0dbH
	DB	0d6H
	DB	09bH
	DB	0d6H
	DB	09aH
	DB	0d6H
	DB	0b7H
	DB	0b5H
	DB	087H
	DB	031H
	DB	041H
	DB	08H
	DB	042H
	DB	08H
	DB	041H
	DB	08H
	DB	020H
	DB	00H
	DB	062H
	DB	08H
	DB	024H
	DB	021H
	DB	082H
	DB	010H
	DB	082H
	DB	010H
	DB	069H
	DB	04aH
	DB	06aH
	DB	052H
	DB	062H
	DB	010H
	DB	087H
	DB	031H
	DB	086H
	DB	031H
	DB	04H
	DB	021H
	DB	025H
	DB	021H
	DB	0a3H
	DB	018H
	DB	08bH
	DB	052H
	DB	01dH
	DB	0e7H
	DB	0dcH
	DB	0deH
	DB	09bH
	DB	0d6H
	DB	0bbH
	DB	0d6H
	DB	0bbH
	DB	0deH
	DB	0bbH
	DB	0d6H
	DB	0fcH
	DB	0deH
	DB	09aH
	DB	0ceH
	DB	049H
	DB	042H
	DB	08eH
	DB	063H
	DB	072H
	DB	07cH
	DB	072H
	DB	07cH
	DB	072H
	DB	074H
	DB	092H
	DB	074H
	DB	092H
	DB	074H
	DB	071H
	DB	06cH
	DB	0b2H
	DB	074H
	DB	0b2H
	DB	07cH
	DB	072H
	DB	07cH
	DB	0afH
	DB	06bH
	DB	065H
	DB	021H
	DB	021H
	DB	00H
	DB	020H
	DB	00H
	DB	020H
	DB	00H
	DB	020H
	DB	00H
	DB	00H
	DB	00H
	DB	0a2H
	DB	08H
	DB	0cbH
	DB	04aH
	DB	0d3H
	DB	08cH
	DB	093H
	DB	084H
	DB	071H
	DB	074H
	DB	031H
	DB	074H
	DB	092H
	DB	07cH
	DB	08eH
	DB	063H
	DB	082H
	DB	08H
	DB	041H
	DB	00H
	DB	041H
	DB	08H
	DB	00H
	DB	00H
	DB	00H
	DB	00H
	DB	00H
	DB	00H
	DB	00H
	DB	00H
	DB	00H
	DB	00H
	DB	00H
	DB	00H
	DB	00H
	DB	00H
	DB	00H
	DB	00H
	DB	00H
	DB	00H
	DB	00H
	DB	00H
	DB	00H
	DB	00H
	DB	00H
	DB	00H
	DB	00H
	DB	00H
	DB	00H
	DB	00H
	DB	00H
	DB	00H
	DB	00H
	DB	00H
	DB	00H
	DB	00H
	DB	00H
	DB	00H
	DB	00H
	DB	00H
	DB	00H
	DB	00H
	DB	00H
	DB	00H
	DB	00H
	DB	00H
	DB	00H
	DB	00H
	DB	00H
	DB	00H
	DB	00H
	DB	00H
	DB	00H
	DB	00H
	DB	00H
	DB	00H
	DB	00H
	DB	00H
	DB	00H
	DB	00H
	DB	00H
	DB	00H
	DB	00H
	DB	00H
	DB	020H
	DB	08H
	DB	021H
	DB	00H
	DB	041H
	DB	08H
	DB	021H
	DB	08H
	DB	00H
	DB	00H
	DB	0efH
	DB	07bH
	DB	01cH
	DB	0e7H
	DB	09aH
	DB	0d6H
	DB	0bbH
	DB	0d6H
	DB	0dbH
	DB	0deH
	DB	0dbH
	DB	0deH
	DB	0dbH
	DB	0deH
	DB	0bbH
	DB	0d6H
	DB	0bbH
	DB	0d6H
	DB	0bbH
	DB	0d6H
	DB	0dcH
	DB	0deH
	DB	0bbH
	DB	0d6H
	DB	0bbH
	DB	0deH
	DB	0dcH
	DB	0deH
	DB	0bbH
	DB	0d6H
	DB	0bbH
	DB	0d6H
	DB	0bbH
	DB	0d6H
	DB	0dbH
	DB	0deH
	DB	0bbH
	DB	0d6H
	DB	0bbH
	DB	0deH
	DB	0dcH
	DB	0deH
	DB	0bbH
	DB	0d6H
	DB	0dbH
	DB	0deH
	DB	0dbH
	DB	0deH
	DB	0bbH
	DB	0d6H
	DB	0dcH
	DB	0deH
	DB	0bbH
	DB	0d6H
	DB	0bbH
	DB	0deH
	DB	0bbH
	DB	0d6H
	DB	0bbH
	DB	0d6H
	DB	0bbH
	DB	0d6H
	DB	0dbH
	DB	0deH
	DB	0bbH
	DB	0d6H
	DB	0dcH
	DB	0deH
	DB	0bbH
	DB	0d6H
	DB	0bbH
	DB	0deH
	DB	0bbH
	DB	0d6H
	DB	0bcH
	DB	0d6H
	DB	0bbH
	DB	0deH
	DB	0dbH
	DB	0deH
	DB	0bbH
	DB	0d6H
	DB	0dbH
	DB	0deH
	DB	0bbH
	DB	0d6H
	DB	0dcH
	DB	0deH
	DB	0bbH
	DB	0d6H
	DB	0bbH
	DB	0deH
	DB	0bcH
	DB	0deH
	DB	0bbH
	DB	0d6H
	DB	0dbH
	DB	0deH
	DB	0bbH
	DB	0deH
	DB	0dbH
	DB	0d6H
	DB	0dbH
	DB	0deH
	DB	0bbH
	DB	0deH
	DB	0dbH
	DB	0d6H
	DB	0bbH
	DB	0deH
	DB	0bbH
	DB	0d6H
	DB	0dcH
	DB	0d6H
	DB	0bbH
	DB	0deH
	DB	0dbH
	DB	0deH
	DB	0bcH
	DB	0deH
	DB	0bbH
	DB	0deH
	DB	0dbH
	DB	0deH
	DB	0dbH
	DB	0deH
	DB	0bbH
	DB	0d6H
	DB	0dcH
	DB	0deH
	DB	0bbH
	DB	0d6H
	DB	0bbH
	DB	0d6H
	DB	0dcH
	DB	0deH
	DB	0bbH
	DB	0d6H
	DB	0dbH
	DB	0deH
	DB	0dbH
	DB	0deH
	DB	0bbH
	DB	0deH
	DB	0dcH
	DB	0deH
	DB	0dbH
	DB	0d6H
	DB	0bbH
	DB	0deH
	DB	0dcH
	DB	0deH
	DB	0bbH
	DB	0d6H
	DB	0bbH
	DB	0deH
	DB	0dcH
	DB	0d6H
	DB	0dcH
	DB	0deH
	DB	0bbH
	DB	0d6H
	DB	0bbH
	DB	0d6H
	DB	0dbH
	DB	0deH
	DB	0bbH
	DB	0d6H
	DB	0bbH
	DB	0deH
	DB	0bbH
	DB	0d6H
	DB	0dcH
	DB	0deH
	DB	0dbH
	DB	0deH
	DB	0bbH
	DB	0d6H
	DB	0bbH
	DB	0d6H
	DB	0bbH
	DB	0deH
	DB	0bbH
	DB	0d6H
	DB	0dbH
	DB	0deH
	DB	0fcH
	DB	0e6H
	DB	0fcH
	DB	0deH
	DB	0abH
	DB	05aH
	DB	0e4H
	DB	018H
	DB	083H
	DB	010H
	DB	021H
	DB	00H
	DB	00H
	DB	00H
	DB	00H
	DB	00H
	DB	0a3H
	DB	010H
	DB	0ccH
	DB	05aH
	DB	035H
	DB	0adH
	DB	059H
	DB	0ceH
	DB	03dH
	DB	0e7H
	DB	09bH
	DB	0d6H
	DB	0dcH
	DB	0deH
	DB	0dcH
	DB	0deH
	DB	0dcH
	DB	0deH
	DB	0bbH
	DB	0deH
	DB	09bH
	DB	0d6H
	DB	0bbH
	DB	0d6H
	DB	09bH
	DB	0d6H
	DB	0dbH
	DB	0deH
	DB	0bbH
	DB	0deH
	DB	0cH
	DB	063H
	DB	01H
	DB	00H
	DB	00H
	DB	00H
	DB	00H
	DB	00H
	DB	021H
	DB	00H
	DB	00H
	DB	00H
	DB	020H
	DB	00H
	DB	041H
	DB	08H
	DB	0a3H
	DB	018H
	DB	06eH
	DB	073H
	DB	04dH
	DB	06bH
	DB	041H
	DB	08H
	DB	00H
	DB	00H
	DB	00H
	DB	00H
	DB	00H
	DB	00H
	DB	046H
	DB	029H
	DB	0c8H
	DB	039H
	DB	0ccH
	DB	05aH
	DB	0bbH
	DB	0deH
	DB	09bH
	DB	0d6H
	DB	0bbH
	DB	0deH
	DB	0bbH
	DB	0d6H
	DB	0dbH
	DB	0deH
	DB	09bH
	DB	0d6H
	DB	0dcH
	DB	0deH
	DB	07aH
	DB	0ceH
	DB	029H
	DB	03aH
	DB	0cfH
	DB	063H
	DB	071H
	DB	07cH
	DB	092H
	DB	07cH
	DB	051H
	DB	06cH
	DB	071H
	DB	074H
	DB	0b2H
	DB	07cH
	DB	0b2H
	DB	07cH
	DB	051H
	DB	074H
	DB	092H
	DB	07cH
	DB	0cfH
	DB	06bH
	DB	086H
	DB	021H
	DB	00H
	DB	00H
	DB	01H
	DB	00H
	DB	042H
	DB	08H
	DB	020H
	DB	00H
	DB	021H
	DB	08H
	DB	021H
	DB	00H
	DB	00H
	DB	00H
	DB	00H
	DB	00H
	DB	0a6H
	DB	021H
	DB	0f0H
	DB	073H
	DB	051H
	DB	07cH
	DB	0b2H
	DB	084H
	DB	071H
	DB	07cH
	DB	0f0H
	DB	073H
	DB	0a3H
	DB	010H
	DB	021H
	DB	00H
	DB	021H
	DB	00H
	DB	020H
	DB	00H
	DB	00H
	DB	00H
	DB	00H
	DB	00H
	DB	00H
	DB	00H
	DB	00H
	DB	00H
	DB	00H
	DB	00H
	DB	00H
	DB	00H
	DB	00H
	DB	00H
	DB	00H
	DB	00H
	DB	00H
	DB	00H
	DB	00H
	DB	00H
	DB	00H
	DB	00H
	DB	00H
	DB	00H
	DB	00H
	DB	00H
	DB	00H
	DB	00H
	DB	00H
	DB	00H
	DB	00H
	DB	00H
	DB	00H
	DB	00H
	DB	00H
	DB	00H
	DB	00H
	DB	00H
	DB	00H
	DB	00H
	DB	00H
	DB	00H
	DB	00H
	DB	00H
	DB	00H
	DB	00H
	DB	00H
	DB	00H
	DB	00H
	DB	00H
	DB	00H
	DB	00H
	DB	020H
	DB	00H
	DB	00H
	DB	00H
	DB	00H
	DB	00H
	DB	00H
	DB	00H
	DB	021H
	DB	08H
	DB	021H
	DB	08H
	DB	00H
	DB	00H
	DB	021H
	DB	00H
	DB	00H
	DB	00H
	DB	025H
	DB	021H
	DB	059H
	DB	0ceH
	DB	0fcH
	DB	0deH
	DB	0dbH
	DB	0deH
	DB	0fcH
	DB	0deH
	DB	0bbH
	DB	0d6H
	DB	0bbH
	DB	0d6H
	DB	0bbH
	DB	0deH
	DB	0bbH
	DB	0d6H
	DB	0bbH
	DB	0deH
	DB	0dbH
	DB	0deH
	DB	0bbH
	DB	0d6H
	DB	0bbH
	DB	0deH
	DB	0dbH
	DB	0deH
	DB	0dcH
	DB	0deH
	DB	0bbH
	DB	0d6H
	DB	0bbH
	DB	0d6H
	DB	0bcH
	DB	0deH
	DB	0bbH
	DB	0d6H
	DB	0dcH
	DB	0deH
	DB	0dbH
	DB	0deH
	DB	0bbH
	DB	0d6H
	DB	0bbH
	DB	0d6H
	DB	0bbH
	DB	0deH
	DB	0bbH
	DB	0d6H
	DB	0dbH
	DB	0deH
	DB	0bbH
	DB	0d6H
	DB	0bbH
	DB	0deH
	DB	0dbH
	DB	0deH
	DB	0bcH
	DB	0deH
	DB	0dbH
	DB	0deH
	DB	0bbH
	DB	0deH
	DB	0bbH
	DB	0deH
	DB	0bbH
	DB	0d6H
	DB	0bbH
	DB	0deH
	DB	0dbH
	DB	0deH
	DB	0bbH
	DB	0deH
	DB	0bbH
	DB	0d6H
	DB	0bbH
	DB	0deH
	DB	0dcH
	DB	0deH
	DB	0bbH
	DB	0d6H
	DB	0bbH
	DB	0deH
	DB	0bbH
	DB	0d6H
	DB	0bbH
	DB	0d6H
	DB	0bbH
	DB	0deH
	DB	0bbH
	DB	0deH
	DB	0dbH
	DB	0d6H
	DB	0dbH
	DB	0deH
	DB	0bcH
	DB	0deH
	DB	0bbH
	DB	0d6H
	DB	0dbH
	DB	0deH
	DB	0bcH
	DB	0deH
	DB	0bbH
	DB	0d6H
	DB	0bbH
	DB	0d6H
	DB	0dcH
	DB	0deH
	DB	0dbH
	DB	0deH
	DB	0bbH
	DB	0deH
	DB	0dcH
	DB	0d6H
	DB	0bbH
	DB	0deH
	DB	0dbH
	DB	0d6H
	DB	0dbH
	DB	0d6H
	DB	0bbH
	DB	0d6H
	DB	0bbH
	DB	0deH
	DB	0bcH
	DB	0deH
	DB	0bbH
	DB	0d6H
	DB	0dbH
	DB	0deH
	DB	0dcH
	DB	0deH
	DB	0bbH
	DB	0d6H
	DB	0bbH
	DB	0d6H
	DB	0dcH
	DB	0deH
	DB	0bbH
	DB	0d6H
	DB	0bbH
	DB	0d6H
	DB	0dbH
	DB	0deH
	DB	0bcH
	DB	0d6H
	DB	0bbH
	DB	0deH
	DB	0bbH
	DB	0d6H
	DB	0bbH
	DB	0deH
	DB	0dbH
	DB	0deH
	DB	0bbH
	DB	0d6H
	DB	0bbH
	DB	0deH
	DB	0bbH
	DB	0deH
	DB	0bbH
	DB	0d6H
	DB	0dbH
	DB	0deH
	DB	0bbH
	DB	0d6H
	DB	0bbH
	DB	0deH
	DB	0bbH
	DB	0d6H
	DB	0bbH
	DB	0d6H
	DB	0bbH
	DB	0deH
	DB	0bbH
	DB	0d6H
	DB	0dcH
	DB	0deH
	DB	0bbH
	DB	0d6H
	DB	0dbH
	DB	0deH
	DB	0bbH
	DB	0deH
	DB	09bH
	DB	0d6H
	DB	0fcH
	DB	0deH
	DB	01dH
	DB	0e7H
	DB	018H
	DB	0c6H
	DB	0afH
	DB	073H
	DB	0abH
	DB	052H
	DB	046H
	DB	029H
	DB	0a3H
	DB	010H
	DB	00H
	DB	00H
	DB	00H
	DB	00H
	DB	063H
	DB	010H
	DB	029H
	DB	042H
	DB	072H
	DB	08cH
	DB	09bH
	DB	0d6H
	DB	0dcH
	DB	0deH
	DB	0bbH
	DB	0deH
	DB	0dbH
	DB	0deH
	DB	09bH
	DB	0d6H
	DB	0dbH
	DB	0d6H
	DB	0dcH
	DB	0deH
	DB	0bbH
	DB	0deH
	DB	01cH
	DB	0e7H
	DB	076H
	DB	0adH
	DB	087H
	DB	031H
	DB	062H
	DB	08H
	DB	042H
	DB	08H
	DB	041H
	DB	08H
	DB	061H
	DB	08H
	DB	062H
	DB	08H
	DB	00H
	DB	00H
	DB	0a3H
	DB	018H
	DB	061H
	DB	08H
	DB	00H
	DB	00H
	DB	00H
	DB	00H
	DB	00H
	DB	00H
	DB	00H
	DB	00H
	DB	00H
	DB	00H
	DB	00H
	DB	00H
	DB	02dH
	DB	06bH
	DB	0d4H
	DB	09cH
	DB	0b3H
	DB	09cH
	DB	0fcH
	DB	0e6H
	DB	0bbH
	DB	0deH
	DB	0bbH
	DB	0deH
	DB	0baH
	DB	0d6H
	DB	0dbH
	DB	0deH
	DB	09aH
	DB	0d6H
	DB	0fcH
	DB	0deH
	DB	09aH
	DB	0ceH
	DB	08H
	DB	032H
	DB	0efH
	DB	06bH
	DB	051H
	DB	074H
	DB	092H
	DB	074H
	DB	051H
	DB	074H
	DB	071H
	DB	074H
	DB	092H
	DB	074H
	DB	071H
	DB	074H
	DB	0b2H
	DB	07cH
	DB	051H
	DB	07cH
	DB	0c7H
	DB	029H
	DB	062H
	DB	08H
	DB	020H
	DB	00H
	DB	021H
	DB	08H
	DB	01H
	DB	08H
	DB	021H
	DB	08H
	DB	021H
	DB	00H
	DB	00H
	DB	00H
	DB	021H
	DB	00H
	DB	021H
	DB	00H
	DB	041H
	DB	00H
	DB	0c4H
	DB	010H
	DB	0cbH
	DB	04aH
	DB	010H
	DB	074H
	DB	0d3H
	DB	08cH
	DB	051H
	DB	084H
	DB	024H
	DB	019H
	DB	020H
	DB	00H
	DB	00H
	DB	00H
	DB	00H
	DB	00H
	DB	00H
	DB	00H
	DB	00H
	DB	00H
	DB	00H
	DB	00H
	DB	00H
	DB	00H
	DB	00H
	DB	00H
	DB	00H
	DB	00H
	DB	00H
	DB	00H
	DB	00H
	DB	00H
	DB	00H
	DB	00H
	DB	00H
	DB	00H
	DB	00H
	DB	00H
	DB	00H
	DB	00H
	DB	00H
	DB	00H
	DB	00H
	DB	00H
	DB	00H
	DB	00H
	DB	00H
	DB	00H
	DB	00H
	DB	00H
	DB	00H
	DB	00H
	DB	00H
	DB	00H
	DB	00H
	DB	00H
	DB	00H
	DB	00H
	DB	00H
	DB	00H
	DB	00H
	DB	00H
	DB	00H
	DB	00H
	DB	00H
	DB	00H
	DB	00H
	DB	00H
	DB	01H
	DB	00H
	DB	00H
	DB	00H
	DB	021H
	DB	08H
	DB	021H
	DB	08H
	DB	00H
	DB	00H
	DB	020H
	DB	00H
	DB	021H
	DB	00H
	DB	021H
	DB	00H
	DB	021H
	DB	08H
	DB	00H
	DB	00H
	DB	0f0H
	DB	07bH
	DB	03dH
	DB	0e7H
	DB	0bbH
	DB	0deH
	DB	0dbH
	DB	0deH
	DB	0dbH
	DB	0deH
	DB	0bbH
	DB	0d6H
	DB	0dbH
	DB	0deH
	DB	0bbH
	DB	0deH
	DB	0bbH
	DB	0d6H
	DB	0dcH
	DB	0deH
	DB	0dbH
	DB	0deH
	DB	0bbH
	DB	0d6H
	DB	0bbH
	DB	0d6H
	DB	0bbH
	DB	0deH
	DB	0bbH
	DB	0deH
	DB	0dbH
	DB	0deH
	DB	0dbH
	DB	0deH
	DB	0dbH
	DB	0deH
	DB	0bbH
	DB	0d6H
	DB	0bbH
	DB	0d6H
	DB	0bbH
	DB	0deH
	DB	0bbH
	DB	0d6H
	DB	0dcH
	DB	0deH
	DB	0bbH
	DB	0deH
	DB	0bbH
	DB	0d6H
	DB	0dcH
	DB	0deH
	DB	0bbH
	DB	0d6H
	DB	0bbH
	DB	0d6H
	DB	0dbH
	DB	0deH
	DB	0dcH
	DB	0deH
	DB	0bbH
	DB	0d6H
	DB	0bbH
	DB	0d6H
	DB	0bbH
	DB	0d6H
	DB	0bbH
	DB	0deH
	DB	0dcH
	DB	0d6H
	DB	0dcH
	DB	0deH
	DB	0bbH
	DB	0deH
	DB	0bbH
	DB	0d6H
	DB	0dcH
	DB	0deH
	DB	0bbH
	DB	0d6H
	DB	0bbH
	DB	0d6H
	DB	0dcH
	DB	0deH
	DB	0bbH
	DB	0deH
	DB	0dbH
	DB	0d6H
	DB	0bcH
	DB	0deH
	DB	0dbH
	DB	0d6H
	DB	0bbH
	DB	0d6H
	DB	0bbH
	DB	0d6H
	DB	0dcH
	DB	0deH
	DB	0bbH
	DB	0d6H
	DB	0bbH
	DB	0deH
	DB	0dcH
	DB	0deH
	DB	0dbH
	DB	0deH
	DB	0bbH
	DB	0d6H
	DB	0bbH
	DB	0deH
	DB	0dbH
	DB	0deH
	DB	0bbH
	DB	0d6H
	DB	0bcH
	DB	0deH
	DB	0dbH
	DB	0deH
	DB	0bcH
	DB	0d6H
	DB	0bbH
	DB	0deH
	DB	0dbH
	DB	0deH
	DB	0dbH
	DB	0d6H
	DB	0bbH
	DB	0deH
	DB	0bbH
	DB	0d6H
	DB	0bbH
	DB	0deH
	DB	0dbH
	DB	0deH
	DB	0bbH
	DB	0deH
	DB	0dcH
	DB	0deH
	DB	0bbH
	DB	0deH
	DB	0dbH
	DB	0d6H
	DB	0dcH
	DB	0deH
	DB	0bbH
	DB	0deH
	DB	0dbH
	DB	0d6H
	DB	0dbH
	DB	0deH
	DB	0dcH
	DB	0deH
	DB	0bbH
	DB	0d6H
	DB	0dbH
	DB	0deH
	DB	0dcH
	DB	0deH
	DB	0dbH
	DB	0deH
	DB	0bbH
	DB	0d6H
	DB	0bcH
	DB	0deH
	DB	0bbH
	DB	0deH
	DB	0bbH
	DB	0d6H
	DB	0dbH
	DB	0deH
	DB	0bbH
	DB	0d6H
	DB	0bbH
	DB	0deH
	DB	0bbH
	DB	0deH
	DB	0bbH
	DB	0d6H
	DB	0bbH
	DB	0d6H
	DB	0dcH
	DB	0deH
	DB	09bH
	DB	0d6H
	DB	0dbH
	DB	0deH
	DB	0dbH
	DB	0deH
	DB	0bbH
	DB	0d6H
	DB	01dH
	DB	0e7H
	DB	014H
	DB	0a5H
	DB	0f4H
	DB	09cH
	DB	09bH
	DB	0d6H
	DB	059H
	DB	0ceH
	DB	0d0H
	DB	07bH
	DB	0ecH
	DB	05aH
	DB	0a3H
	DB	018H
	DB	0cH
	DB	063H
	DB	0d0H
	DB	07bH
	DB	052H
	DB	08cH
	DB	0dbH
	DB	0deH
	DB	0bbH
	DB	0d6H
	DB	0bbH
	DB	0d6H
	DB	0bbH
	DB	0d6H
	DB	0bbH
	DB	0d6H
	DB	0dbH
	DB	0deH
	DB	0bbH
	DB	0d6H
	DB	0bbH
	DB	0d6H
	DB	09bH
	DB	0d6H
	DB	076H
	DB	0adH
	DB	0d7H
	DB	0bdH
	DB	0f8H
	DB	0bdH
	DB	0f8H
	DB	0bdH
	DB	0b7H
	DB	0bdH
	DB	0d7H
	DB	0bdH
	DB	097H
	DB	0b5H
	DB	0d7H
	DB	0bdH
	DB	0f8H
	DB	0bdH
	DB	035H
	DB	0adH
	DB	011H
	DB	084H
	DB	011H
	DB	084H
	DB	0f0H
	DB	083H
	DB	011H
	DB	084H
	DB	031H
	DB	08cH
	DB	0d4H
	DB	09cH
	DB	039H
	DB	0ceH
	DB	0bbH
	DB	0deH
	DB	01cH
	DB	0e7H
	DB	07aH
	DB	0d6H
	DB	0bbH
	DB	0deH
	DB	0bbH
	DB	0d6H
	DB	0bbH
	DB	0d6H
	DB	0bbH
	DB	0d6H
	DB	0dcH
	DB	0deH
	DB	059H
	DB	0beH
	DB	08H
	DB	032H
	DB	0f0H
	DB	06bH
	DB	072H
	DB	074H
	DB	0b2H
	DB	07cH
	DB	071H
	DB	074H
	DB	051H
	DB	06cH
	DB	072H
	DB	074H
	DB	0d2H
	DB	07cH
	DB	010H
	DB	06cH
	DB	086H
	DB	021H
	DB	041H
	DB	00H
	DB	00H
	DB	00H
	DB	01H
	DB	00H
	DB	021H
	DB	08H
	DB	00H
	DB	00H
	DB	00H
	DB	08H
	DB	00H
	DB	00H
	DB	00H
	DB	00H
	DB	00H
	DB	00H
	DB	021H
	DB	00H
	DB	021H
	DB	00H
	DB	01H
	DB	00H
	DB	021H
	DB	00H
	DB	024H
	DB	019H
	DB	02cH
	DB	05bH
	DB	092H
	DB	08cH
	DB	06aH
	DB	04aH
	DB	041H
	DB	08H
	DB	00H
	DB	08H
	DB	00H
	DB	00H
	DB	020H
	DB	00H
	DB	021H
	DB	08H
	DB	00H
	DB	00H
	DB	00H
	DB	00H
	DB	00H
	DB	00H
	DB	00H
	DB	00H
	DB	00H
	DB	00H
	DB	00H
	DB	00H
	DB	00H
	DB	00H
	DB	00H
	DB	00H
	DB	00H
	DB	00H
	DB	00H
	DB	00H
	DB	00H
	DB	00H
	DB	00H
	DB	00H
	DB	00H
	DB	00H
	DB	00H
	DB	00H
	DB	00H
	DB	00H
	DB	00H
	DB	00H
	DB	00H
	DB	00H
	DB	00H
	DB	00H
	DB	00H
	DB	00H
	DB	00H
	DB	00H
	DB	00H
	DB	00H
	DB	00H
	DB	00H
	DB	00H
	DB	00H
	DB	00H
	DB	00H
	DB	00H
	DB	00H
	DB	00H
	DB	00H
	DB	00H
	DB	00H
	DB	020H
	DB	00H
	DB	020H
	DB	00H
	DB	00H
	DB	00H
	DB	00H
	DB	00H
	DB	00H
	DB	00H
	DB	021H
	DB	08H
	DB	00H
	DB	00H
	DB	024H
	DB	021H
	DB	059H
	DB	0ceH
	DB	0dbH
	DB	0deH
	DB	07aH
	DB	0ceH
	DB	01cH
	DB	0e7H
	DB	0bbH
	DB	0deH
	DB	0bbH
	DB	0d6H
	DB	0bbH
	DB	0d6H
	DB	0bbH
	DB	0deH
	DB	0bbH
	DB	0d6H
	DB	0bbH
	DB	0d6H
	DB	0bbH
	DB	0d6H
	DB	0bbH
	DB	0deH
	DB	0bbH
	DB	0d6H
	DB	0dcH
	DB	0deH
	DB	0dbH
	DB	0d6H
	DB	0bbH
	DB	0deH
	DB	0bbH
	DB	0d6H
	DB	0bbH
	DB	0d6H
	DB	0bbH
	DB	0deH
	DB	0bbH
	DB	0deH
	DB	0bbH
	DB	0d6H
	DB	0bbH
	DB	0d6H
	DB	0bbH
	DB	0d6H
	DB	0bbH
	DB	0deH
	DB	0bbH
	DB	0deH
	DB	0dbH
	DB	0deH
	DB	0bbH
	DB	0d6H
	DB	0bbH
	DB	0d6H
	DB	0bbH
	DB	0d6H
	DB	0dcH
	DB	0deH
	DB	0bbH
	DB	0deH
	DB	0bbH
	DB	0d6H
	DB	0bbH
	DB	0d6H
	DB	0dbH
	DB	0deH
	DB	0bbH
	DB	0d6H
	DB	0bbH
	DB	0d6H
	DB	0bbH
	DB	0deH
	DB	0dbH
	DB	0deH
	DB	0bbH
	DB	0d6H
	DB	0bbH
	DB	0deH
	DB	0dbH
	DB	0deH
	DB	0bbH
	DB	0d6H
	DB	0bbH
	DB	0deH
	DB	0bbH
	DB	0d6H
	DB	0bbH
	DB	0deH
	DB	0bbH
	DB	0deH
	DB	0bbH
	DB	0d6H
	DB	0dbH
	DB	0deH
	DB	0bbH
	DB	0d6H
	DB	0dbH
	DB	0d6H
	DB	0bbH
	DB	0deH
	DB	0dbH
	DB	0deH
	DB	0bcH
	DB	0d6H
	DB	0dbH
	DB	0deH
	DB	0dbH
	DB	0d6H
	DB	0bcH
	DB	0deH
	DB	0dbH
	DB	0deH
	DB	0dbH
	DB	0deH
	DB	0bbH
	DB	0deH
	DB	0dcH
	DB	0d6H
	DB	0dbH
	DB	0deH
	DB	0bbH
	DB	0deH
	DB	0dcH
	DB	0d6H
	DB	0dbH
	DB	0deH
	DB	0bbH
	DB	0deH
	DB	0dcH
	DB	0d6H
	DB	0dbH
	DB	0deH
	DB	0bbH
	DB	0deH
	DB	0dbH
	DB	0d6H
	DB	0bbH
	DB	0deH
	DB	0bbH
	DB	0deH
	DB	0dbH
	DB	0deH
	DB	0bbH
	DB	0d6H
	DB	0bbH
	DB	0deH
	DB	0dcH
	DB	0d6H
	DB	0bbH
	DB	0deH
	DB	0bbH
	DB	0d6H
	DB	0dcH
	DB	0d6H
	DB	0dbH
	DB	0deH
	DB	0bbH
	DB	0deH
	DB	0dbH
	DB	0d6H
	DB	0bbH
	DB	0d6H
	DB	0bbH
	DB	0d6H
	DB	0bbH
	DB	0deH
	DB	0dcH
	DB	0deH
	DB	0bbH
	DB	0d6H
	DB	0bbH
	DB	0deH
	DB	0bbH
	DB	0d6H
	DB	0bbH
	DB	0deH
	DB	0dcH
	DB	0deH
	DB	09bH
	DB	0d6H
	DB	0dcH
	DB	0deH
	DB	0dcH
	DB	0deH
	DB	0dbH
	DB	0deH
	DB	03dH
	DB	0e7H
	DB	0cH
	DB	063H
	DB	086H
	DB	031H
	DB	096H
	DB	0b5H
	DB	01cH
	DB	0e7H
	DB	07eH
	DB	0efH
	DB	093H
	DB	094H
	DB	06eH
	DB	06bH
	DB	051H
	DB	08cH
	DB	072H
	DB	08cH
	DB	0f4H
	DB	0a4H
	DB	01dH
	DB	0e7H
	DB	0dcH
	DB	0deH
	DB	0bbH
	DB	0d6H
	DB	0bbH
	DB	0d6H
	DB	0dcH
	DB	0deH
	DB	09aH
	DB	0d6H
	DB	0fcH
	DB	0deH
	DB	0bbH
	DB	0d6H
	DB	01cH
	DB	0e7H
	DB	03dH
	DB	0e7H
	DB	01dH
	DB	0e7H
	DB	03dH
	DB	0e7H
	DB	0fcH
	DB	0e6H
	DB	05dH
	DB	0efH
	DB	0bbH
	DB	0d6H
	DB	0fcH
	DB	0e6H
	DB	03dH
	DB	0efH
	DB	0dcH
	DB	0deH
	DB	0dbH
	DB	0deH
	DB	0fcH
	DB	0e6H
	DB	0dcH
	DB	0e6H
	DB	0bbH
	DB	0deH
	DB	01cH
	DB	0e7H
	DB	03dH
	DB	0e7H
	DB	0bbH
	DB	0deH
	DB	09bH
	DB	0d6H
	DB	0bbH
	DB	0d6H
	DB	07aH
	DB	0d6H
	DB	0bbH
	DB	0d6H
	DB	0dbH
	DB	0deH
	DB	0bbH
	DB	0d6H
	DB	0bbH
	DB	0d6H
	DB	0dcH
	DB	0deH
	DB	0fcH
	DB	0deH
	DB	059H
	DB	0beH
	DB	08H
	DB	032H
	DB	0ceH
	DB	063H
	DB	092H
	DB	074H
	DB	091H
	DB	06cH
	DB	0b2H
	DB	07cH
	DB	0d3H
	DB	07cH
	DB	071H
	DB	074H
	DB	051H
	DB	074H
	DB	08H
	DB	032H
	DB	021H
	DB	00H
	DB	041H
	DB	00H
	DB	021H
	DB	00H
	DB	00H
	DB	00H
	DB	020H
	DB	00H
	DB	00H
	DB	00H
	DB	00H
	DB	08H
	DB	01H
	DB	00H
	DB	00H
	DB	00H
	DB	00H
	DB	00H
	DB	021H
	DB	00H
	DB	041H
	DB	00H
	DB	041H
	DB	08H
	DB	020H
	DB	00H
	DB	041H
	DB	00H
	DB	024H
	DB	019H
	DB	028H
	DB	042H
	DB	066H
	DB	029H
	DB	020H
	DB	00H
	DB	021H
	DB	08H
	DB	020H
	DB	00H
	DB	00H
	DB	00H
	DB	021H
	DB	08H
	DB	00H
	DB	00H
	DB	00H
	DB	00H
	DB	00H
	DB	00H
	DB	00H
	DB	00H
	DB	00H
	DB	00H
	DB	00H
	DB	00H
	DB	00H
	DB	00H
	DB	00H
	DB	00H
	DB	00H
	DB	00H
	DB	00H
	DB	00H
	DB	00H
	DB	00H
	DB	00H
	DB	00H
	DB	00H
	DB	00H
	DB	00H
	DB	00H
	DB	00H
	DB	00H
	DB	00H
	DB	00H
	DB	00H
	DB	00H
	DB	00H
	DB	00H
	DB	00H
	DB	00H
	DB	00H
	DB	00H
	DB	00H
	DB	00H
	DB	00H
	DB	00H
	DB	00H
	DB	00H
	DB	00H
	DB	00H
	DB	00H
	DB	00H
	DB	00H
	DB	00H
	DB	00H
	DB	00H
	DB	00H
	DB	00H
	DB	00H
	DB	00H
	DB	00H
	DB	00H
	DB	020H
	DB	00H
	DB	020H
	DB	00H
	DB	01H
	DB	00H
	DB	00H
	DB	00H
	DB	00H
	DB	00H
	DB	0f0H
	DB	083H
	DB	03dH
	DB	0e7H
	DB	0bbH
	DB	0d6H
	DB	0dbH
	DB	0deH
	DB	0bbH
	DB	0d6H
	DB	0bbH
	DB	0d6H
	DB	0dbH
	DB	0deH
	DB	0bbH
	DB	0deH
	DB	0dcH
	DB	0deH
	DB	0dbH
	DB	0deH
	DB	0bcH
	DB	0deH
	DB	0bbH
	DB	0d6H
	DB	0bbH
	DB	0d6H
	DB	0dcH
	DB	0deH
	DB	0bbH
	DB	0deH
	DB	0bcH
	DB	0d6H
	DB	0dcH
	DB	0deH
	DB	0bbH
	DB	0d6H
	DB	0bbH
	DB	0deH
	DB	0dcH
	DB	0deH
	DB	0bbH
	DB	0d6H
	DB	0bbH
	DB	0deH
	DB	0dbH
	DB	0d6H
	DB	0bbH
	DB	0d6H
	DB	0bbH
	DB	0d6H
	DB	0bbH
	DB	0deH
	DB	0bbH
	DB	0deH
	DB	0bbH
	DB	0d6H
	DB	0bbH
	DB	0deH
	DB	0bbH
	DB	0d6H
	DB	0dbH
	DB	0deH
	DB	0bbH
	DB	0deH
	DB	0bbH
	DB	0d6H
	DB	0bbH
	DB	0d6H
	DB	0dbH
	DB	0deH
	DB	0bbH
	DB	0d6H
	DB	0dcH
	DB	0deH
	DB	0dbH
	DB	0deH
	DB	0bbH
	DB	0d6H
	DB	0bbH
	DB	0deH
	DB	0dcH
	DB	0deH
	DB	0bbH
	DB	0d6H
	DB	0bbH
	DB	0d6H
	DB	0bbH
	DB	0deH
	DB	0bbH
	DB	0d6H
	DB	0dcH
	DB	0deH
	DB	0bbH
	DB	0deH
	DB	0dbH
	DB	0deH
	DB	0bcH
	DB	0deH
	DB	0bbH
	DB	0d6H
	DB	0dbH
	DB	0deH
	DB	0bcH
	DB	0d6H
	DB	0dbH
	DB	0deH
	DB	0bbH
	DB	0deH
	DB	0bcH
	DB	0d6H
	DB	0dbH
	DB	0d6H
	DB	0bbH
	DB	0deH
	DB	0bbH
	DB	0d6H
	DB	0dbH
	DB	0d6H
	DB	0bcH
	DB	0deH
	DB	0bbH
	DB	0deH
	DB	0bbH
	DB	0d6H
	DB	0dcH
	DB	0deH
	DB	0bbH
	DB	0deH
	DB	0bbH
	DB	0d6H
	DB	0dbH
	DB	0d6H
	DB	0bcH
	DB	0deH
	DB	0bbH
	DB	0d6H
	DB	0dcH
	DB	0deH
	DB	0bbH
	DB	0d6H
	DB	0dcH
	DB	0deH
	DB	0dbH
	DB	0d6H
	DB	0bbH
	DB	0deH
	DB	0bcH
	DB	0deH
	DB	0dbH
	DB	0d6H
	DB	0dbH
	DB	0deH
	DB	0bbH
	DB	0deH
	DB	0bbH
	DB	0d6H
	DB	0bcH
	DB	0deH
	DB	0dbH
	DB	0deH
	DB	0bbH
	DB	0d6H
	DB	0bbH
	DB	0d6H
	DB	0bbH
	DB	0d6H
	DB	0bbH
	DB	0d6H
	DB	0bbH
	DB	0deH
	DB	0bbH
	DB	0d6H
	DB	0dbH
	DB	0d6H
	DB	0bbH
	DB	0d6H
	DB	0dbH
	DB	0deH
	DB	0dbH
	DB	0deH
	DB	0dbH
	DB	0deH
	DB	0dcH
	DB	0deH
	DB	07aH
	DB	0ceH
	DB	03dH
	DB	0e7H
	DB	05eH
	DB	0efH
	DB	08bH
	DB	052H
	DB	00H
	DB	00H
	DB	0c4H
	DB	018H
	DB	08eH
	DB	073H
	DB	0d4H
	DB	09cH
	DB	05aH
	DB	0ceH
	DB	03dH
	DB	0efH
	DB	039H
	DB	0c6H
	DB	076H
	DB	0adH
	DB	0bbH
	DB	0d6H
	DB	0bbH
	DB	0d6H
	DB	0bbH
	DB	0deH
	DB	0fcH
	DB	0e6H
	DB	09bH
	DB	0d6H
	DB	0dcH
	DB	0deH
	DB	09aH
	DB	0d6H
	DB	01dH
	DB	0e7H
	DB	09aH
	DB	0d6H
	DB	09aH
	DB	0d6H
	DB	05aH
	DB	0ceH
	DB	07aH
	DB	0d6H
	DB	09bH
	DB	0d6H
	DB	09bH
	DB	0d6H
	DB	07aH
	DB	0ceH
	DB	0fcH
	DB	0deH
	DB	09bH
	DB	0d6H
	DB	039H
	DB	0ceH
	DB	0bbH
	DB	0deH
	DB	09bH
	DB	0d6H
	DB	0dbH
	DB	0deH
	DB	0dbH
	DB	0deH
	DB	09bH
	DB	0d6H
	DB	05aH
	DB	0ceH
	DB	0bbH
	DB	0deH
	DB	07aH
	DB	0d6H
	DB	0fcH
	DB	0deH
	DB	09bH
	DB	0d6H
	DB	0dcH
	DB	0deH
	DB	0dcH
	DB	0deH
	DB	0bcH
	DB	0deH
	DB	0bbH
	DB	0deH
	DB	0bbH
	DB	0deH
	DB	0fcH
	DB	0deH
	DB	0fcH
	DB	0deH
	DB	018H
	DB	0b6H
	DB	028H
	DB	032H
	DB	0efH
	DB	063H
	DB	0b2H
	DB	07cH
	DB	051H
	DB	06cH
	DB	092H
	DB	074H
	DB	091H
	DB	074H
	DB	071H
	DB	074H
	DB	0abH
	DB	042H
	DB	082H
	DB	08H
	DB	020H
	DB	00H
	DB	061H
	DB	08H
	DB	021H
	DB	00H
	DB	021H
	DB	00H
	DB	021H
	DB	00H
	DB	01H
	DB	00H
	DB	00H
	DB	08H
	DB	01H
	DB	08H
	DB	021H
	DB	00H
	DB	00H
	DB	00H
	DB	021H
	DB	00H
	DB	020H
	DB	00H
	DB	00H
	DB	00H
	DB	020H
	DB	08H
	DB	021H
	DB	08H
	DB	00H
	DB	00H
	DB	00H
	DB	00H
	DB	00H
	DB	00H
	DB	00H
	DB	00H
	DB	021H
	DB	08H
	DB	021H
	DB	08H
	DB	00H
	DB	00H
	DB	00H
	DB	00H
	DB	00H
	DB	00H
	DB	00H
	DB	00H
	DB	00H
	DB	00H
	DB	00H
	DB	00H
	DB	00H
	DB	00H
	DB	00H
	DB	00H
	DB	00H
	DB	00H
	DB	00H
	DB	00H
	DB	00H
	DB	00H
	DB	00H
	DB	00H
	DB	00H
	DB	00H
	DB	00H
	DB	00H
	DB	00H
	DB	00H
	DB	00H
	DB	00H
	DB	00H
	DB	00H
	DB	00H
	DB	00H
	DB	00H
	DB	00H
	DB	00H
	DB	00H
	DB	00H
	DB	00H
	DB	00H
	DB	00H
	DB	00H
	DB	00H
	DB	00H
	DB	00H
	DB	00H
	DB	00H
	DB	00H
	DB	00H
	DB	00H
	DB	00H
	DB	00H
	DB	00H
	DB	00H
	DB	00H
	DB	00H
	DB	00H
	DB	00H
	DB	00H
	DB	00H
	DB	00H
	DB	00H
	DB	00H
	DB	020H
	DB	00H
	DB	00H
	DB	00H
	DB	021H
	DB	00H
	DB	00H
	DB	00H
	DB	045H
	DB	029H
	DB	07aH
	DB	0d6H
	DB	01cH
	DB	0e7H
	DB	09aH
	DB	0d6H
	DB	0bbH
	DB	0deH
	DB	0bbH
	DB	0d6H
	DB	0bbH
	DB	0d6H
	DB	0bbH
	DB	0d6H
	DB	0bbH
	DB	0d6H
	DB	0bbH
	DB	0deH
	DB	0dbH
	DB	0deH
	DB	0bbH
	DB	0d6H
	DB	0dbH
	DB	0deH
	DB	0bbH
	DB	0d6H
	DB	0bbH
	DB	0d6H
	DB	0bbH
	DB	0deH
	DB	0dbH
	DB	0deH
	DB	0bbH
	DB	0d6H
	DB	0bbH
	DB	0d6H
	DB	0dbH
	DB	0deH
	DB	0bbH
	DB	0d6H
	DB	0bbH
	DB	0deH
	DB	0dcH
	DB	0deH
	DB	0bbH
	DB	0d6H
	DB	0bbH
	DB	0d6H
	DB	0dbH
	DB	0deH
	DB	0bcH
	DB	0d6H
	DB	0dbH
	DB	0deH
	DB	0bbH
	DB	0deH
	DB	0bbH
	DB	0d6H
	DB	0dcH
	DB	0deH
	DB	0dbH
	DB	0deH
	DB	0bbH
	DB	0d6H
	DB	0dbH
	DB	0deH
	DB	0bbH
	DB	0d6H
	DB	0bbH
	DB	0deH
	DB	0bbH
	DB	0d6H
	DB	0bbH
	DB	0d6H
	DB	0bbH
	DB	0d6H
	DB	0dcH
	DB	0deH
	DB	0bbH
	DB	0d6H
	DB	0dbH
	DB	0deH
	DB	0bbH
	DB	0deH
	DB	0dbH
	DB	0d6H
	DB	0bbH
	DB	0d6H
	DB	0dbH
	DB	0deH
	DB	0bbH
	DB	0d6H
	DB	0bbH
	DB	0d6H
	DB	0dbH
	DB	0deH
	DB	0dcH
	DB	0deH
	DB	0bbH
	DB	0d6H
	DB	0dbH
	DB	0deH
	DB	0dbH
	DB	0deH
	DB	0bbH
	DB	0d6H
	DB	0dbH
	DB	0deH
	DB	0dbH
	DB	0deH
	DB	0bcH
	DB	0deH
	DB	0dbH
	DB	0d6H
	DB	0dbH
	DB	0deH
	DB	0bbH
	DB	0deH
	DB	0dbH
	DB	0d6H
	DB	0bbH
	DB	0d6H
	DB	0dbH
	DB	0deH
	DB	0bbH
	DB	0deH
	DB	0dcH
	DB	0d6H
	DB	0dbH
	DB	0deH
	DB	0bbH
	DB	0deH
	DB	0dbH
	DB	0deH
	DB	0dbH
	DB	0d6H
	DB	0bcH
	DB	0deH
	DB	0bbH
	DB	0d6H
	DB	0dbH
	DB	0deH
	DB	0bbH
	DB	0d6H
	DB	0bbH
	DB	0d6H
	DB	0dbH
	DB	0deH
	DB	0bbH
	DB	0deH
	DB	0dcH
	DB	0deH
	DB	0bbH
	DB	0d6H
	DB	0bbH
	DB	0d6H
	DB	0bbH
	DB	0deH
	DB	0dbH
	DB	0deH
	DB	0dbH
	DB	0deH
	DB	0bbH
	DB	0deH
	DB	0bbH
	DB	0deH
	DB	0bbH
	DB	0d6H
	DB	0dcH
	DB	0deH
	DB	0bbH
	DB	0d6H
	DB	0bbH
	DB	0deH
	DB	0dcH
	DB	0deH
	DB	09bH
	DB	0d6H
	DB	0bbH
	DB	0d6H
	DB	0bbH
	DB	0d6H
	DB	0fcH
	DB	0deH
	DB	0d3H
	DB	09cH
	DB	0abH
	DB	052H
	DB	0c3H
	DB	018H
	DB	021H
	DB	08H
	DB	00H
	DB	00H
	DB	062H
	DB	010H
	DB	0dH
	DB	063H
	DB	039H
	DB	0c6H
	DB	0dbH
	DB	0deH
	DB	0fcH
	DB	0deH
	DB	03dH
	DB	0e7H
	DB	07bH
	DB	0d6H
	DB	0fcH
	DB	0deH
	DB	0fcH
	DB	0deH
	DB	09bH
	DB	0d6H
	DB	0bbH
	DB	0d6H
	DB	0dcH
	DB	0deH
	DB	0bbH
	DB	0deH
	DB	07aH
	DB	0ceH
	DB	07aH
	DB	0d6H
	DB	07eH
	DB	0efH
	DB	09fH
	DB	0f7H
	DB	05eH
	DB	0efH
	DB	05dH
	DB	0efH
	DB	03dH
	DB	0e7H
	DB	05eH
	DB	0efH
	DB	01cH
	DB	0e7H
	DB	09eH
	DB	0f7H
	DB	07eH
	DB	0f7H
	DB	07eH
	DB	0efH
	DB	05eH
	DB	0efH
	DB	0bbH
	DB	0deH
	DB	0bbH
	DB	0deH
	DB	01dH
	DB	0e7H
	DB	03dH
	DB	0efH
	DB	01dH
	DB	0e7H
	DB	0fcH
	DB	0e6H
	DB	01dH
	DB	0e7H
	DB	05dH
	DB	0efH
	DB	0dcH
	DB	0deH
	DB	0bbH
	DB	0deH
	DB	0bbH
	DB	0deH
	DB	0bbH
	DB	0d6H
	DB	0bbH
	DB	0deH
	DB	0bbH
	DB	0d6H
	DB	01cH
	DB	0dfH
	DB	0f8H
	DB	0b5H
	DB	028H
	DB	032H
	DB	010H
	DB	06cH
	DB	0b2H
	DB	07cH
	DB	092H
	DB	06cH
	DB	091H
	DB	06cH
	DB	071H
	DB	074H
	DB	0efH
	DB	06bH
	DB	0e3H
	DB	010H
	DB	021H
	DB	00H
	DB	041H
	DB	00H
	DB	021H
	DB	00H
	DB	021H
	DB	00H
	DB	021H
	DB	08H
	DB	021H
	DB	08H
	DB	021H
	DB	00H
	DB	00H
	DB	00H
	DB	021H
	DB	08H
	DB	021H
	DB	00H
	DB	00H
	DB	00H
	DB	020H
	DB	00H
	DB	00H
	DB	00H
	DB	00H
	DB	00H
	DB	00H
	DB	00H
	DB	041H
	DB	08H
	DB	020H
	DB	00H
	DB	041H
	DB	08H
	DB	021H
	DB	08H
	DB	021H
	DB	08H
	DB	00H
	DB	00H
	DB	00H
	DB	00H
	DB	00H
	DB	00H
	DB	00H
	DB	00H
	DB	020H
	DB	00H
	DB	00H
	DB	00H
	DB	00H
	DB	00H
	DB	00H
	DB	00H
	DB	00H
	DB	00H
	DB	00H
	DB	00H
	DB	00H
	DB	00H
	DB	00H
	DB	00H
	DB	00H
	DB	00H
	DB	00H
	DB	00H
	DB	00H
	DB	00H
	DB	00H
	DB	00H
	DB	00H
	DB	00H
	DB	00H
	DB	00H
	DB	00H
	DB	00H
	DB	00H
	DB	00H
	DB	00H
	DB	00H
	DB	00H
	DB	00H
	DB	00H
	DB	00H
	DB	00H
	DB	00H
	DB	00H
	DB	00H
	DB	00H
	DB	00H
	DB	00H
	DB	00H
	DB	00H
	DB	00H
	DB	00H
	DB	00H
	DB	00H
	DB	00H
	DB	00H
	DB	00H
	DB	00H
	DB	00H
	DB	00H
	DB	00H
	DB	00H
	DB	00H
	DB	00H
	DB	00H
	DB	00H
	DB	00H
	DB	00H
	DB	00H
	DB	041H
	DB	08H
	DB	00H
	DB	00H
	DB	00H
	DB	00H
	DB	072H
	DB	094H
	DB	05dH
	DB	0efH
	DB	09aH
	DB	0d6H
	DB	0dbH
	DB	0d6H
	DB	0dcH
	DB	0deH
	DB	0dbH
	DB	0deH
	DB	0bbH
	DB	0deH
	DB	0bbH
	DB	0d6H
	DB	0dcH
	DB	0deH
	DB	0dbH
	DB	0d6H
	DB	0bbH
	DB	0deH
	DB	0dcH
	DB	0deH
	DB	0dbH
	DB	0deH
	DB	0bbH
	DB	0d6H
	DB	0dbH
	DB	0deH
	DB	0bbH
	DB	0d6H
	DB	0dbH
	DB	0deH
	DB	0bbH
	DB	0d6H
	DB	0dcH
	DB	0deH
	DB	0dbH
	DB	0deH
	DB	0dbH
	DB	0d6H
	DB	0bcH
	DB	0deH
	DB	0bbH
	DB	0deH
	DB	0dbH
	DB	0deH
	DB	0dcH
	DB	0deH
	DB	0dbH
	DB	0d6H
	DB	0bbH
	DB	0d6H
	DB	0dbH
	DB	0deH
	DB	0bbH
	DB	0d6H
	DB	0bbH
	DB	0deH
	DB	0dbH
	DB	0deH
	DB	0bbH
	DB	0d6H
	DB	0bcH
	DB	0deH
	DB	0bbH
	DB	0deH
	DB	0dcH
	DB	0deH
	DB	0bbH
	DB	0d6H
	DB	0bbH
	DB	0deH
	DB	0dbH
	DB	0deH
