; Listing generated by Microsoft (R) Optimizing Compiler Version 19.16.27027.1 

	TITLE	C:\Users\USER\Documents\GitHub\Pedalboard-Display\VerticalGUI\Project\TouchGFX\generated\images\src\__designer\blue_slider_vertical_small_slider3_vertical_round_edge_back.cpp
	.686P
	.XMM
	include listing.inc
	.model	flat

INCLUDELIB MSVCRTD
INCLUDELIB OLDNAMES

PUBLIC	?_blue_slider_vertical_small_slider3_vertical_round_edge_back@@3QBEB ; _blue_slider_vertical_small_slider3_vertical_round_edge_back
CONST	SEGMENT
?_blue_slider_vertical_small_slider3_vertical_round_edge_back@@3QBEB DB 00H ; _blue_slider_vertical_small_slider3_vertical_round_edge_back
	DB	00H
	DB	00H
	DB	00H
	DB	0a8H
	DB	0acH
	DB	0a8H
	DB	024H
	DB	0b0H
	DB	0acH
	DB	0b0H
	DB	0aeH
	DB	0a8H
	DB	0acH
	DB	0a8H
	DB	0efH
	DB	0a8H
	DB	0acH
	DB	0a8H
	DB	0ffH
	DB	0b0H
	DB	0acH
	DB	0b0H
	DB	0ffH
	DB	0a8H
	DB	0acH
	DB	0a8H
	DB	0ffH
	DB	0a8H
	DB	0acH
	DB	0a8H
	DB	0ffH
	DB	0b0H
	DB	0acH
	DB	0b0H
	DB	0ffH
	DB	0a8H
	DB	0acH
	DB	0a8H
	DB	0ffH
	DB	0a8H
	DB	0acH
	DB	0a8H
	DB	0ffH
	DB	0b0H
	DB	0acH
	DB	0b0H
	DB	0ffH
	DB	0a8H
	DB	0acH
	DB	0a8H
	DB	0ffH
	DB	0a8H
	DB	0acH
	DB	0a8H
	DB	0ffH
	DB	0b0H
	DB	0acH
	DB	0b0H
	DB	0ffH
	DB	0a8H
	DB	0acH
	DB	0a8H
	DB	0ffH
	DB	0a8H
	DB	0acH
	DB	0a8H
	DB	0efH
	DB	0b0H
	DB	0acH
	DB	0b0H
	DB	0aeH
	DB	0a8H
	DB	0acH
	DB	0a8H
	DB	024H
	DB	00H
	DB	00H
	DB	00H
	DB	00H
	DB	0a8H
	DB	0acH
	DB	0a8H
	DB	028H
	DB	0b0H
	DB	0acH
	DB	0b0H
	DB	0efH
	DB	0b0H
	DB	0acH
	DB	0b0H
	DB	0ffH
	DB	0a8H
	DB	0acH
	DB	0a8H
	DB	0ffH
	DB	0b0H
	DB	0acH
	DB	0b0H
	DB	0ffH
	DB	0b0H
	DB	0acH
	DB	0b0H
	DB	0ffH
	DB	0a8H
	DB	0acH
	DB	0a8H
	DB	0ffH
	DB	0b0H
	DB	0acH
	DB	0b0H
	DB	0ffH
	DB	0b0H
	DB	0acH
	DB	0b0H
	DB	0ffH
	DB	0a8H
	DB	0acH
	DB	0a8H
	DB	0ffH
	DB	0b0H
	DB	0acH
	DB	0b0H
	DB	0ffH
	DB	0b0H
	DB	0acH
	DB	0b0H
	DB	0ffH
	DB	0a8H
	DB	0acH
	DB	0a8H
	DB	0ffH
	DB	0b0H
	DB	0acH
	DB	0b0H
	DB	0ffH
	DB	0b0H
	DB	0acH
	DB	0b0H
	DB	0ffH
	DB	0a8H
	DB	0acH
	DB	0a8H
	DB	0ffH
	DB	0b0H
	DB	0acH
	DB	0b0H
	DB	0ffH
	DB	0b0H
	DB	0acH
	DB	0b0H
	DB	0ffH
	DB	0a8H
	DB	0acH
	DB	0a8H
	DB	0efH
	DB	0a8H
	DB	0acH
	DB	0a8H
	DB	028H
	DB	0a8H
	DB	0acH
	DB	0a8H
	DB	0aeH
	DB	0b0H
	DB	0acH
	DB	0b0H
	DB	0ffH
	DB	0a8H
	DB	0acH
	DB	0a8H
	DB	0ffH
	DB	0a8H
	DB	0acH
	DB	0a8H
	DB	0ffH
	DB	0b0H
	DB	0acH
	DB	0b0H
	DB	0ffH
	DB	0a8H
	DB	0acH
	DB	0a8H
	DB	0ffH
	DB	0a8H
	DB	0acH
	DB	0a8H
	DB	0ffH
	DB	0b0H
	DB	0acH
	DB	0b0H
	DB	0ffH
	DB	0a8H
	DB	0acH
	DB	0a8H
	DB	0ffH
	DB	0a8H
	DB	0acH
	DB	0a8H
	DB	0ffH
	DB	0b0H
	DB	0acH
	DB	0b0H
	DB	0ffH
	DB	0a8H
	DB	0acH
	DB	0a8H
	DB	0ffH
	DB	0a8H
	DB	0acH
	DB	0a8H
	DB	0ffH
	DB	0b0H
	DB	0acH
	DB	0b0H
	DB	0ffH
	DB	0a8H
	DB	0acH
	DB	0a8H
	DB	0ffH
	DB	0a8H
	DB	0acH
	DB	0a8H
	DB	0ffH
	DB	0b0H
	DB	0acH
	DB	0b0H
	DB	0ffH
	DB	0b0H
	DB	0acH
	DB	0b0H
	DB	0ffH
	DB	0a8H
	DB	0acH
	DB	0a8H
	DB	0ffH
	DB	0b0H
	DB	0acH
	DB	0b0H
	DB	0aeH
	DB	0b0H
	DB	0acH
	DB	0b0H
	DB	0efH
	DB	0a8H
	DB	0acH
	DB	0a8H
	DB	0ffH
	DB	0b0H
	DB	0acH
	DB	0b0H
	DB	0ffH
	DB	0b0H
	DB	0acH
	DB	0b0H
	DB	0ffH
	DB	0a8H
	DB	0acH
	DB	0a8H
	DB	0ffH
	DB	0b0H
	DB	0acH
	DB	0b0H
	DB	0ffH
	DB	0b0H
	DB	0acH
	DB	0b0H
	DB	0ffH
	DB	0a8H
	DB	0acH
	DB	0a8H
	DB	0ffH
	DB	0b0H
	DB	0acH
	DB	0b0H
	DB	0ffH
	DB	0b0H
	DB	0acH
	DB	0b0H
	DB	0ffH
	DB	0a8H
	DB	0acH
	DB	0a8H
	DB	0ffH
	DB	0b0H
	DB	0acH
	DB	0b0H
	DB	0ffH
	DB	0b0H
	DB	0acH
	DB	0b0H
	DB	0ffH
	DB	0a8H
	DB	0acH
	DB	0a8H
	DB	0ffH
	DB	0b0H
	DB	0acH
	DB	0b0H
	DB	0ffH
	DB	0a8H
	DB	0acH
	DB	0a8H
	DB	0ffH
	DB	0a8H
	DB	0acH
	DB	0a8H
	DB	0ffH
	DB	0b0H
	DB	0acH
	DB	0b0H
	DB	0ffH
	DB	0a8H
	DB	0acH
	DB	0a8H
	DB	0ffH
	DB	0b0H
	DB	0acH
	DB	0b0H
	DB	0f3H
	DB	0a8H
	DB	0acH
	DB	0a8H
	DB	0ffH
	DB	0b0H
	DB	0acH
	DB	0b0H
	DB	0ffH
	DB	0a8H
	DB	0acH
	DB	0a8H
	DB	0ffH
	DB	0a8H
	DB	0acH
	DB	0a8H
	DB	0ffH
	DB	0b0H
	DB	0acH
	DB	0b0H
	DB	0ffH
	DB	0a8H
	DB	0acH
	DB	0a8H
	DB	0ffH
	DB	0b0H
	DB	0acH
	DB	0b0H
	DB	0ffH
	DB	0a8H
	DB	0acH
	DB	0a8H
	DB	0ffH
	DB	0a8H
	DB	0acH
	DB	0a8H
	DB	0ffH
	DB	0b0H
	DB	0acH
	DB	0b0H
	DB	0ffH
	DB	0a8H
	DB	0acH
	DB	0a8H
	DB	0ffH
	DB	0b0H
	DB	0acH
	DB	0b0H
	DB	0ffH
	DB	0a8H
	DB	0acH
	DB	0a8H
	DB	0ffH
	DB	0b0H
	DB	0acH
	DB	0b0H
	DB	0ffH
	DB	0b0H
	DB	0acH
	DB	0b0H
	DB	0ffH
	DB	0a8H
	DB	0acH
	DB	0a8H
	DB	0ffH
	DB	0b0H
	DB	0acH
	DB	0b0H
	DB	0ffH
	DB	0a8H
	DB	0acH
	DB	0a8H
	DB	0ffH
	DB	0a8H
	DB	0acH
	DB	0a8H
	DB	0ffH
	DB	0b0H
	DB	0acH
	DB	0b0H
	DB	0ffH
	DB	0a8H
	DB	0acH
	DB	0a8H
	DB	0ffH
	DB	0b0H
	DB	0acH
	DB	0b0H
	DB	0ffH
	DB	0b0H
	DB	0acH
	DB	0b0H
	DB	0ffH
	DB	0a8H
	DB	0acH
	DB	0a8H
	DB	0ffH
	DB	0b0H
	DB	0acH
	DB	0b0H
	DB	0ffH
	DB	0a8H
	DB	0acH
	DB	0a8H
	DB	0ffH
	DB	0a8H
	DB	0acH
	DB	0a8H
	DB	0ffH
	DB	0b0H
	DB	0acH
	DB	0b0H
	DB	0ffH
	DB	0b0H
	DB	0acH
	DB	0b0H
	DB	0ffH
	DB	0a8H
	DB	0acH
	DB	0a8H
	DB	0ffH
	DB	0b0H
	DB	0acH
	DB	0b0H
	DB	0ffH
	DB	0a8H
	DB	0acH
	DB	0a8H
	DB	0ffH
	DB	0a8H
	DB	0acH
	DB	0a8H
	DB	0ffH
	DB	0b0H
	DB	0acH
	DB	0b0H
	DB	0ffH
	DB	0a8H
	DB	0acH
	DB	0a8H
	DB	0ffH
	DB	0b0H
	DB	0acH
	DB	0b0H
	DB	0ffH
	DB	0b0H
	DB	0acH
	DB	0b0H
	DB	0ffH
	DB	0a8H
	DB	0acH
	DB	0a8H
	DB	0ffH
	DB	0b0H
	DB	0acH
	DB	0b0H
	DB	0ffH
	DB	0a8H
	DB	0acH
	DB	0a8H
	DB	0ffH
	DB	0a8H
	DB	0acH
	DB	0a8H
	DB	0ffH
	DB	0b0H
	DB	0acH
	DB	0b0H
	DB	0ffH
	DB	0a8H
	DB	0acH
	DB	0a8H
	DB	0ffH
	DB	0b0H
	DB	0acH
	DB	0b0H
	DB	0ffH
	DB	0b0H
	DB	0acH
	DB	0b0H
	DB	0ffH
	DB	0a8H
	DB	0acH
	DB	0a8H
	DB	0ffH
	DB	0b0H
	DB	0acH
	DB	0b0H
	DB	0ffH
	DB	0b0H
	DB	0acH
	DB	0b0H
	DB	0ffH
	DB	0a8H
	DB	0acH
	DB	0a8H
	DB	0ffH
	DB	0a8H
	DB	0acH
	DB	0a8H
	DB	0ffH
	DB	0b0H
	DB	0acH
	DB	0b0H
	DB	0ffH
	DB	0b0H
	DB	0acH
	DB	0b0H
	DB	0ffH
	DB	0a8H
	DB	0acH
	DB	0a8H
	DB	0ffH
	DB	0a8H
	DB	0acH
	DB	0a8H
	DB	0ffH
	DB	0b0H
	DB	0acH
	DB	0b0H
	DB	0ffH
	DB	0a8H
	DB	0acH
	DB	0a8H
	DB	0ffH
	DB	0a8H
	DB	0acH
	DB	0a8H
	DB	0ffH
	DB	0b0H
	DB	0acH
	DB	0b0H
	DB	0ffH
	DB	0b0H
	DB	0acH
	DB	0b0H
	DB	0ffH
	DB	0a8H
	DB	0acH
	DB	0a8H
	DB	0ffH
	DB	0b0H
	DB	0acH
	DB	0b0H
	DB	0ffH
	DB	0a8H
	DB	0acH
	DB	0a8H
	DB	0ffH
	DB	0a8H
	DB	0acH
	DB	0a8H
	DB	0ffH
	DB	0b0H
	DB	0acH
	DB	0b0H
	DB	0ffH
	DB	0a8H
	DB	0acH
	DB	0a8H
	DB	0ffH
	DB	0a8H
	DB	0acH
	DB	0a8H
	DB	0ffH
	DB	0b0H
	DB	0acH
	DB	0b0H
	DB	0ffH
	DB	0a8H
	DB	0acH
	DB	0a8H
	DB	0ffH
	DB	0a8H
	DB	0acH
	DB	0a8H
	DB	0ffH
	DB	0b0H
	DB	0acH
	DB	0b0H
	DB	0ffH
	DB	0a8H
	DB	0acH
	DB	0a8H
	DB	0ffH
	DB	0b0H
	DB	0acH
	DB	0b0H
	DB	0ffH
	DB	0b0H
	DB	0acH
	DB	0b0H
	DB	0ffH
	DB	0a8H
	DB	0acH
	DB	0a8H
	DB	0ffH
	DB	0b0H
	DB	0acH
	DB	0b0H
	DB	0ffH
	DB	0b0H
	DB	0acH
	DB	0b0H
	DB	0ffH
	DB	0a8H
	DB	0acH
	DB	0a8H
	DB	0ffH
	DB	0a8H
	DB	0acH
	DB	0a8H
	DB	0ffH
	DB	0b0H
	DB	0acH
	DB	0b0H
	DB	0ffH
	DB	0a8H
	DB	0acH
	DB	0a8H
	DB	0ffH
	DB	0a8H
	DB	0acH
	DB	0a8H
	DB	0ffH
	DB	0b0H
	DB	0acH
	DB	0b0H
	DB	0ffH
	DB	0b0H
	DB	0acH
	DB	0b0H
	DB	0ffH
	DB	0a8H
	DB	0acH
	DB	0a8H
	DB	0ffH
	DB	0b0H
	DB	0acH
	DB	0b0H
	DB	0ffH
	DB	0a8H
	DB	0acH
	DB	0a8H
	DB	0ffH
	DB	0b0H
	DB	0acH
	DB	0b0H
	DB	0ffH
	DB	0b0H
	DB	0acH
	DB	0b0H
	DB	0ffH
	DB	0a8H
	DB	0acH
	DB	0a8H
	DB	0ffH
	DB	0b0H
	DB	0acH
	DB	0b0H
	DB	0ffH
	DB	0a8H
	DB	0acH
	DB	0a8H
	DB	0ffH
	DB	0a8H
	DB	0acH
	DB	0a8H
	DB	0ffH
	DB	0b0H
	DB	0acH
	DB	0b0H
	DB	0ffH
	DB	0a8H
	DB	0acH
	DB	0a8H
	DB	0ffH
	DB	0a8H
	DB	0acH
	DB	0a8H
	DB	0ffH
	DB	0b0H
	DB	0acH
	DB	0b0H
	DB	0ffH
	DB	0b0H
	DB	0acH
	DB	0b0H
	DB	0ffH
	DB	0a8H
	DB	0acH
	DB	0a8H
	DB	0ffH
	DB	0b0H
	DB	0acH
	DB	0b0H
	DB	0ffH
	DB	0b0H
	DB	0acH
	DB	0b0H
	DB	0ffH
	DB	0a8H
	DB	0acH
	DB	0a8H
	DB	0ffH
	DB	0b0H
	DB	0acH
	DB	0b0H
	DB	0ffH
	DB	0a8H
	DB	0acH
	DB	0a8H
	DB	0ffH
	DB	0a8H
	DB	0acH
	DB	0a8H
	DB	0ffH
	DB	0b0H
	DB	0acH
	DB	0b0H
	DB	0ffH
	DB	0b0H
	DB	0acH
	DB	0b0H
	DB	0ffH
	DB	0a8H
	DB	0acH
	DB	0a8H
	DB	0ffH
	DB	0a8H
	DB	0acH
	DB	0a8H
	DB	0ffH
	DB	0b0H
	DB	0acH
	DB	0b0H
	DB	0ffH
	DB	0b0H
	DB	0acH
	DB	0b0H
	DB	0ffH
	DB	0a8H
	DB	0acH
	DB	0a8H
	DB	0ffH
	DB	0b0H
	DB	0acH
	DB	0b0H
	DB	0ffH
	DB	0b0H
	DB	0acH
	DB	0b0H
	DB	0ffH
	DB	0a8H
	DB	0acH
	DB	0a8H
	DB	0ffH
	DB	0a8H
	DB	0acH
	DB	0a8H
	DB	0ffH
	DB	0b0H
	DB	0acH
	DB	0b0H
	DB	0ffH
	DB	0a8H
	DB	0acH
	DB	0a8H
	DB	0ffH
	DB	0a8H
	DB	0acH
	DB	0a8H
	DB	0ffH
	DB	0b0H
	DB	0acH
	DB	0b0H
	DB	0ffH
	DB	0a8H
	DB	0acH
	DB	0a8H
	DB	0ffH
	DB	0b0H
	DB	0acH
	DB	0b0H
	DB	0ffH
	DB	0a8H
	DB	0acH
	DB	0a8H
	DB	0ffH
	DB	0b0H
	DB	0acH
	DB	0b0H
	DB	0ffH
	DB	0a8H
	DB	0acH
	DB	0a8H
	DB	0ffH
	DB	0b0H
	DB	0acH
	DB	0b0H
	DB	0ffH
	DB	0a8H
	DB	0acH
	DB	0a8H
	DB	0ffH
	DB	0a8H
	DB	0acH
	DB	0a8H
	DB	0ffH
	DB	0b0H
	DB	0acH
	DB	0b0H
	DB	0ffH
	DB	0a8H
	DB	0acH
	DB	0a8H
	DB	0ffH
	DB	0a8H
	DB	0acH
	DB	0a8H
	DB	0ffH
	DB	0b0H
	DB	0acH
	DB	0b0H
	DB	0ffH
	DB	0a8H
	DB	0acH
	DB	0a8H
	DB	0ffH
	DB	0b0H
	DB	0acH
	DB	0b0H
	DB	0ffH
	DB	0b0H
	DB	0acH
	DB	0b0H
	DB	0ffH
	DB	0a8H
	DB	0acH
	DB	0a8H
	DB	0ffH
	DB	0b0H
	DB	0acH
	DB	0b0H
	DB	0ffH
	DB	0b0H
	DB	0acH
	DB	0b0H
	DB	0ffH
	DB	0a8H
	DB	0acH
	DB	0a8H
	DB	0ffH
	DB	0b0H
	DB	0acH
	DB	0b0H
	DB	0ffH
	DB	0a8H
	DB	0acH
	DB	0a8H
	DB	0ffH
	DB	0a8H
	DB	0acH
	DB	0a8H
	DB	0ffH
	DB	0b0H
	DB	0acH
	DB	0b0H
	DB	0ffH
	DB	0b0H
	DB	0acH
	DB	0b0H
	DB	0ffH
	DB	0a8H
	DB	0acH
	DB	0a8H
	DB	0ffH
	DB	0b0H
	DB	0acH
	DB	0b0H
	DB	0ffH
	DB	0b0H
	DB	0acH
	DB	0b0H
	DB	0ffH
	DB	0a8H
	DB	0acH
	DB	0a8H
	DB	0ffH
	DB	0b0H
	DB	0acH
	DB	0b0H
	DB	0ffH
	DB	0b0H
	DB	0acH
	DB	0b0H
	DB	0ffH
	DB	0a8H
	DB	0acH
	DB	0a8H
	DB	0ffH
	DB	0b0H
	DB	0acH
	DB	0b0H
	DB	0ffH
	DB	0a8H
	DB	0acH
	DB	0a8H
	DB	0ffH
	DB	0a8H
	DB	0acH
	DB	0a8H
	DB	0ffH
	DB	0b0H
	DB	0acH
	DB	0b0H
	DB	0ffH
	DB	0a8H
	DB	0acH
	DB	0a8H
	DB	0ffH
	DB	0b0H
	DB	0acH
	DB	0b0H
	DB	0ffH
	DB	0a8H
	DB	0acH
	DB	0a8H
	DB	0ffH
	DB	0b0H
	DB	0acH
	DB	0b0H
	DB	0ffH
	DB	0a8H
	DB	0acH
	DB	0a8H
	DB	0ffH
	DB	0b0H
	DB	0acH
	DB	0b0H
	DB	0ffH
	DB	0a8H
	DB	0acH
	DB	0a8H
	DB	0ffH
	DB	0b0H
	DB	0acH
	DB	0b0H
	DB	0ffH
	DB	0a8H
	DB	0acH
	DB	0a8H
	DB	0ffH
	DB	0a8H
	DB	0acH
	DB	0a8H
	DB	0ffH
	DB	0b0H
	DB	0acH
	DB	0b0H
	DB	0ffH
	DB	0a8H
	DB	0acH
	DB	0a8H
	DB	0ffH
	DB	0a8H
	DB	0acH
	DB	0a8H
	DB	0ffH
	DB	0b0H
	DB	0acH
	DB	0b0H
	DB	0ffH
	DB	0b0H
	DB	0acH
	DB	0b0H
	DB	0ffH
	DB	0a8H
	DB	0acH
	DB	0a8H
	DB	0ffH
	DB	0b0H
	DB	0acH
	DB	0b0H
	DB	0ffH
	DB	0b0H
	DB	0acH
	DB	0b0H
	DB	0ffH
	DB	0a8H
	DB	0acH
	DB	0a8H
	DB	0ffH
	DB	0a8H
	DB	0acH
	DB	0a8H
	DB	0ffH
	DB	0b0H
	DB	0acH
	DB	0b0H
	DB	0ffH
	DB	0a8H
	DB	0acH
	DB	0a8H
	DB	0ffH
	DB	0b0H
	DB	0acH
	DB	0b0H
	DB	0ffH
	DB	0a8H
	DB	0acH
	DB	0a8H
	DB	0ffH
	DB	0b0H
	DB	0acH
	DB	0b0H
	DB	0ffH
	DB	0a8H
	DB	0acH
	DB	0a8H
	DB	0ffH
	DB	0b0H
	DB	0acH
	DB	0b0H
	DB	0ffH
	DB	0a8H
	DB	0acH
	DB	0a8H
	DB	0ffH
	DB	0b0H
	DB	0acH
	DB	0b0H
	DB	0ffH
	DB	0a8H
	DB	0acH
	DB	0a8H
	DB	0ffH
	DB	0b0H
	DB	0acH
	DB	0b0H
	DB	0ffH
	DB	0b0H
	DB	0acH
	DB	0b0H
	DB	0ffH
	DB	0a8H
	DB	0acH
	DB	0a8H
	DB	0ffH
	DB	0a8H
	DB	0acH
	DB	0a8H
	DB	0ffH
	DB	0b0H
	DB	0acH
	DB	0b0H
	DB	0ffH
	DB	0a8H
	DB	0acH
	DB	0a8H
	DB	0ffH
	DB	0a8H
	DB	0acH
	DB	0a8H
	DB	0ffH
	DB	0b0H
	DB	0acH
	DB	0b0H
	DB	0ffH
	DB	0b0H
	DB	0acH
	DB	0b0H
	DB	0ffH
	DB	0a8H
	DB	0acH
	DB	0a8H
	DB	0ffH
	DB	0b0H
	DB	0acH
	DB	0b0H
	DB	0ffH
	DB	0b0H
	DB	0acH
	DB	0b0H
	DB	0ffH
	DB	0a8H
	DB	0acH
	DB	0a8H
	DB	0ffH
	DB	0b0H
	DB	0acH
	DB	0b0H
	DB	0ffH
	DB	0a8H
	DB	0acH
	DB	0a8H
	DB	0ffH
	DB	0b0H
	DB	0acH
	DB	0b0H
	DB	0ffH
	DB	0a8H
	DB	0acH
	DB	0a8H
	DB	0ffH
	DB	0b0H
	DB	0acH
	DB	0b0H
	DB	0ffH
	DB	0a8H
	DB	0acH
	DB	0a8H
	DB	0ffH
	DB	0b0H
	DB	0acH
	DB	0b0H
	DB	0ffH
	DB	0a8H
	DB	0acH
	DB	0a8H
	DB	0ffH
	DB	0b0H
	DB	0acH
	DB	0b0H
	DB	0ffH
	DB	0b0H
	DB	0acH
	DB	0b0H
	DB	0ffH
	DB	0a8H
	DB	0acH
	DB	0a8H
	DB	0ffH
	DB	0b0H
	DB	0acH
	DB	0b0H
	DB	0ffH
	DB	0a8H
	DB	0acH
	DB	0a8H
	DB	0ffH
	DB	0a8H
	DB	0acH
	DB	0a8H
	DB	0ffH
	DB	0b0H
	DB	0acH
	DB	0b0H
	DB	0ffH
	DB	0a8H
	DB	0acH
	DB	0a8H
	DB	0ffH
	DB	0a8H
	DB	0acH
	DB	0a8H
	DB	0ffH
	DB	0b0H
	DB	0acH
	DB	0b0H
	DB	0ffH
	DB	0a8H
	DB	0acH
	DB	0a8H
	DB	0ffH
	DB	0a8H
	DB	0acH
	DB	0a8H
	DB	0ffH
	DB	0b0H
	DB	0acH
	DB	0b0H
	DB	0ffH
	DB	0a8H
	DB	0acH
	DB	0a8H
	DB	0ffH
	DB	0a8H
	DB	0acH
	DB	0a8H
	DB	0ffH
	DB	0a8H
	DB	0acH
	DB	0a8H
	DB	0ffH
	DB	0b0H
	DB	0acH
	DB	0b0H
	DB	0ffH
	DB	0a8H
	DB	0acH
	DB	0a8H
	DB	0ffH
	DB	0a8H
	DB	0acH
	DB	0a8H
	DB	0ffH
	DB	0b0H
	DB	0acH
	DB	0b0H
	DB	0ffH
	DB	0a8H
	DB	0acH
	DB	0a8H
	DB	0ffH
	DB	0a8H
	DB	0acH
	DB	0a8H
	DB	0ffH
	DB	0b0H
	DB	0acH
	DB	0b0H
	DB	0ffH
	DB	0b0H
	DB	0acH
	DB	0b0H
	DB	0ffH
	DB	0a8H
	DB	0acH
	DB	0a8H
	DB	0ffH
	DB	0b0H
	DB	0acH
	DB	0b0H
	DB	0ffH
	DB	0b0H
	DB	0acH
	DB	0b0H
	DB	0ffH
	DB	0a8H
	DB	0acH
	DB	0a8H
	DB	0ffH
	DB	0b0H
	DB	0acH
	DB	0b0H
	DB	0ffH
	DB	0b0H
	DB	0acH
	DB	0b0H
	DB	0ffH
	DB	0a8H
	DB	0acH
	DB	0a8H
	DB	0ffH
	DB	0b0H
	DB	0acH
	DB	0b0H
	DB	0ffH
	DB	0b0H
	DB	0acH
	DB	0b0H
	DB	0ffH
	DB	0a8H
	DB	0acH
	DB	0a8H
	DB	0ffH
	DB	0b0H
	DB	0acH
	DB	0b0H
	DB	0ffH
	DB	0b0H
	DB	0acH
	DB	0b0H
	DB	0ffH
	DB	0a8H
	DB	0acH
	DB	0a8H
	DB	0ffH
	DB	0b0H
	DB	0acH
	DB	0b0H
	DB	0ffH
	DB	0b0H
	DB	0acH
	DB	0b0H
	DB	0ffH
	DB	0a8H
	DB	0acH
	DB	0a8H
	DB	0ffH
	DB	0b0H
	DB	0acH
	DB	0b0H
	DB	0ffH
	DB	0a8H
	DB	0acH
	DB	0a8H
	DB	0ffH
	DB	0a8H
	DB	0acH
	DB	0a8H
	DB	0ffH
	DB	0b0H
	DB	0acH
	DB	0b0H
	DB	0ffH
	DB	0a8H
	DB	0acH
	DB	0a8H
	DB	0ffH
	DB	0b0H
	DB	0acH
	DB	0b0H
	DB	0ffH
	DB	0a8H
	DB	0acH
	DB	0a8H
	DB	0ffH
	DB	0a8H
	DB	0acH
	DB	0a8H
	DB	0ffH
	DB	0b0H
	DB	0acH
	DB	0b0H
	DB	0ffH
	DB	0a8H
	DB	0acH
	DB	0a8H
	DB	0ffH
	DB	0a8H
	DB	0acH
	DB	0a8H
	DB	0ffH
	DB	0b0H
	DB	0acH
	DB	0b0H
	DB	0ffH
	DB	0a8H
	DB	0acH
	DB	0a8H
	DB	0ffH
	DB	0b0H
	DB	0acH
	DB	0b0H
	DB	0ffH
	DB	0a8H
	DB	0acH
	DB	0a8H
	DB	0ffH
	DB	0a8H
	DB	0acH
	DB	0a8H
	DB	0ffH
	DB	0b0H
	DB	0acH
	DB	0b0H
	DB	0ffH
	DB	0a8H
	DB	0acH
	DB	0a8H
	DB	0ffH
	DB	0b0H
	DB	0acH
	DB	0b0H
	DB	0ffH
	DB	0a8H
	DB	0acH
	DB	0a8H
	DB	0ffH
	DB	0b0H
	DB	0acH
	DB	0b0H
	DB	0ffH
	DB	0b0H
	DB	0acH
	DB	0b0H
	DB	0ffH
	DB	0a8H
	DB	0acH
	DB	0a8H
	DB	0ffH
	DB	0b0H
	DB	0acH
	DB	0b0H
	DB	0ffH
	DB	0a8H
	DB	0acH
	DB	0a8H
	DB	0ffH
	DB	0b0H
	DB	0acH
	DB	0b0H
	DB	0ffH
	DB	0b0H
	DB	0acH
	DB	0b0H
	DB	0ffH
	DB	0a8H
	DB	0acH
	DB	0a8H
	DB	0ffH
	DB	0b0H
	DB	0acH
	DB	0b0H
	DB	0ffH
	DB	0b0H
	DB	0acH
	DB	0b0H
	DB	0ffH
	DB	0a8H
	DB	0acH
	DB	0a8H
	DB	0ffH
	DB	0a8H
	DB	0acH
	DB	0a8H
	DB	0ffH
	DB	0b0H
	DB	0acH
	DB	0b0H
	DB	0ffH
	DB	0a8H
	DB	0acH
	DB	0a8H
	DB	0ffH
	DB	0b0H
	DB	0acH
	DB	0b0H
	DB	0ffH
	DB	0a8H
	DB	0acH
	DB	0a8H
	DB	0ffH
	DB	0b0H
	DB	0acH
	DB	0b0H
	DB	0ffH
	DB	0a8H
	DB	0acH
	DB	0a8H
	DB	0ffH
	DB	0a8H
	DB	0acH
	DB	0a8H
	DB	0ffH
	DB	0b0H
	DB	0acH
	DB	0b0H
	DB	0ffH
	DB	0a8H
	DB	0acH
	DB	0a8H
	DB	0ffH
	DB	0b0H
	DB	0acH
	DB	0b0H
	DB	0ffH
	DB	0a8H
	DB	0acH
	DB	0a8H
	DB	0ffH
	DB	0b0H
	DB	0acH
	DB	0b0H
	DB	0ffH
	DB	0a8H
	DB	0acH
	DB	0a8H
	DB	0ffH
	DB	0a8H
	DB	0acH
	DB	0a8H
	DB	0ffH
	DB	0b0H
	DB	0acH
	DB	0b0H
	DB	0ffH
	DB	0a8H
	DB	0acH
	DB	0a8H
	DB	0ffH
	DB	0a8H
	DB	0acH
	DB	0a8H
	DB	0ffH
	DB	0b0H
	DB	0acH
	DB	0b0H
	DB	0ffH
	DB	0b0H
	DB	0acH
	DB	0b0H
	DB	0ffH
	DB	0a8H
	DB	0acH
	DB	0a8H
	DB	0ffH
	DB	0b0H
	DB	0acH
	DB	0b0H
	DB	0ffH
	DB	0a8H
	DB	0acH
	DB	0a8H
	DB	0ffH
	DB	0a8H
	DB	0acH
	DB	0a8H
	DB	0ffH
	DB	0b0H
	DB	0acH
	DB	0b0H
	DB	0ffH
	DB	0a8H
	DB	0acH
	DB	0a8H
	DB	0ffH
	DB	0b0H
	DB	0acH
	DB	0b0H
	DB	0ffH
	DB	0b0H
	DB	0acH
	DB	0b0H
	DB	0ffH
	DB	0a8H
	DB	0acH
	DB	0a8H
	DB	0ffH
	DB	0b0H
	DB	0acH
	DB	0b0H
	DB	0ffH
	DB	0a8H
	DB	0acH
	DB	0a8H
	DB	0ffH
	DB	0b0H
	DB	0acH
	DB	0b0H
	DB	0ffH
	DB	0a8H
	DB	0acH
	DB	0a8H
	DB	0ffH
	DB	0b0H
	DB	0acH
	DB	0b0H
	DB	0ffH
	DB	0b0H
	DB	0acH
	DB	0b0H
	DB	0ffH
	DB	0a8H
	DB	0acH
	DB	0a8H
	DB	0ffH
	DB	0b0H
	DB	0acH
	DB	0b0H
	DB	0ffH
	DB	0a8H
	DB	0acH
	DB	0a8H
	DB	0ffH
	DB	0b0H
	DB	0acH
	DB	0b0H
	DB	0ffH
	DB	0a8H
	DB	0acH
	DB	0a8H
	DB	0ffH
	DB	0b0H
	DB	0acH
	DB	0b0H
	DB	0ffH
	DB	0b0H
	DB	0acH
	DB	0b0H
	DB	0ffH
	DB	0a8H
	DB	0acH
	DB	0a8H
	DB	0ffH
	DB	0b0H
	DB	0acH
	DB	0b0H
	DB	0ffH
	DB	0a8H
	DB	0acH
	DB	0a8H
	DB	0ffH
	DB	0b0H
	DB	0acH
	DB	0b0H
	DB	0ffH
	DB	0a8H
	DB	0acH
	DB	0a8H
	DB	0ffH
	DB	0b0H
	DB	0acH
	DB	0b0H
	DB	0ffH
	DB	0a8H
	DB	0acH
	DB	0a8H
	DB	0ffH
	DB	0a8H
	DB	0acH
	DB	0a8H
	DB	0ffH
	DB	0b0H
	DB	0acH
	DB	0b0H
	DB	0ffH
	DB	0a8H
	DB	0acH
	DB	0a8H
	DB	0ffH
	DB	0b0H
	DB	0acH
	DB	0b0H
	DB	0ffH
	DB	0a8H
	DB	0acH
	DB	0a8H
	DB	0ffH
	DB	0a8H
	DB	0acH
	DB	0a8H
	DB	0ffH
	DB	0b0H
	DB	0acH
	DB	0b0H
	DB	0ffH
	DB	0b0H
	DB	0acH
	DB	0b0H
	DB	0ffH
	DB	0a8H
	DB	0acH
	DB	0a8H
	DB	0ffH
	DB	0a8H
	DB	0acH
	DB	0a8H
	DB	0ffH
	DB	0b0H
	DB	0acH
	DB	0b0H
	DB	0ffH
	DB	0a8H
	DB	0acH
	DB	0a8H
	DB	0ffH
	DB	0a8H
	DB	0acH
	DB	0a8H
	DB	0ffH
	DB	0b0H
	DB	0acH
	DB	0b0H
	DB	0ffH
	DB	0b0H
	DB	0acH
	DB	0b0H
	DB	0ffH
	DB	0a8H
	DB	0acH
	DB	0a8H
	DB	0ffH
	DB	0b0H
	DB	0acH
	DB	0b0H
	DB	0ffH
	DB	0a8H
	DB	0acH
	DB	0a8H
	DB	0ffH
	DB	0b0H
	DB	0acH
	DB	0b0H
	DB	0ffH
	DB	0b0H
	DB	0acH
	DB	0b0H
	DB	0ffH
	DB	0a8H
	DB	0acH
	DB	0a8H
	DB	0ffH
	DB	0b0H
	DB	0acH
	DB	0b0H
	DB	0ffH
	DB	0b0H
	DB	0acH
	DB	0b0H
	DB	0ffH
	DB	0a8H
	DB	0acH
	DB	0a8H
	DB	0ffH
	DB	0b0H
	DB	0acH
	DB	0b0H
	DB	0ffH
	DB	0a8H
	DB	0acH
	DB	0a8H
	DB	0ffH
	DB	0b0H
	DB	0acH
	DB	0b0H
	DB	0ffH
	DB	0a8H
	DB	0acH
	DB	0a8H
	DB	0ffH
	DB	0b0H
	DB	0acH
	DB	0b0H
	DB	0ffH
	DB	0b0H
	DB	0acH
	DB	0b0H
	DB	0ffH
	DB	0a8H
	DB	0acH
	DB	0a8H
	DB	0ffH
	DB	0b0H
	DB	0acH
	DB	0b0H
	DB	0ffH
	DB	0a8H
	DB	0acH
	DB	0a8H
	DB	0ffH
	DB	0a8H
	DB	0acH
	DB	0a8H
	DB	0ffH
	DB	0a8H
	DB	0acH
	DB	0a8H
	DB	0ffH
	DB	0b0H
	DB	0acH
	DB	0b0H
	DB	0ffH
	DB	0a8H
	DB	0acH
	DB	0a8H
	DB	0ffH
	DB	0a8H
	DB	0acH
	DB	0a8H
	DB	0ffH
	DB	0b0H
	DB	0acH
	DB	0b0H
	DB	0ffH
	DB	0a8H
	DB	0acH
	DB	0a8H
	DB	0ffH
	DB	0a8H
	DB	0acH
	DB	0a8H
	DB	0ffH
	DB	0b0H
	DB	0acH
	DB	0b0H
	DB	0ffH
	DB	0a8H
	DB	0acH
	DB	0a8H
	DB	0ffH
	DB	0a8H
	DB	0acH
	DB	0a8H
	DB	0ffH
	DB	0b0H
	DB	0acH
	DB	0b0H
	DB	0ffH
	DB	0b0H
	DB	0acH
	DB	0b0H
	DB	0ffH
	DB	0a8H
	DB	0acH
	DB	0a8H
	DB	0ffH
	DB	0a8H
	DB	0acH
	DB	0a8H
	DB	0ffH
	DB	0b0H
	DB	0acH
	DB	0b0H
	DB	0ffH
	DB	0a8H
	DB	0acH
	DB	0a8H
	DB	0ffH
	DB	0b0H
	DB	0acH
	DB	0b0H
	DB	0ffH
	DB	0b0H
	DB	0acH
	DB	0b0H
	DB	0ffH
	DB	0b0H
	DB	0acH
	DB	0b0H
	DB	0ffH
	DB	0a8H
	DB	0acH
	DB	0a8H
	DB	0ffH
	DB	0b0H
	DB	0acH
	DB	0b0H
	DB	0ffH
	DB	0b0H
	DB	0acH
	DB	0b0H
	DB	0ffH
	DB	0a8H
	DB	0acH
	DB	0a8H
	DB	0ffH
	DB	0b0H
	DB	0acH
	DB	0b0H
	DB	0ffH
	DB	0b0H
	DB	0acH
	DB	0b0H
	DB	0ffH
	DB	0a8H
	DB	0acH
	DB	0a8H
	DB	0ffH
	DB	0b0H
	DB	0acH
	DB	0b0H
	DB	0ffH
	DB	0b0H
	DB	0acH
	DB	0b0H
	DB	0ffH
	DB	0a8H
	DB	0acH
	DB	0a8H
	DB	0ffH
	DB	0b0H
	DB	0acH
	DB	0b0H
	DB	0ffH
	DB	0a8H
	DB	0acH
	DB	0a8H
	DB	0ffH
	DB	0b0H
	DB	0acH
	DB	0b0H
	DB	0ffH
	DB	0a8H
	DB	0acH
	DB	0a8H
	DB	0ffH
	DB	0b0H
	DB	0acH
	DB	0b0H
	DB	0ffH
	DB	0a8H
	DB	0acH
	DB	0a8H
	DB	0ffH
	DB	0a8H
	DB	0acH
	DB	0a8H
	DB	0ffH
	DB	0a8H
	DB	0acH
	DB	0a8H
	DB	0ffH
	DB	0b0H
	DB	0acH
	DB	0b0H
	DB	0ffH
	DB	0a8H
	DB	0acH
	DB	0a8H
	DB	0ffH
	DB	0b0H
	DB	0acH
	DB	0b0H
	DB	0ffH
	DB	0b0H
	DB	0acH
	DB	0b0H
	DB	0ffH
	DB	0a8H
	DB	0acH
	DB	0a8H
	DB	0ffH
	DB	0b0H
	DB	0acH
	DB	0b0H
	DB	0ffH
	DB	0a8H
	DB	0acH
	DB	0a8H
	DB	0ffH
	DB	0a8H
	DB	0acH
	DB	0a8H
	DB	0ffH
	DB	0b0H
	DB	0acH
	DB	0b0H
	DB	0ffH
	DB	0a8H
	DB	0acH
	DB	0a8H
	DB	0ffH
	DB	0a8H
	DB	0acH
	DB	0a8H
	DB	0ffH
	DB	0b0H
	DB	0acH
	DB	0b0H
	DB	0ffH
	DB	0a8H
	DB	0acH
	DB	0a8H
	DB	0ffH
	DB	0b0H
	DB	0acH
	DB	0b0H
	DB	0ffH
	DB	0a8H
	DB	0acH
	DB	0a8H
	DB	0ffH
	DB	0b0H
	DB	0acH
	DB	0b0H
	DB	0ffH
	DB	0b0H
	DB	0acH
	DB	0b0H
	DB	0ffH
	DB	0b0H
	DB	0acH
	DB	0b0H
	DB	0ffH
	DB	0a8H
	DB	0acH
	DB	0a8H
	DB	0ffH
	DB	0b0H
	DB	0acH
	DB	0b0H
	DB	0ffH
	DB	0a8H
	DB	0acH
	DB	0a8H
	DB	0ffH
	DB	0a8H
	DB	0acH
	DB	0a8H
	DB	0ffH
	DB	0a8H
	DB	0acH
	DB	0a8H
	DB	0ffH
	DB	0a8H
	DB	0acH
	DB	0a8H
	DB	0ffH
	DB	0a8H
	DB	0acH
	DB	0a8H
	DB	0ffH
	DB	0b0H
	DB	0acH
	DB	0b0H
	DB	0ffH
	DB	0b0H
	DB	0acH
	DB	0b0H
	DB	0ffH
	DB	0a8H
	DB	0acH
	DB	0a8H
	DB	0ffH
	DB	0b0H
	DB	0acH
	DB	0b0H
	DB	0ffH
	DB	0b0H
	DB	0acH
	DB	0b0H
	DB	0ffH
	DB	0a8H
	DB	0acH
	DB	0a8H
	DB	0ffH
	DB	0b0H
	DB	0acH
	DB	0b0H
	DB	0ffH
	DB	0a8H
	DB	0acH
	DB	0a8H
	DB	0ffH
	DB	0b0H
	DB	0acH
	DB	0b0H
	DB	0ffH
	DB	0a8H
	DB	0acH
	DB	0a8H
	DB	0ffH
	DB	0a8H
	DB	0acH
	DB	0a8H
	DB	0ffH
	DB	0b0H
	DB	0acH
	DB	0b0H
	DB	0ffH
	DB	0a8H
	DB	0acH
	DB	0a8H
	DB	0ffH
	DB	0b0H
	DB	0acH
	DB	0b0H
	DB	0ffH
	DB	0b0H
	DB	0acH
	DB	0b0H
	DB	0ffH
	DB	0b0H
	DB	0acH
	DB	0b0H
	DB	0ffH
	DB	0b0H
	DB	0acH
	DB	0b0H
	DB	0ffH
	DB	0b0H
	DB	0acH
	DB	0b0H
	DB	0ffH
	DB	0a8H
	DB	0acH
	DB	0a8H
	DB	0ffH
	DB	0a8H
	DB	0acH
	DB	0a8H
	DB	0ffH
	DB	0b0H
	DB	0acH
	DB	0b0H
	DB	0ffH
	DB	0a8H
	DB	0acH
	DB	0a8H
	DB	0ffH
	DB	0a8H
	DB	0acH
	DB	0a8H
	DB	0ffH
	DB	0b0H
	DB	0acH
	DB	0b0H
	DB	0ffH
	DB	0a8H
	DB	0acH
	DB	0a8H
	DB	0ffH
	DB	0b0H
	DB	0acH
	DB	0b0H
	DB	0ffH
	DB	0a8H
	DB	0acH
	DB	0a8H
	DB	0ffH
	DB	0b0H
	DB	0acH
	DB	0b0H
	DB	0ffH
	DB	0a8H
	DB	0acH
	DB	0a8H
	DB	0ffH
	DB	0b0H
	DB	0acH
	DB	0b0H
	DB	0ffH
	DB	0a8H
	DB	0acH
	DB	0a8H
	DB	0ffH
	DB	0a8H
	DB	0acH
	DB	0a8H
	DB	0ffH
	DB	0b0H
	DB	0acH
	DB	0b0H
	DB	0ffH
	DB	0a8H
	DB	0acH
	DB	0a8H
	DB	0ffH
	DB	0a8H
	DB	0acH
	DB	0a8H
	DB	0ffH
	DB	0a8H
	DB	0acH
	DB	0a8H
	DB	0ffH
	DB	0b0H
	DB	0acH
	DB	0b0H
	DB	0ffH
	DB	0a8H
	DB	0acH
	DB	0a8H
	DB	0ffH
	DB	0b0H
	DB	0acH
	DB	0b0H
	DB	0ffH
	DB	0b0H
	DB	0acH
	DB	0b0H
	DB	0ffH
	DB	0a8H
	DB	0acH
	DB	0a8H
	DB	0ffH
	DB	0b0H
	DB	0acH
	DB	0b0H
	DB	0ffH
	DB	0b0H
	DB	0acH
	DB	0b0H
	DB	0ffH
	DB	0a8H
	DB	0acH
	DB	0a8H
	DB	0ffH
	DB	0a8H
	DB	0acH
	DB	0a8H
	DB	0ffH
	DB	0b0H
	DB	0acH
	DB	0b0H
	DB	0ffH
	DB	0b0H
	DB	0acH
	DB	0b0H
	DB	0ffH
	DB	0a8H
	DB	0acH
	DB	0a8H
	DB	0ffH
	DB	0b0H
	DB	0acH
	DB	0b0H
	DB	0ffH
	DB	0b0H
	DB	0acH
	DB	0b0H
	DB	0ffH
	DB	0a8H
	DB	0acH
	DB	0a8H
	DB	0ffH
	DB	0b0H
	DB	0acH
	DB	0b0H
	DB	0ffH
	DB	0b0H
	DB	0acH
	DB	0b0H
	DB	0ffH
	DB	0a8H
	DB	0acH
	DB	0a8H
	DB	0ffH
	DB	0a8H
	DB	0acH
	DB	0a8H
	DB	0ffH
	DB	0b0H
	DB	0acH
	DB	0b0H
	DB	0ffH
	DB	0a8H
	DB	0acH
	DB	0a8H
	DB	0ffH
	DB	0a8H
	DB	0acH
	DB	0a8H
	DB	0ffH
	DB	0b0H
	DB	0acH
	DB	0b0H
	DB	0ffH
	DB	0a8H
	DB	0acH
	DB	0a8H
	DB	0ffH
	DB	0b0H
	DB	0acH
	DB	0b0H
	DB	0ffH
	DB	0a8H
	DB	0acH
	DB	0a8H
	DB	0ffH
	DB	0b0H
	DB	0acH
	DB	0b0H
	DB	0ffH
	DB	0a8H
	DB	0acH
	DB	0a8H
	DB	0ffH
	DB	0b0H
	DB	0acH
	DB	0b0H
	DB	0ffH
	DB	0a8H
	DB	0acH
	DB	0a8H
	DB	0ffH
	DB	0a8H
	DB	0acH
	DB	0a8H
	DB	0ffH
	DB	0b0H
	DB	0acH
	DB	0b0H
	DB	0ffH
	DB	0a8H
	DB	0acH
	DB	0a8H
	DB	0ffH
	DB	0a8H
	DB	0acH
	DB	0a8H
	DB	0ffH
	DB	0b0H
	DB	0acH
	DB	0b0H
	DB	0ffH
	DB	0a8H
	DB	0acH
	DB	0a8H
	DB	0ffH
	DB	0b0H
	DB	0acH
	DB	0b0H
	DB	0ffH
	DB	0b0H
	DB	0acH
	DB	0b0H
	DB	0ffH
	DB	0b0H
	DB	0acH
	DB	0b0H
	DB	0ffH
	DB	0b0H
	DB	0acH
	DB	0b0H
	DB	0ffH
	DB	0a8H
	DB	0acH
	DB	0a8H
	DB	0ffH
	DB	0b0H
	DB	0acH
	DB	0b0H
	DB	0ffH
	DB	0a8H
	DB	0acH
	DB	0a8H
	DB	0ffH
	DB	0a8H
	DB	0acH
	DB	0a8H
	DB	0ffH
	DB	0b0H
	DB	0acH
	DB	0b0H
	DB	0ffH
	DB	0a8H
	DB	0acH
	DB	0a8H
	DB	0ffH
	DB	0a8H
	DB	0acH
	DB	0a8H
	DB	0ffH
	DB	0b0H
	DB	0acH
	DB	0b0H
	DB	0ffH
	DB	0b0H
	DB	0acH
	DB	0b0H
	DB	0ffH
	DB	0a8H
	DB	0acH
	DB	0a8H
	DB	0ffH
	DB	0b0H
	DB	0acH
	DB	0b0H
	DB	0ffH
	DB	0b0H
	DB	0acH
	DB	0b0H
	DB	0ffH
	DB	0a8H
	DB	0acH
	DB	0a8H
	DB	0ffH
	DB	0b0H
	DB	0acH
	DB	0b0H
	DB	0ffH
	DB	0a8H
	DB	0acH
	DB	0a8H
	DB	0ffH
	DB	0a8H
	DB	0acH
	DB	0a8H
	DB	0ffH
	DB	0a8H
	DB	0acH
	DB	0a8H
	DB	0ffH
	DB	0a8H
	DB	0acH
	DB	0a8H
	DB	0ffH
	DB	0a8H
	DB	0acH
	DB	0a8H
	DB	0ffH
	DB	0b0H
	DB	0acH
	DB	0b0H
	DB	0ffH
	DB	0a8H
	DB	0acH
	DB	0a8H
	DB	0ffH
	DB	0b0H
	DB	0acH
	DB	0b0H
	DB	0ffH
	DB	0b0H
	DB	0acH
	DB	0b0H
	DB	0ffH
	DB	0b0H
	DB	0acH
	DB	0b0H
	DB	0ffH
	DB	0a8H
	DB	0acH
	DB	0a8H
	DB	0ffH
	DB	0b0H
	DB	0acH
	DB	0b0H
	DB	0ffH
	DB	0b0H
	DB	0acH
	DB	0b0H
	DB	0ffH
	DB	0a8H
	DB	0acH
	DB	0a8H
	DB	0ffH
	DB	0a8H
	DB	0acH
	DB	0a8H
	DB	0ffH
	DB	0b0H
	DB	0acH
	DB	0b0H
	DB	0ffH
	DB	0a8H
	DB	0acH
	DB	0a8H
	DB	0ffH
	DB	0a8H
	DB	0acH
	DB	0a8H
	DB	0ffH
	DB	0b0H
	DB	0acH
	DB	0b0H
	DB	0ffH
	DB	0b0H
	DB	0acH
	DB	0b0H
	DB	0ffH
	DB	0b0H
	DB	0acH
	DB	0b0H
	DB	0ffH
	DB	0b0H
	DB	0acH
	DB	0b0H
	DB	0ffH
	DB	0b0H
	DB	0acH
	DB	0b0H
	DB	0ffH
	DB	0a8H
	DB	0acH
	DB	0a8H
	DB	0ffH
	DB	0b0H
	DB	0acH
	DB	0b0H
	DB	0ffH
	DB	0a8H
	DB	0acH
	DB	0a8H
	DB	0ffH
	DB	0a8H
	DB	0acH
	DB	0a8H
	DB	0ffH
	DB	0b0H
	DB	0acH
	DB	0b0H
	DB	0ffH
	DB	0a8H
	DB	0acH
	DB	0a8H
	DB	0ffH
	DB	0a8H
	DB	0acH
	DB	0a8H
	DB	0ffH
	DB	0b0H
	DB	0acH
	DB	0b0H
	DB	0ffH
	DB	0a8H
	DB	0acH
	DB	0a8H
	DB	0ffH
	DB	0b0H
	DB	0acH
	DB	0b0H
	DB	0ffH
	DB	0a8H
	DB	0acH
	DB	0a8H
	DB	0ffH
	DB	0b0H
	DB	0acH
	DB	0b0H
	DB	0ffH
	DB	0b0H
	DB	0acH
	DB	0b0H
	DB	0ffH
	DB	0a8H
	DB	0acH
	DB	0a8H
	DB	0ffH
	DB	0a8H
	DB	0acH
	DB	0a8H
	DB	0ffH
	DB	0b0H
	DB	0acH
	DB	0b0H
	DB	0ffH
	DB	0a8H
	DB	0acH
	DB	0a8H
	DB	0ffH
	DB	0a8H
	DB	0acH
	DB	0a8H
	DB	0ffH
	DB	0b0H
	DB	0acH
	DB	0b0H
	DB	0ffH
	DB	0a8H
	DB	0acH
	DB	0a8H
	DB	0ffH
	DB	0b0H
	DB	0acH
	DB	0b0H
	DB	0ffH
	DB	0b0H
	DB	0acH
	DB	0b0H
	DB	0ffH
	DB	0a8H
	DB	0acH
	DB	0a8H
	DB	0ffH
	DB	0b0H
	DB	0acH
	DB	0b0H
	DB	0ffH
	DB	0a8H
	DB	0acH
	DB	0a8H
	DB	0ffH
	DB	0a8H
	DB	0acH
	DB	0a8H
	DB	0ffH
	DB	0a8H
	DB	0acH
	DB	0a8H
	DB	0ffH
	DB	0b0H
	DB	0acH
	DB	0b0H
	DB	0ffH
	DB	0a8H
	DB	0acH
	DB	0a8H
	DB	0ffH
	DB	0a8H
	DB	0acH
	DB	0a8H
	DB	0ffH
	DB	0b0H
	DB	0acH
	DB	0b0H
	DB	0ffH
	DB	0a8H
	DB	0acH
	DB	0a8H
	DB	0ffH
	DB	0b0H
	DB	0acH
	DB	0b0H
	DB	0ffH
	DB	0b0H
	DB	0acH
	DB	0b0H
	DB	0ffH
	DB	0a8H
	DB	0acH
	DB	0a8H
	DB	0ffH
	DB	0b0H
	DB	0acH
	DB	0b0H
	DB	0ffH
	DB	0a8H
	DB	0acH
	DB	0a8H
	DB	0ffH
	DB	0a8H
	DB	0acH
	DB	0a8H
	DB	0ffH
	DB	0b0H
	DB	0acH
	DB	0b0H
	DB	0ffH
	DB	0a8H
	DB	0acH
	DB	0a8H
	DB	0ffH
	DB	0a8H
	DB	0acH
	DB	0a8H
	DB	0ffH
	DB	0b0H
	DB	0acH
	DB	0b0H
	DB	0ffH
	DB	0b0H
	DB	0acH
	DB	0b0H
	DB	0ffH
	DB	0a8H
	DB	0acH
	DB	0a8H
	DB	0ffH
	DB	0b0H
	DB	0acH
	DB	0b0H
	DB	0ffH
	DB	0b0H
	DB	0acH
	DB	0b0H
	DB	0ffH
	DB	0b0H
	DB	0acH
	DB	0b0H
	DB	0ffH
	DB	0a8H
	DB	0acH
	DB	0a8H
	DB	0ffH
	DB	0b0H
	DB	0acH
	DB	0b0H
	DB	0ffH
	DB	0b0H
	DB	0acH
	DB	0b0H
	DB	0ffH
	DB	0a8H
	DB	0acH
	DB	0a8H
	DB	0ffH
	DB	0a8H
	DB	0acH
	DB	0a8H
	DB	0ffH
	DB	0b0H
	DB	0acH
	DB	0b0H
	DB	0ffH
	DB	0a8H
	DB	0acH
	DB	0a8H
	DB	0ffH
	DB	0b0H
	DB	0acH
	DB	0b0H
	DB	0ffH
	DB	0b0H
	DB	0acH
	DB	0b0H
	DB	0ffH
	DB	0a8H
	DB	0acH
	DB	0a8H
	DB	0ffH
	DB	0b0H
	DB	0acH
	DB	0b0H
	DB	0ffH
	DB	0b0H
	DB	0acH
	DB	0b0H
	DB	0ffH
	DB	0a8H
	DB	0acH
	DB	0a8H
	DB	0ffH
	DB	0a8H
	DB	0acH
	DB	0a8H
	DB	0ffH
	DB	0b0H
	DB	0acH
	DB	0b0H
	DB	0ffH
	DB	0a8H
	DB	0acH
	DB	0a8H
	DB	0ffH
	DB	0a8H
	DB	0acH
	DB	0a8H
	DB	0ffH
	DB	0b0H
	DB	0acH
	DB	0b0H
	DB	0ffH
	DB	0a8H
	DB	0acH
	DB	0a8H
	DB	0ffH
	DB	0a8H
	DB	0acH
	DB	0a8H
	DB	0ffH
	DB	0b0H
	DB	0acH
	DB	0b0H
	DB	0ffH
	DB	0a8H
	DB	0acH
	DB	0a8H
	DB	0ffH
	DB	0b0H
	DB	0acH
	DB	0b0H
	DB	0ffH
	DB	0b0H
	DB	0acH
	DB	0b0H
	DB	0ffH
	DB	0a8H
	DB	0acH
	DB	0a8H
	DB	0ffH
	DB	0a8H
	DB	0acH
	DB	0a8H
	DB	0ffH
	DB	0b0H
	DB	0acH
	DB	0b0H
	DB	0ffH
	DB	0a8H
	DB	0acH
	DB	0a8H
	DB	0ffH
	DB	0a8H
	DB	0acH
	DB	0a8H
	DB	0ffH
	DB	0b0H
	DB	0acH
	DB	0b0H
	DB	0ffH
	DB	0a8H
	DB	0acH
	DB	0a8H
	DB	0ffH
	DB	0b0H
	DB	0acH
	DB	0b0H
	DB	0ffH
	DB	0b0H
	DB	0acH
	DB	0b0H
	DB	0ffH
	DB	0a8H
	DB	0acH
	DB	0a8H
	DB	0ffH
	DB	0b0H
	DB	0acH
	DB	0b0H
	DB	0ffH
	DB	0b0H
	DB	0acH
	DB	0b0H
	DB	0ffH
	DB	0a8H
	DB	0acH
	DB	0a8H
	DB	0ffH
	DB	0b0H
	DB	0acH
	DB	0b0H
	DB	0ffH
	DB	0a8H
	DB	0acH
	DB	0a8H
	DB	0ffH
	DB	0a8H
	DB	0acH
	DB	0a8H
	DB	0ffH
	DB	0b0H
	DB	0acH
	DB	0b0H
	DB	0ffH
	DB	0a8H
	DB	0acH
	DB	0a8H
	DB	0ffH
	DB	0a8H
	DB	0acH
	DB	0a8H
	DB	0ffH
	DB	0b0H
	DB	0acH
	DB	0b0H
	DB	0ffH
	DB	0b0H
	DB	0acH
	DB	0b0H
	DB	0ffH
	DB	0a8H
	DB	0acH
	DB	0a8H
	DB	0ffH
	DB	0b0H
	DB	0acH
	DB	0b0H
	DB	0ffH
	DB	0a8H
	DB	0acH
	DB	0a8H
	DB	0ffH
	DB	0b0H
	DB	0acH
	DB	0b0H
	DB	0ffH
	DB	0a8H
	DB	0acH
	DB	0a8H
	DB	0ffH
	DB	0a8H
	DB	0acH
	DB	0a8H
	DB	0ffH
	DB	0b0H
	DB	0acH
	DB	0b0H
	DB	0ffH
	DB	0a8H
	DB	0acH
	DB	0a8H
	DB	0ffH
	DB	0a8H
	DB	0acH
	DB	0a8H
	DB	0ffH
	DB	0b0H
	DB	0acH
	DB	0b0H
	DB	0ffH
	DB	0a8H
	DB	0acH
	DB	0a8H
	DB	0ffH
	DB	0b0H
	DB	0acH
	DB	0b0H
	DB	0ffH
	DB	0a8H
	DB	0acH
	DB	0a8H
	DB	0ffH
	DB	0b0H
	DB	0acH
	DB	0b0H
	DB	0ffH
	DB	0b0H
	DB	0acH
	DB	0b0H
	DB	0ffH
	DB	0a8H
	DB	0acH
	DB	0a8H
	DB	0ffH
	DB	0b0H
	DB	0acH
	DB	0b0H
	DB	0ffH
	DB	0a8H
	DB	0acH
	DB	0a8H
	DB	0ffH
	DB	0a8H
	DB	0acH
	DB	0a8H
	DB	0ffH
	DB	0b0H
	DB	0acH
	DB	0b0H
	DB	0ffH
	DB	0b0H
	DB	0acH
	DB	0b0H
	DB	0ffH
	DB	0a8H
	DB	0acH
	DB	0a8H
	DB	0ffH
	DB	0b0H
	DB	0acH
	DB	0b0H
	DB	0ffH
	DB	0b0H
	DB	0acH
	DB	0b0H
	DB	0ffH
	DB	0a8H
	DB	0acH
	DB	0a8H
	DB	0ffH
	DB	0b0H
	DB	0acH
	DB	0b0H
	DB	0ffH
	DB	0b0H
	DB	0acH
	DB	0b0H
	DB	0ffH
	DB	0a8H
	DB	0acH
	DB	0a8H
	DB	0ffH
	DB	0b0H
	DB	0acH
	DB	0b0H
	DB	0ffH
	DB	0a8H
	DB	0acH
	DB	0a8H
	DB	0ffH
	DB	0b0H
	DB	0acH
	DB	0b0H
	DB	0ffH
	DB	0a8H
	DB	0acH
	DB	0a8H
	DB	0ffH
	DB	0b0H
	DB	0acH
	DB	0b0H
	DB	0ffH
	DB	0a8H
	DB	0acH
	DB	0a8H
	DB	0ffH
	DB	0a8H
	DB	0acH
	DB	0a8H
	DB	0ffH
	DB	0b0H
	DB	0acH
	DB	0b0H
	DB	0ffH
	DB	0b0H
	DB	0acH
	DB	0b0H
	DB	0ffH
	DB	0b0H
	DB	0acH
	DB	0b0H
	DB	0ffH
	DB	0a8H
	DB	0acH
	DB	0a8H
	DB	0ffH
	DB	0a8H
	DB	0acH
	DB	0a8H
	DB	0ffH
	DB	0b0H
	DB	0acH
	DB	0b0H
	DB	0ffH
	DB	0a8H
	DB	0acH
	DB	0a8H
	DB	0ffH
	DB	0a8H
	DB	0acH
	DB	0a8H
	DB	0ffH
	DB	0b0H
	DB	0acH
	DB	0b0H
	DB	0ffH
	DB	0a8H
	DB	0acH
	DB	0a8H
	DB	0ffH
	DB	0b0H
	DB	0acH
	DB	0b0H
	DB	0ffH
	DB	0a8H
	DB	0acH
	DB	0a8H
	DB	0ffH
	DB	0b0H
	DB	0acH
	DB	0b0H
	DB	0ffH
	DB	0a8H
	DB	0acH
	DB	0a8H
	DB	0ffH
	DB	0b0H
	DB	0acH
	DB	0b0H
	DB	0ffH
	DB	0a8H
	DB	0acH
	DB	0a8H
	DB	0ffH
	DB	0b0H
	DB	0acH
	DB	0b0H
	DB	0ffH
	DB	0a8H
	DB	0acH
	DB	0a8H
	DB	0ffH
	DB	0b0H
	DB	0acH
	DB	0b0H
	DB	0ffH
	DB	0a8H
	DB	0acH
	DB	0a8H
	DB	0ffH
	DB	0a8H
	DB	0acH
	DB	0a8H
	DB	0ffH
	DB	0b0H
	DB	0acH
	DB	0b0H
	DB	0ffH
	DB	0a8H
	DB	0acH
	DB	0a8H
	DB	0ffH
	DB	0b0H
	DB	0acH
	DB	0b0H
	DB	0ffH
	DB	0b0H
	DB	0acH
	DB	0b0H
	DB	0ffH
	DB	0a8H
	DB	0acH
	DB	0a8H
	DB	0ffH
	DB	0b0H
	DB	0acH
	DB	0b0H
	DB	0ffH
	DB	0a8H
	DB	0acH
	DB	0a8H
	DB	0ffH
	DB	0b0H
	DB	0acH
	DB	0b0H
	DB	0ffH
	DB	0a8H
	DB	0acH
	DB	0a8H
	DB	0ffH
	DB	0a8H
	DB	0acH
	DB	0a8H
	DB	0ffH
	DB	0b0H
	DB	0acH
	DB	0b0H
	DB	0ffH
	DB	0a8H
	DB	0acH
	DB	0a8H
	DB	0ffH
	DB	0b0H
	DB	0acH
	DB	0b0H
	DB	0ffH
	DB	0a8H
	DB	0acH
	DB	0a8H
	DB	0ffH
	DB	0b0H
	DB	0acH
	DB	0b0H
	DB	0ffH
	DB	0a8H
	DB	0acH
	DB	0a8H
	DB	0ffH
	DB	0b0H
	DB	0acH
	DB	0b0H
	DB	0ffH
	DB	0a8H
	DB	0acH
	DB	0a8H
	DB	0ffH
	DB	0b0H
	DB	0acH
	DB	0b0H
	DB	0ffH
	DB	0a8H
	DB	0acH
	DB	0a8H
	DB	0ffH
	DB	0a8H
	DB	0acH
	DB	0a8H
	DB	0ffH
	DB	0b0H
	DB	0acH
	DB	0b0H
	DB	0ffH
	DB	0a8H
	DB	0acH
	DB	0a8H
	DB	0ffH
	DB	0a8H
	DB	0acH
	DB	0a8H
	DB	0ffH
	DB	0b0H
	DB	0acH
	DB	0b0H
	DB	0ffH
	DB	0a8H
	DB	0acH
	DB	0a8H
	DB	0ffH
	DB	0b0H
	DB	0acH
	DB	0b0H
	DB	0ffH
	DB	0b0H
	DB	0acH
	DB	0b0H
	DB	0ffH
	DB	0a8H
	DB	0acH
	DB	0a8H
	DB	0ffH
	DB	0b0H
	DB	0acH
	DB	0b0H
	DB	0ffH
	DB	0b0H
	DB	0acH
	DB	0b0H
	DB	0ffH
	DB	0a8H
	DB	0acH
	DB	0a8H
	DB	0ffH
	DB	0a8H
	DB	0acH
	DB	0a8H
	DB	0ffH
	DB	0b0H
	DB	0acH
	DB	0b0H
	DB	0ffH
	DB	0a8H
	DB	0acH
	DB	0a8H
	DB	0ffH
	DB	0b0H
	DB	0acH
	DB	0b0H
	DB	0ffH
	DB	0a8H
	DB	0acH
	DB	0a8H
	DB	0ffH
	DB	0b0H
	DB	0acH
	DB	0b0H
	DB	0ffH
	DB	0b0H
	DB	0acH
	DB	0b0H
	DB	0ffH
	DB	0b0H
	DB	0acH
	DB	0b0H
	DB	0ffH
	DB	0a8H
	DB	0acH
	DB	0a8H
	DB	0ffH
	DB	0b0H
	DB	0acH
	DB	0b0H
	DB	0ffH
	DB	0b0H
	DB	0acH
	DB	0b0H
	DB	0ffH
	DB	0a8H
	DB	0acH
	DB	0a8H
	DB	0ffH
	DB	0b0H
	DB	0acH
	DB	0b0H
	DB	0ffH
	DB	0a8H
	DB	0acH
	DB	0a8H
	DB	0ffH
	DB	0a8H
	DB	0acH
	DB	0a8H
	DB	0ffH
	DB	0b0H
	DB	0acH
	DB	0b0H
	DB	0ffH
	DB	0a8H
	DB	0acH
	DB	0a8H
	DB	0ffH
	DB	0b0H
	DB	0acH
	DB	0b0H
	DB	0ffH
	DB	0a8H
	DB	0acH
	DB	0a8H
	DB	0ffH
	DB	0b0H
	DB	0acH
	DB	0b0H
	DB	0ffH
	DB	0b0H
	DB	0acH
	DB	0b0H
	DB	0ffH
	DB	0a8H
	DB	0acH
	DB	0a8H
	DB	0ffH
	DB	0b0H
	DB	0acH
	DB	0b0H
	DB	0ffH
	DB	0a8H
	DB	0acH
	DB	0a8H
	DB	0ffH
	DB	0b0H
	DB	0acH
	DB	0b0H
	DB	0ffH
	DB	0a8H
	DB	0acH
	DB	0a8H
	DB	0ffH
	DB	0a8H
	DB	0acH
	DB	0a8H
	DB	0ffH
	DB	0a8H
	DB	0acH
	DB	0a8H
	DB	0ffH
	DB	0b0H
	DB	0acH
	DB	0b0H
	DB	0ffH
	DB	0a8H
	DB	0acH
	DB	0a8H
	DB	0ffH
	DB	0a8H
	DB	0acH
	DB	0a8H
	DB	0ffH
	DB	0b0H
	DB	0acH
	DB	0b0H
	DB	0ffH
	DB	0b0H
	DB	0acH
	DB	0b0H
	DB	0ffH
	DB	0a8H
	DB	0acH
	DB	0a8H
	DB	0ffH
	DB	0b0H
	DB	0acH
	DB	0b0H
	DB	0ffH
	DB	0a8H
	DB	0acH
	DB	0a8H
	DB	0ffH
	DB	0b0H
	DB	0acH
	DB	0b0H
	DB	0ffH
	DB	0a8H
	DB	0acH
	DB	0a8H
	DB	0ffH
	DB	0a8H
	DB	0acH
	DB	0a8H
	DB	0ffH
	DB	0b0H
	DB	0acH
	DB	0b0H
	DB	0ffH
	DB	0a8H
	DB	0acH
	DB	0a8H
	DB	0ffH
	DB	0b0H
	DB	0acH
	DB	0b0H
	DB	0ffH
	DB	0a8H
	DB	0acH
	DB	0a8H
	DB	0ffH
	DB	0b0H
	DB	0acH
	DB	0b0H
	DB	0ffH
	DB	0a8H
	DB	0acH
	DB	0a8H
	DB	0ffH
	DB	0b0H
	DB	0acH
	DB	0b0H
	DB	0ffH
	DB	0a8H
	DB	0acH
	DB	0a8H
	DB	0ffH
	DB	0b0H
	DB	0acH
	DB	0b0H
	DB	0ffH
	DB	0b0H
	DB	0acH
	DB	0b0H
	DB	0ffH
	DB	0a8H
	DB	0acH
	DB	0a8H
	DB	0ffH
	DB	0a8H
	DB	0acH
	DB	0a8H
	DB	0ffH
	DB	0b0H
	DB	0acH
	DB	0b0H
	DB	0ffH
	DB	0a8H
	DB	0acH
	DB	0a8H
	DB	0ffH
	DB	0b0H
	DB	0acH
	DB	0b0H
	DB	0ffH
	DB	0b0H
	DB	0acH
	DB	0b0H
	DB	0ffH
	DB	0a8H
	DB	0acH
	DB	0a8H
	DB	0ffH
	DB	0b0H
	DB	0acH
	DB	0b0H
	DB	0ffH
	DB	0b0H
	DB	0acH
	DB	0b0H
	DB	0ffH
	DB	0a8H
	DB	0acH
	DB	0a8H
	DB	0ffH
	DB	0a8H
	DB	0acH
	DB	0a8H
	DB	0ffH
	DB	0b0H
	DB	0acH
	DB	0b0H
	DB	0ffH
	DB	0a8H
	DB	0acH
	DB	0a8H
	DB	0ffH
	DB	0b0H
	DB	0acH
	DB	0b0H
	DB	0ffH
	DB	0a8H
	DB	0acH
	DB	0a8H
	DB	0ffH
	DB	0b0H
	DB	0acH
	DB	0b0H
	DB	0ffH
	DB	0a8H
	DB	0acH
	DB	0a8H
	DB	0ffH
	DB	0b0H
	DB	0acH
	DB	0b0H
	DB	0ffH
	DB	0a8H
	DB	0acH
	DB	0a8H
	DB	0ffH
	DB	0b0H
	DB	0acH
	DB	0b0H
	DB	0ffH
	DB	0b0H
	DB	0acH
	DB	0b0H
	DB	0ffH
	DB	0a8H
	DB	0acH
	DB	0a8H
	DB	0ffH
	DB	0b0H
	DB	0acH
	DB	0b0H
	DB	0ffH
	DB	0a8H
	DB	0acH
	DB	0a8H
	DB	0ffH
	DB	0a8H
	DB	0acH
	DB	0a8H
	DB	0ffH
	DB	0b0H
	DB	0acH
	DB	0b0H
	DB	0ffH
	DB	0a8H
	DB	0acH
	DB	0a8H
	DB	0ffH
	DB	0a8H
	DB	0acH
	DB	0a8H
	DB	0ffH
	DB	0b0H
	DB	0acH
	DB	0b0H
	DB	0ffH
	DB	0b0H
	DB	0acH
	DB	0b0H
	DB	0ffH
	DB	0a8H
	DB	0acH
	DB	0a8H
	DB	0ffH
	DB	0b0H
	DB	0acH
	DB	0b0H
	DB	0ffH
	DB	0b0H
	DB	0acH
	DB	0b0H
	DB	0ffH
	DB	0a8H
	DB	0acH
	DB	0a8H
	DB	0ffH
	DB	0b0H
	DB	0acH
	DB	0b0H
	DB	0ffH
	DB	0a8H
	DB	0acH
	DB	0a8H
	DB	0ffH
	DB	0b0H
	DB	0acH
	DB	0b0H
	DB	0ffH
	DB	0a8H
	DB	0acH
	DB	0a8H
	DB	0ffH
	DB	0a8H
	DB	0acH
	DB	0a8H
	DB	0ffH
	DB	0b0H
	DB	0acH
	DB	0b0H
	DB	0ffH
	DB	0a8H
	DB	0acH
	DB	0a8H
	DB	0ffH
	DB	0b0H
	DB	0acH
	DB	0b0H
	DB	0ffH
	DB	0b0H
	DB	0acH
	DB	0b0H
	DB	0ffH
	DB	0a8H
	DB	0acH
	DB	0a8H
	DB	0ffH
	DB	0b0H
	DB	0acH
	DB	0b0H
	DB	0ffH
	DB	0a8H
	DB	0acH
	DB	0a8H
	DB	0ffH
	DB	0b0H
	DB	0acH
	DB	0b0H
	DB	0ffH
	DB	0a8H
	DB	0acH
	DB	0a8H
	DB	0ffH
	DB	0a8H
	DB	0acH
	DB	0a8H
	DB	0ffH
	DB	0b0H
	DB	0acH
	DB	0b0H
	DB	0ffH
	DB	0a8H
	DB	0acH
	DB	0a8H
	DB	0ffH
	DB	0a8H
	DB	0acH
	DB	0a8H
	DB	0ffH
	DB	0b0H
	DB	0acH
	DB	0b0H
	DB	0ffH
	DB	0a8H
	DB	0acH
	DB	0a8H
	DB	0ffH
	DB	0a8H
	DB	0acH
	DB	0a8H
	DB	0ffH
	DB	0b0H
	DB	0acH
	DB	0b0H
	DB	0ffH
	DB	0a8H
	DB	0acH
	DB	0a8H
	DB	0ffH
	DB	0b0H
	DB	0acH
	DB	0b0H
	DB	0ffH
	DB	0a8H
	DB	0acH
	DB	0a8H
	DB	0ffH
	DB	0a8H
	DB	0acH
	DB	0a8H
	DB	0ffH
	DB	0b0H
	DB	0acH
	DB	0b0H
	DB	0ffH
	DB	0a8H
	DB	0acH
	DB	0a8H
	DB	0ffH
	DB	0a8H
	DB	0acH
	DB	0a8H
	DB	0ffH
	DB	0b0H
	DB	0acH
	DB	0b0H
	DB	0ffH
	DB	0b0H
	DB	0acH
	DB	0b0H
	DB	0ffH
	DB	0a8H
	DB	0acH
	DB	0a8H
	DB	0ffH
	DB	0b0H
	DB	0acH
	DB	0b0H
	DB	0ffH
	DB	0b0H
	DB	0acH
	DB	0b0H
	DB	0ffH
	DB	0a8H
	DB	0acH
	DB	0a8H
	DB	0ffH
	DB	0b0H
	DB	0acH
	DB	0b0H
	DB	0ffH
	DB	0b0H
	DB	0acH
	DB	0b0H
	DB	0ffH
	DB	0a8H
	DB	0acH
	DB	0a8H
	DB	0ffH
	DB	0b0H
	DB	0acH
	DB	0b0H
	DB	0ffH
	DB	0b0H
	DB	0acH
	DB	0b0H
	DB	0ffH
	DB	0a8H
	DB	0acH
	DB	0a8H
	DB	0ffH
	DB	0b0H
	DB	0acH
	DB	0b0H
	DB	0ffH
	DB	0a8H
	DB	0acH
	DB	0a8H
	DB	0ffH
	DB	0b0H
	DB	0acH
	DB	0b0H
	DB	0ffH
	DB	0b0H
	DB	0acH
	DB	0b0H
	DB	0ffH
	DB	0a8H
	DB	0acH
	DB	0a8H
	DB	0ffH
	DB	0b0H
	DB	0acH
	DB	0b0H
	DB	0ffH
	DB	0b0H
	DB	0acH
	DB	0b0H
	DB	0ffH
	DB	0a8H
	DB	0acH
	DB	0a8H
	DB	0ffH
	DB	0a8H
	DB	0acH
	DB	0a8H
	DB	0ffH
	DB	0b0H
	DB	0acH
	DB	0b0H
	DB	0ffH
	DB	0a8H
	DB	0acH
	DB	0a8H
	DB	0ffH
	DB	0a8H
	DB	0acH
	DB	0a8H
	DB	0ffH
	DB	0b0H
	DB	0acH
	DB	0b0H
	DB	0ffH
	DB	0a8H
	DB	0acH
	DB	0a8H
	DB	0ffH
	DB	0b0H
	DB	0acH
	DB	0b0H
	DB	0ffH
	DB	0a8H
	DB	0acH
	DB	0a8H
	DB	0ffH
	DB	0a8H
	DB	0acH
	DB	0a8H
	DB	0ffH
	DB	0b0H
	DB	0acH
	DB	0b0H
	DB	0ffH
	DB	0a8H
	DB	0acH
	DB	0a8H
	DB	0ffH
	DB	0b0H
	DB	0acH
	DB	0b0H
	DB	0ffH
	DB	0b0H
	DB	0acH
	DB	0b0H
	DB	0ffH
	DB	0a8H
	DB	0acH
	DB	0a8H
	DB	0ffH
	DB	0a8H
	DB	0acH
	DB	0a8H
	DB	0ffH
	DB	0a8H
	DB	0acH
	DB	0a8H
	DB	0ffH
	DB	0b0H
	DB	0acH
	DB	0b0H
	DB	0ffH
	DB	0a8H
	DB	0acH
	DB	0a8H
	DB	0ffH
	DB	0b0H
	DB	0acH
	DB	0b0H
	DB	0ffH
	DB	0b0H
	DB	0acH
	DB	0b0H
	DB	0ffH
	DB	0a8H
	DB	0acH
	DB	0a8H
	DB	0ffH
	DB	0b0H
	DB	0acH
	DB	0b0H
	DB	0ffH
	DB	0b0H
	DB	0acH
	DB	0b0H
	DB	0ffH
	DB	0a8H
	DB	0acH
	DB	0a8H
	DB	0ffH
	DB	0b0H
	DB	0acH
	DB	0b0H
	DB	0ffH
	DB	0a8H
	DB	0acH
	DB	0a8H
	DB	0ffH
	DB	0b0H
	DB	0acH
	DB	0b0H
	DB	0ffH
	DB	0a8H
	DB	0acH
	DB	0a8H
	DB	0ffH
	DB	0b0H
	DB	0acH
	DB	0b0H
	DB	0ffH
	DB	0a8H
	DB	0acH
	DB	0a8H
	DB	0ffH
	DB	0a8H
	DB	0acH
	DB	0a8H
	DB	0ffH
	DB	0b0H
	DB	0acH
	DB	0b0H
	DB	0ffH
	DB	0a8H
	DB	0acH
	DB	0a8H
	DB	0ffH
	DB	0b0H
	DB	0acH
	DB	0b0H
	DB	0ffH
	DB	0a8H
	DB	0acH
	DB	0a8H
	DB	0ffH
	DB	0b0H
	DB	0acH
	DB	0b0H
	DB	0ffH
	DB	0a8H
	DB	0acH
	DB	0a8H
	DB	0ffH
	DB	0a8H
	DB	0acH
	DB	0a8H
	DB	0ffH
	DB	0b0H
	DB	0acH
	DB	0b0H
	DB	0ffH
	DB	0a8H
	DB	0acH
	DB	0a8H
	DB	0ffH
	DB	0a8H
	DB	0acH
	DB	0a8H
	DB	0ffH
	DB	0b0H
	DB	0acH
	DB	0b0H
	DB	0ffH
	DB	0a8H
	DB	0acH
	DB	0a8H
	DB	0ffH
	DB	0b0H
	DB	0acH
	DB	0b0H
	DB	0ffH
	DB	0a8H
	DB	0acH
	DB	0a8H
	DB	0ffH
	DB	0b0H
	DB	0acH
	DB	0b0H
	DB	0ffH
	DB	0a8H
	DB	0acH
	DB	0a8H
	DB	0ffH
	DB	0b0H
	DB	0acH
	DB	0b0H
	DB	0ffH
	DB	0b0H
	DB	0acH
	DB	0b0H
	DB	0ffH
	DB	0a8H
	DB	0acH
	DB	0a8H
	DB	0ffH
	DB	0b0H
	DB	0acH
	DB	0b0H
	DB	0ffH
	DB	0a8H
	DB	0acH
	DB	0a8H
	DB	0ffH
	DB	0a8H
	DB	0acH
	DB	0a8H
	DB	0ffH
	DB	0b0H
	DB	0acH
	DB	0b0H
	DB	0ffH
	DB	0b0H
	DB	0acH
	DB	0b0H
	DB	0ffH
	DB	0b0H
	DB	0acH
	DB	0b0H
	DB	0ffH
	DB	0a8H
	DB	0acH
	DB	0a8H
	DB	0ffH
	DB	0b0H
	DB	0acH
	DB	0b0H
	DB	0ffH
	DB	0b0H
	DB	0acH
	DB	0b0H
	DB	0ffH
	DB	0a8H
	DB	0acH
	DB	0a8H
	DB	0ffH
	DB	0b0H
	DB	0acH
	DB	0b0H
	DB	0ffH
	DB	0a8H
	DB	0acH
	DB	0a8H
	DB	0ffH
	DB	0a8H
	DB	0acH
	DB	0a8H
	DB	0ffH
	DB	0b0H
	DB	0acH
	DB	0b0H
	DB	0ffH
	DB	0a8H
	DB	0acH
	DB	0a8H
	DB	0ffH
	DB	0b0H
	DB	0acH
	DB	0b0H
	DB	0ffH
	DB	0a8H
	DB	0acH
	DB	0a8H
	DB	0ffH
	DB	0a8H
	DB	0acH
	DB	0a8H
	DB	0ffH
	DB	0b0H
	DB	0acH
	DB	0b0H
	DB	0ffH
	DB	0b0H
	DB	0acH
	DB	0b0H
	DB	0ffH
	DB	0a8H
	DB	0acH
	DB	0a8H
	DB	0ffH
	DB	0b0H
	DB	0acH
	DB	0b0H
	DB	0ffH
	DB	0b0H
	DB	0acH
	DB	0b0H
	DB	0ffH
	DB	0a8H
	DB	0acH
	DB	0a8H
	DB	0ffH
	DB	0a8H
	DB	0acH
	DB	0a8H
	DB	0ffH
	DB	0a8H
	DB	0acH
	DB	0a8H
	DB	0ffH
	DB	0b0H
	DB	0acH
	DB	0b0H
	DB	0ffH
	DB	0a8H
	DB	0acH
	DB	0a8H
	DB	0ffH
	DB	0a8H
	DB	0acH
	DB	0a8H
	DB	0ffH
	DB	0b0H
	DB	0acH
	DB	0b0H
	DB	0ffH
	DB	0b0H
	DB	0acH
	DB	0b0H
	DB	0ffH
	DB	0a8H
	DB	0acH
	DB	0a8H
	DB	0ffH
	DB	0b0H
	DB	0acH
	DB	0b0H
	DB	0ffH
	DB	0b0H
	DB	0acH
	DB	0b0H
	DB	0ffH
	DB	0a8H
	DB	0acH
	DB	0a8H
	DB	0ffH
	DB	0b0H
	DB	0acH
	DB	0b0H
	DB	0ffH
	DB	0b0H
	DB	0acH
	DB	0b0H
	DB	0ffH
	DB	0a8H
	DB	0acH
	DB	0a8H
	DB	0ffH
	DB	0a8H
	DB	0acH
	DB	0a8H
	DB	0ffH
	DB	0b0H
	DB	0acH
	DB	0b0H
	DB	0ffH
	DB	0a8H
	DB	0acH
	DB	0a8H
	DB	0ffH
	DB	0b0H
	DB	0acH
	DB	0b0H
	DB	0ffH
	DB	0a8H
	DB	0acH
	DB	0a8H
	DB	0ffH
	DB	0a8H
	DB	0acH
	DB	0a8H
	DB	0ffH
	DB	0a8H
	DB	0acH
	DB	0a8H
	DB	0ffH
	DB	0b0H
	DB	0acH
	DB	0b0H
	DB	0ffH
	DB	0b0H
	DB	0acH
	DB	0b0H
	DB	0ffH
	DB	0a8H
	DB	0acH
	DB	0a8H
	DB	0ffH
	DB	0a8H
	DB	0acH
	DB	0a8H
	DB	0ffH
	DB	0b0H
	DB	0acH
	DB	0b0H
	DB	0ffH
	DB	0a8H
	DB	0acH
	DB	0a8H
	DB	0ffH
	DB	0a8H
	DB	0acH
	DB	0a8H
	DB	0ffH
	DB	0b0H
	DB	0acH
	DB	0b0H
	DB	0ffH
	DB	0a8H
	DB	0acH
	DB	0a8H
	DB	0ffH
	DB	0a8H
	DB	0acH
	DB	0a8H
	DB	0ffH
	DB	0b0H
	DB	0acH
	DB	0b0H
	DB	0ffH
	DB	0b0H
	DB	0acH
	DB	0b0H
	DB	0ffH
	DB	0a8H
	DB	0acH
	DB	0a8H
	DB	0ffH
	DB	0b0H
	DB	0acH
	DB	0b0H
	DB	0ffH
	DB	0a8H
	DB	0acH
	DB	0a8H
	DB	0ffH
	DB	0b0H
	DB	0acH
	DB	0b0H
	DB	0ffH
	DB	0a8H
	DB	0acH
	DB	0a8H
	DB	0ffH
	DB	0b0H
	DB	0acH
	DB	0b0H
	DB	0ffH
	DB	0b0H
	DB	0acH
	DB	0b0H
	DB	0ffH
	DB	0b0H
	DB	0acH
	DB	0b0H
	DB	0ffH
	DB	0a8H
	DB	0acH
	DB	0a8H
	DB	0ffH
	DB	0b0H
	DB	0acH
	DB	0b0H
	DB	0ffH
	DB	0b0H
	DB	0acH
	DB	0b0H
	DB	0ffH
	DB	0b0H
	DB	0acH
	DB	0b0H
	DB	0ffH
	DB	0a8H
	DB	0acH
	DB	0a8H
	DB	0ffH
	DB	0b0H
	DB	0acH
	DB	0b0H
	DB	0ffH
	DB	0b0H
	DB	0acH
	DB	0b0H
	DB	0ffH
	DB	0a8H
	DB	0acH
	DB	0a8H
	DB	0ffH
	DB	0b0H
	DB	0acH
	DB	0b0H
	DB	0ffH
	DB	0a8H
	DB	0acH
	DB	0a8H
	DB	0ffH
	DB	0a8H
	DB	0acH
	DB	0a8H
	DB	0ffH
	DB	0a8H
	DB	0acH
	DB	0a8H
	DB	0ffH
	DB	0b0H
	DB	0acH
	DB	0b0H
	DB	0ffH
	DB	0a8H
	DB	0acH
	DB	0a8H
	DB	0ffH
	DB	0b0H
	DB	0acH
	DB	0b0H
	DB	0ffH
	DB	0a8H
	DB	0acH
	DB	0a8H
	DB	0ffH
	DB	0a8H
	DB	0acH
	DB	0a8H
	DB	0ffH
	DB	0b0H
	DB	0acH
	DB	0b0H
	DB	0ffH
	DB	0a8H
	DB	0acH
	DB	0a8H
	DB	0ffH
	DB	0a8H
	DB	0acH
	DB	0a8H
	DB	0ffH
	DB	0a8H
	DB	0acH
	DB	0a8H
	DB	0ffH
	DB	0a8H
	DB	0acH
	DB	0a8H
	DB	0ffH
	DB	0b0H
	DB	0acH
	DB	0b0H
	DB	0ffH
	DB	0a8H
	DB	0acH
	DB	0a8H
	DB	0ffH
	DB	0a8H
	DB	0acH
	DB	0a8H
	DB	0ffH
	DB	0b0H
	DB	0acH
	DB	0b0H
	DB	0ffH
	DB	0a8H
	DB	0acH
	DB	0a8H
	DB	0ffH
	DB	0b0H
	DB	0acH
	DB	0b0H
	DB	0ffH
	DB	0b0H
	DB	0acH
	DB	0b0H
	DB	0ffH
	DB	0b0H
	DB	0acH
	DB	0b0H
	DB	0ffH
	DB	0a8H
	DB	0acH
	DB	0a8H
	DB	0ffH
	DB	0b0H
	DB	0acH
	DB	0b0H
	DB	0ffH
	DB	0b0H
	DB	0acH
	DB	0b0H
	DB	0ffH
	DB	0a8H
	DB	0acH
	DB	0a8H
	DB	0ffH
	DB	0b0H
	DB	0acH
	DB	0b0H
	DB	0ffH
	DB	0b0H
	DB	0acH
	DB	0b0H
	DB	0ffH
	DB	0a8H
	DB	0acH
	DB	0a8H
	DB	0ffH
	DB	0b0H
	DB	0acH
	DB	0b0H
	DB	0ffH
	DB	0a8H
	DB	0acH
	DB	0a8H
	DB	0ffH
	DB	0b0H
	DB	0acH
	DB	0b0H
	DB	0ffH
	DB	0b0H
	DB	0acH
	DB	0b0H
	DB	0ffH
	DB	0a8H
	DB	0acH
	DB	0a8H
	DB	0ffH
	DB	0b0H
	DB	0acH
	DB	0b0H
	DB	0ffH
	DB	0a8H
	DB	0acH
	DB	0a8H
	DB	0ffH
	DB	0b0H
	DB	0acH
	DB	0b0H
	DB	0ffH
	DB	0a8H
	DB	0acH
	DB	0a8H
	DB	0ffH
	DB	0a8H
	DB	0acH
	DB	0a8H
	DB	0ffH
	DB	0a8H
	DB	0acH
	DB	0a8H
	DB	0ffH
	DB	0b0H
	DB	0acH
	DB	0b0H
	DB	0ffH
	DB	0a8H
	DB	0acH
	DB	0a8H
	DB	0ffH
	DB	0b0H
	DB	0acH
	DB	0b0H
	DB	0ffH
	DB	0a8H
	DB	0acH
	DB	0a8H
	DB	0ffH
	DB	0a8H
	DB	0acH
	DB	0a8H
	DB	0ffH
	DB	0b0H
	DB	0acH
	DB	0b0H
	DB	0ffH
	DB	0a8H
	DB	0acH
	DB	0a8H
	DB	0ffH
	DB	0a8H
	DB	0acH
	DB	0a8H
	DB	0ffH
	DB	0b0H
	DB	0acH
	DB	0b0H
	DB	0ffH
	DB	0b0H
	DB	0acH
	DB	0b0H
	DB	0ffH
	DB	0a8H
	DB	0acH
	DB	0a8H
	DB	0ffH
	DB	0a8H
	DB	0acH
	DB	0a8H
	DB	0ffH
	DB	0b0H
	DB	0acH
	DB	0b0H
	DB	0ffH
	DB	0b0H
	DB	0acH
	DB	0b0H
	DB	0ffH
	DB	0a8H
	DB	0acH
	DB	0a8H
	DB	0ffH
	DB	0b0H
	DB	0acH
	DB	0b0H
	DB	0ffH
	DB	0b0H
	DB	0acH
	DB	0b0H
	DB	0ffH
	DB	0b0H
	DB	0acH
	DB	0b0H
	DB	0ffH
	DB	0a8H
	DB	0acH
	DB	0a8H
	DB	0ffH
	DB	0b0H
	DB	0acH
	DB	0b0H
	DB	0ffH
	DB	0a8H
	DB	0acH
	DB	0a8H
	DB	0ffH
	DB	0a8H
	DB	0acH
	DB	0a8H
	DB	0ffH
	DB	0b0H
	DB	0acH
	DB	0b0H
	DB	0ffH
	DB	0b0H
	DB	0acH
	DB	0b0H
	DB	0ffH
	DB	0a8H
	DB	0acH
	DB	0a8H
	DB	0ffH
	DB	0b0H
	DB	0acH
	DB	0b0H
	DB	0ffH
	DB	0b0H
	DB	0acH
	DB	0b0H
	DB	0ffH
	DB	0a8H
	DB	0acH
	DB	0a8H
	DB	0ffH
	DB	0a8H
	DB	0acH
	DB	0a8H
	DB	0ffH
	DB	0b0H
	DB	0acH
	DB	0b0H
	DB	0ffH
	DB	0a8H
	DB	0acH
	DB	0a8H
	DB	0ffH
	DB	0a8H
	DB	0acH
	DB	0a8H
	DB	0ffH
	DB	0a8H
	DB	0acH
	DB	0a8H
	DB	0ffH
	DB	0b0H
	DB	0acH
	DB	0b0H
	DB	0ffH
	DB	0a8H
	DB	0acH
	DB	0a8H
	DB	0ffH
	DB	0a8H
	DB	0acH
	DB	0a8H
	DB	0ffH
	DB	0b0H
	DB	0acH
	DB	0b0H
	DB	0ffH
	DB	0a8H
	DB	0acH
	DB	0a8H
	DB	0ffH
	DB	0b0H
	DB	0acH
	DB	0b0H
	DB	0ffH
	DB	0b0H
	DB	0acH
	DB	0b0H
	DB	0ffH
	DB	0a8H
	DB	0acH
	DB	0a8H
	DB	0ffH
	DB	0b0H
	DB	0acH
	DB	0b0H
	DB	0ffH
	DB	0a8H
	DB	0acH
	DB	0a8H
	DB	0ffH
	DB	0b0H
	DB	0acH
	DB	0b0H
	DB	0ffH
	DB	0a8H
	DB	0acH
	DB	0a8H
	DB	0ffH
	DB	0a8H
	DB	0acH
	DB	0a8H
	DB	0ffH
	DB	0b0H
	DB	0acH
	DB	0b0H
	DB	0ffH
	DB	0b0H
	DB	0acH
	DB	0b0H
	DB	0ffH
	DB	0a8H
	DB	0acH
	DB	0a8H
	DB	0ffH
	DB	0b0H
	DB	0acH
	DB	0b0H
	DB	0ffH
	DB	0b0H
	DB	0acH
	DB	0b0H
	DB	0ffH
	DB	0b0H
	DB	0acH
	DB	0b0H
	DB	0ffH
	DB	0a8H
	DB	0acH
	DB	0a8H
	DB	0ffH
	DB	0b0H
	DB	0acH
	DB	0b0H
	DB	0ffH
	DB	0a8H
	DB	0acH
	DB	0a8H
	DB	0ffH
	DB	0a8H
	DB	0acH
	DB	0a8H
	DB	0ffH
	DB	0b0H
	DB	0acH
	DB	0b0H
	DB	0ffH
	DB	0a8H
	DB	0acH
	DB	0a8H
	DB	0ffH
	DB	0a8H
	DB	0acH
	DB	0a8H
	DB	0ffH
	DB	0b0H
	DB	0acH
	DB	0b0H
	DB	0ffH
	DB	0b0H
	DB	0acH
	DB	0b0H
	DB	0ffH
	DB	0a8H
	DB	0acH
	DB	0a8H
	DB	0ffH
	DB	0b0H
	DB	0acH
	DB	0b0H
	DB	0ffH
	DB	0a8H
	DB	0acH
	DB	0a8H
	DB	0ffH
	DB	0b0H
	DB	0acH
	DB	0b0H
	DB	0ffH
	DB	0a8H
	DB	0acH
	DB	0a8H
	DB	0ffH
	DB	0a8H
	DB	0acH
	DB	0a8H
	DB	0ffH
	DB	0b0H
	DB	0acH
	DB	0b0H
	DB	0ffH
	DB	0a8H
	DB	0acH
	DB	0a8H
	DB	0ffH
	DB	0a8H
	DB	0acH
	DB	0a8H
	DB	0ffH
	DB	0b0H
	DB	0acH
	DB	0b0H
	DB	0ffH
	DB	0a8H
	DB	0acH
	DB	0a8H
	DB	0ffH
	DB	0b0H
	DB	0acH
	DB	0b0H
	DB	0ffH
	DB	0b0H
	DB	0acH
	DB	0b0H
	DB	0ffH
	DB	0b0H
	DB	0acH
	DB	0b0H
	DB	0ffH
	DB	0a8H
	DB	0acH
	DB	0a8H
	DB	0ffH
	DB	0b0H
	DB	0acH
	DB	0b0H
	DB	0ffH
	DB	0b0H
	DB	0acH
	DB	0b0H
	DB	0ffH
	DB	0a8H
	DB	0acH
	DB	0a8H
	DB	0ffH
	DB	0a8H
	DB	0acH
	DB	0a8H
	DB	0ffH
	DB	0b0H
	DB	0acH
	DB	0b0H
	DB	0ffH
	DB	0a8H
	DB	0acH
	DB	0a8H
	DB	0ffH
	DB	0a8H
	DB	0acH
	DB	0a8H
	DB	0ffH
	DB	0b0H
	DB	0acH
	DB	0b0H
	DB	0ffH
	DB	0b0H
	DB	0acH
	DB	0b0H
	DB	0ffH
	DB	0b0H
	DB	0acH
	DB	0b0H
	DB	0ffH
	DB	0a8H
	DB	0acH
	DB	0a8H
	DB	0ffH
	DB	0b0H
	DB	0acH
	DB	0b0H
	DB	0ffH
	DB	0b0H
	DB	0acH
	DB	0b0H
	DB	0ffH
	DB	0a8H
	DB	0acH
	DB	0a8H
	DB	0ffH
	DB	0a8H
	DB	0acH
	DB	0a8H
	DB	0ffH
	DB	0a8H
	DB	0acH
	DB	0a8H
	DB	0ffH
	DB	0a8H
	DB	0acH
	DB	0a8H
	DB	0ffH
	DB	0b0H
	DB	0acH
	DB	0b0H
	DB	0ffH
	DB	0a8H
	DB	0acH
	DB	0a8H
	DB	0ffH
	DB	0a8H
	DB	0acH
	DB	0a8H
	DB	0ffH
	DB	0b0H
	DB	0acH
	DB	0b0H
	DB	0ffH
	DB	0b0H
	DB	0acH
	DB	0b0H
	DB	0ffH
	DB	0a8H
	DB	0acH
	DB	0a8H
	DB	0ffH
	DB	0b0H
	DB	0acH
	DB	0b0H
	DB	0ffH
	DB	0a8H
	DB	0acH
	DB	0a8H
	DB	0ffH
	DB	0b0H
	DB	0acH
	DB	0b0H
	DB	0ffH
	DB	0a8H
	DB	0acH
	DB	0a8H
	DB	0ffH
	DB	0a8H
	DB	0acH
	DB	0a8H
	DB	0ffH
	DB	0b0H
	DB	0acH
	DB	0b0H
	DB	0ffH
	DB	0a8H
	DB	0acH
	DB	0a8H
	DB	0ffH
	DB	0a8H
	DB	0acH
	DB	0a8H
	DB	0ffH
	DB	0b0H
	DB	0acH
	DB	0b0H
	DB	0ffH
	DB	0b0H
	DB	0acH
	DB	0b0H
	DB	0ffH
	DB	0a8H
	DB	0acH
	DB	0a8H
	DB	0ffH
	DB	0b0H
	DB	0acH
	DB	0b0H
	DB	0ffH
	DB	0b0H
	DB	0acH
	DB	0b0H
	DB	0ffH
	DB	0a8H
	DB	0acH
	DB	0a8H
	DB	0ffH
	DB	0b0H
	DB	0acH
	DB	0b0H
	DB	0ffH
	DB	0a8H
	DB	0acH
	DB	0a8H
	DB	0ffH
	DB	0b0H
	DB	0acH
	DB	0b0H
	DB	0ffH
	DB	0a8H
	DB	0acH
	DB	0a8H
	DB	0ffH
	DB	0a8H
	DB	0acH
	DB	0a8H
	DB	0ffH
	DB	0b0H
	DB	0acH
	DB	0b0H
	DB	0ffH
	DB	0a8H
	DB	0acH
	DB	0a8H
	DB	0ffH
	DB	0b0H
	DB	0acH
	DB	0b0H
	DB	0ffH
	DB	0b0H
	DB	0acH
	DB	0b0H
	DB	0ffH
	DB	0b0H
	DB	0acH
	DB	0b0H
	DB	0ffH
	DB	0a8H
	DB	0acH
	DB	0a8H
	DB	0ffH
	DB	0b0H
	DB	0acH
	DB	0b0H
	DB	0ffH
	DB	0a8H
	DB	0acH
	DB	0a8H
	DB	0ffH
	DB	0a8H
	DB	0acH
	DB	0a8H
	DB	0ffH
	DB	0b0H
	DB	0acH
	DB	0b0H
	DB	0ffH
	DB	0a8H
	DB	0acH
	DB	0a8H
	DB	0ffH
	DB	0a8H
	DB	0acH
	DB	0a8H
	DB	0ffH
	DB	0b0H
	DB	0acH
	DB	0b0H
	DB	0ffH
	DB	0a8H
	DB	0acH
	DB	0a8H
	DB	0ffH
	DB	0b0H
	DB	0acH
	DB	0b0H
	DB	0ffH
	DB	0a8H
	DB	0acH
	DB	0a8H
	DB	0ffH
	DB	0b0H
	DB	0acH
	DB	0b0H
	DB	0ffH
	DB	0b0H
	DB	0acH
	DB	0b0H
	DB	0ffH
	DB	0a8H
	DB	0acH
	DB	0a8H
	DB	0ffH
	DB	0b0H
	DB	0acH
	DB	0b0H
	DB	0ffH
	DB	0a8H
	DB	0acH
	DB	0a8H
	DB	0ffH
	DB	0a8H
	DB	0acH
	DB	0a8H
	DB	0ffH
	DB	0b0H
	DB	0acH
	DB	0b0H
	DB	0ffH
	DB	0a8H
	DB	0acH
	DB	0a8H
	DB	0ffH
	DB	0a8H
	DB	0acH
	DB	0a8H
	DB	0ffH
	DB	0b0H
	DB	0acH
	DB	0b0H
	DB	0ffH
	DB	0b0H
	DB	0acH
	DB	0b0H
	DB	0ffH
	DB	0b0H
	DB	0acH
	DB	0b0H
	DB	0ffH
	DB	0a8H
	DB	0acH
	DB	0a8H
	DB	0ffH
	DB	0b0H
	DB	0acH
	DB	0b0H
	DB	0ffH
	DB	0a8H
	DB	0acH
	DB	0a8H
	DB	0ffH
	DB	0b0H
	DB	0acH
	DB	0b0H
	DB	0ffH
	DB	0a8H
	DB	0acH
	DB	0a8H
	DB	0ffH
	DB	0b0H
	DB	0acH
	DB	0b0H
	DB	0ffH
	DB	0a8H
	DB	0acH
	DB	0a8H
	DB	0ffH
	DB	0a8H
	DB	0acH
	DB	0a8H
	DB	0ffH
	DB	0b0H
	DB	0acH
	DB	0b0H
	DB	0ffH
	DB	0a8H
	DB	0acH
	DB	0a8H
	DB	0ffH
	DB	0b0H
	DB	0acH
	DB	0b0H
	DB	0ffH
	DB	0b0H
	DB	0acH
	DB	0b0H
	DB	0ffH
	DB	0a8H
	DB	0acH
	DB	0a8H
	DB	0ffH
	DB	0b0H
	DB	0acH
	DB	0b0H
	DB	0ffH
	DB	0b0H
	DB	0acH
	DB	0b0H
	DB	0ffH
	DB	0a8H
	DB	0acH
	DB	0a8H
	DB	0ffH
	DB	0a8H
	DB	0acH
	DB	0a8H
	DB	0ffH
	DB	0b0H
	DB	0acH
	DB	0b0H
	DB	0ffH
	DB	0a8H
	DB	0acH
	DB	0a8H
	DB	0ffH
	DB	0a8H
	DB	0acH
	DB	0a8H
	DB	0ffH
	DB	0b0H
	DB	0acH
	DB	0b0H
	DB	0ffH
	DB	0a8H
	DB	0acH
	DB	0a8H
	DB	0ffH
	DB	0b0H
	DB	0acH
	DB	0b0H
	DB	0ffH
	DB	0b0H
	DB	0acH
	DB	0b0H
	DB	0ffH
	DB	0a8H
	DB	0acH
	DB	0a8H
	DB	0ffH
	DB	0b0H
	DB	0acH
	DB	0b0H
	DB	0ffH
	DB	0a8H
	DB	0acH
	DB	0a8H
	DB	0ffH
	DB	0b0H
	DB	0acH
	DB	0b0H
	DB	0ffH
	DB	0a8H
	DB	0acH
	DB	0a8H
	DB	0ffH
	DB	0a8H
	DB	0acH
	DB	0a8H
	DB	0ffH
	DB	0b0H
	DB	0acH
	DB	0b0H
	DB	0ffH
	DB	0a8H
	DB	0acH
	DB	0a8H
	DB	0ffH
	DB	0a8H
	DB	0acH
	DB	0a8H
	DB	0ffH
	DB	0b0H
	DB	0acH
	DB	0b0H
	DB	0ffH
	DB	0a8H
	DB	0acH
	DB	0a8H
	DB	0ffH
	DB	0b0H
	DB	0acH
	DB	0b0H
	DB	0ffH
	DB	0b0H
	DB	0acH
	DB	0b0H
	DB	0ffH
	DB	0a8H
	DB	0acH
	DB	0a8H
	DB	0ffH
	DB	0a8H
	DB	0acH
	DB	0a8H
	DB	0ffH
	DB	0b0H
	DB	0acH
	DB	0b0H
	DB	0ffH
	DB	0b0H
	DB	0acH
	DB	0b0H
	DB	0ffH
	DB	0a8H
	DB	0acH
	DB	0a8H
	DB	0ffH
	DB	0a8H
	DB	0acH
	DB	0a8H
	DB	0ffH
	DB	0b0H
	DB	0acH
	DB	0b0H
	DB	0ffH
	DB	0a8H
	DB	0acH
	DB	0a8H
	DB	0ffH
	DB	0a8H
	DB	0acH
	DB	0a8H
	DB	0ffH
	DB	0b0H
	DB	0acH
	DB	0b0H
	DB	0ffH
	DB	0b0H
	DB	0acH
	DB	0b0H
	DB	0ffH
	DB	0a8H
	DB	0acH
	DB	0a8H
	DB	0ffH
	DB	0b0H
	DB	0acH
	DB	0b0H
	DB	0ffH
	DB	0b0H
	DB	0acH
	DB	0b0H
	DB	0ffH
	DB	0a8H
	DB	0acH
	DB	0a8H
	DB	0ffH
	DB	0b0H
	DB	0acH
	DB	0b0H
	DB	0ffH
	DB	0a8H
	DB	0acH
	DB	0a8H
	DB	0ffH
	DB	0a8H
	DB	0acH
	DB	0a8H
	DB	0ffH
	DB	0b0H
	DB	0acH
	DB	0b0H
	DB	0ffH
	DB	0b0H
	DB	0acH
	DB	0b0H
	DB	0ffH
	DB	0a8H
	DB	0acH
	DB	0a8H
	DB	0ffH
	DB	0b0H
	DB	0acH
	DB	0b0H
	DB	0ffH
	DB	0b0H
	DB	0acH
	DB	0b0H
	DB	0ffH
	DB	0a8H
	DB	0acH
	DB	0a8H
	DB	0ffH
	DB	0b0H
	DB	0acH
	DB	0b0H
	DB	0ffH
	DB	0a8H
	DB	0acH
	DB	0a8H
	DB	0ffH
	DB	0b0H
	DB	0acH
	DB	0b0H
	DB	0ffH
	DB	0b0H
	DB	0acH
	DB	0b0H
	DB	0ffH
	DB	0a8H
	DB	0acH
	DB	0a8H
	DB	0ffH
	DB	0b0H
	DB	0acH
	DB	0b0H
	DB	0ffH
	DB	0a8H
	DB	0acH
	DB	0a8H
	DB	0ffH
	DB	0a8H
	DB	0acH
	DB	0a8H
	DB	0ffH
	DB	0b0H
	DB	0acH
	DB	0b0H
	DB	0ffH
	DB	0a8H
	DB	0acH
	DB	0a8H
	DB	0ffH
	DB	0b0H
	DB	0acH
	DB	0b0H
	DB	0ffH
	DB	0b0H
	DB	0acH
	DB	0b0H
	DB	0ffH
	DB	0a8H
	DB	0acH
	DB	0a8H
	DB	0ffH
	DB	0b0H
	DB	0acH
	DB	0b0H
	DB	0ffH
	DB	0a8H
	DB	0acH
	DB	0a8H
	DB	0ffH
	DB	0a8H
	DB	0acH
	DB	0a8H
	DB	0ffH
	DB	0b0H
	DB	0acH
	DB	0b0H
	DB	0ffH
	DB	0a8H
	DB	0acH
	DB	0a8H
	DB	0ffH
	DB	0a8H
	DB	0acH
	DB	0a8H
	DB	0ffH
	DB	0b0H
	DB	0acH
	DB	0b0H
	DB	0ffH
	DB	0a8H
	DB	0acH
	DB	0a8H
	DB	0ffH
	DB	0b0H
	DB	0acH
	DB	0b0H
	DB	0ffH
	DB	0a8H
	DB	0acH
	DB	0a8H
	DB	0ffH
	DB	0a8H
	DB	0acH
	DB	0a8H
	DB	0ffH
	DB	0b0H
	DB	0acH
	DB	0b0H
	DB	0ffH
	DB	0a8H
	DB	0acH
	DB	0a8H
	DB	0ffH
	DB	0b0H
	DB	0acH
	DB	0b0H
	DB	0ffH
	DB	0b0H
	DB	0acH
	DB	0b0H
	DB	0ffH
	DB	0a8H
	DB	0acH
	DB	0a8H
	DB	0ffH
	DB	0a8H
	DB	0acH
	DB	0a8H
	DB	0ffH
	DB	0b0H
	DB	0acH
	DB	0b0H
	DB	0ffH
	DB	0a8H
	DB	0acH
	DB	0a8H
	DB	0ffH
	DB	0b0H
	DB	0acH
	DB	0b0H
	DB	0ffH
	DB	0b0H
	DB	0acH
	DB	0b0H
	DB	0ffH
	DB	0a8H
	DB	0acH
	DB	0a8H
	DB	0ffH
	DB	0b0H
	DB	0acH
	DB	0b0H
	DB	0ffH
	DB	0b0H
	DB	0acH
	DB	0b0H
	DB	0ffH
	DB	0a8H
	DB	0acH
	DB	0a8H
	DB	0ffH
	DB	0b0H
	DB	0acH
	DB	0b0H
	DB	0ffH
	DB	0a8H
	DB	0acH
	DB	0a8H
	DB	0ffH
	DB	0b0H
	DB	0acH
	DB	0b0H
	DB	0ffH
	DB	0a8H
	DB	0acH
	DB	0a8H
	DB	0ffH
	DB	0b0H
	DB	0acH
	DB	0b0H
	DB	0ffH
	DB	0a8H
	DB	0acH
	DB	0a8H
	DB	0ffH
	DB	0a8H
	DB	0acH
	DB	0a8H
	DB	0ffH
	DB	0b0H
	DB	0acH
	DB	0b0H
	DB	0ffH
	DB	0a8H
	DB	0acH
	DB	0a8H
	DB	0ffH
	DB	0b0H
	DB	0acH
	DB	0b0H
	DB	0ffH
	DB	0a8H
	DB	0acH
	DB	0a8H
	DB	0ffH
	DB	0b0H
	DB	0acH
	DB	0b0H
	DB	0ffH
	DB	0a8H
	DB	0acH
	DB	0a8H
	DB	0ffH
	DB	0a8H
	DB	0acH
	DB	0a8H
	DB	0ffH
	DB	0b0H
	DB	0acH
	DB	0b0H
	DB	0ffH
	DB	0a8H
	DB	0acH
	DB	0a8H
	DB	0ffH
	DB	0a8H
	DB	0acH
	DB	0a8H
	DB	0ffH
	DB	0b0H
	DB	0acH
	DB	0b0H
	DB	0ffH
	DB	0a8H
	DB	0acH
	DB	0a8H
	DB	0ffH
	DB	0b0H
	DB	0acH
	DB	0b0H
	DB	0ffH
	DB	0a8H
	DB	0acH
	DB	0a8H
	DB	0ffH
	DB	0b0H
	DB	0acH
	DB	0b0H
	DB	0ffH
	DB	0a8H
	DB	0acH
	DB	0a8H
	DB	0ffH
	DB	0b0H
	DB	0acH
	DB	0b0H
	DB	0ffH
	DB	0b0H
	DB	0acH
	DB	0b0H
	DB	0ffH
	DB	0a8H
	DB	0acH
	DB	0a8H
	DB	0ffH
	DB	0a8H
	DB	0acH
	DB	0a8H
	DB	0ffH
	DB	0b0H
	DB	0acH
	DB	0b0H
	DB	0ffH
	DB	0a8H
	DB	0acH
	DB	0a8H
	DB	0ffH
	DB	0a8H
	DB	0acH
	DB	0a8H
	DB	0ffH
	DB	0b0H
	DB	0acH
	DB	0b0H
	DB	0ffH
	DB	0b0H
	DB	0acH
	DB	0b0H
	DB	0ffH
	DB	0a8H
	DB	0acH
	DB	0a8H
	DB	0ffH
	DB	0b0H
	DB	0acH
	DB	0b0H
	DB	0ffH
	DB	0b0H
	DB	0acH
	DB	0b0H
	DB	0ffH
	DB	0a8H
	DB	0acH
	DB	0a8H
	DB	0ffH
	DB	0b0H
	DB	0acH
	DB	0b0H
	DB	0ffH
	DB	0a8H
	DB	0acH
	DB	0a8H
	DB	0ffH
	DB	0a8H
	DB	0acH
	DB	0a8H
	DB	0ffH
	DB	0b0H
	DB	0acH
	DB	0b0H
	DB	0ffH
	DB	0a8H
	DB	0acH
	DB	0a8H
	DB	0ffH
	DB	0b0H
	DB	0acH
	DB	0b0H
	DB	0ffH
	DB	0a8H
	DB	0acH
	DB	0a8H
	DB	0ffH
	DB	0a8H
	DB	0acH
	DB	0a8H
	DB	0ffH
	DB	0b0H
	DB	0acH
	DB	0b0H
	DB	0ffH
	DB	0a8H
	DB	0acH
	DB	0a8H
	DB	0ffH
	DB	0b0H
	DB	0acH
	DB	0b0H
	DB	0ffH
	DB	0a8H
	DB	0acH
	DB	0a8H
	DB	0ffH
	DB	0b0H
	DB	0acH
	DB	0b0H
	DB	0ffH
	DB	0b0H
	DB	0acH
	DB	0b0H
	DB	0ffH
	DB	0a8H
	DB	0acH
	DB	0a8H
	DB	0ffH
	DB	0a8H
	DB	0acH
	DB	0a8H
	DB	0ffH
	DB	0b0H
	DB	0acH
	DB	0b0H
	DB	0ffH
	DB	0a8H
	DB	0acH
	DB	0a8H
	DB	0ffH
	DB	0a8H
	DB	0acH
	DB	0a8H
	DB	0ffH
	DB	0b0H
	DB	0acH
	DB	0b0H
	DB	0ffH
	DB	0b0H
	DB	0acH
	DB	0b0H
	DB	0ffH
	DB	0a8H
	DB	0acH
	DB	0a8H
	DB	0ffH
	DB	0b0H
	DB	0acH
	DB	0b0H
	DB	0ffH
	DB	0b0H
	DB	0acH
	DB	0b0H
	DB	0ffH
	DB	0a8H
	DB	0acH
	DB	0a8H
	DB	0ffH
	DB	0b0H
	DB	0acH
	DB	0b0H
	DB	0ffH
	DB	0b0H
	DB	0acH
	DB	0b0H
	DB	0ffH
	DB	0a8H
	DB	0acH
	DB	0a8H
	DB	0ffH
	DB	0b0H
	DB	0acH
	DB	0b0H
	DB	0ffH
	DB	0b0H
	DB	0acH
	DB	0b0H
	DB	0ffH
	DB	0a8H
	DB	0acH
	DB	0a8H
	DB	0ffH
	DB	0b0H
	DB	0acH
	DB	0b0H
	DB	0ffH
	DB	0a8H
	DB	0acH
	DB	0a8H
	DB	0ffH
	DB	0b0H
	DB	0acH
	DB	0b0H
	DB	0ffH
	DB	0a8H
	DB	0acH
	DB	0a8H
	DB	0ffH
	DB	0b0H
	DB	0acH
	DB	0b0H
	DB	0ffH
	DB	0b0H
	DB	0acH
	DB	0b0H
	DB	0ffH
	DB	0a8H
	DB	0acH
	DB	0a8H
	DB	0ffH
	DB	0a8H
	DB	0acH
	DB	0a8H
	DB	0ffH
	DB	0b0H
	DB	0acH
	DB	0b0H
	DB	0ffH
	DB	0a8H
	DB	0acH
	DB	0a8H
	DB	0ffH
	DB	0a8H
	DB	0acH
	DB	0a8H
	DB	0ffH
	DB	0b0H
	DB	0acH
	DB	0b0H
	DB	0ffH
	DB	0a8H
	DB	0acH
	DB	0a8H
	DB	0ffH
	DB	0a8H
	DB	0acH
	DB	0a8H
	DB	0ffH
	DB	0b0H
	DB	0acH
	DB	0b0H
	DB	0ffH
	DB	0a8H
	DB	0acH
	DB	0a8H
	DB	0ffH
	DB	0a8H
	DB	0acH
	DB	0a8H
	DB	0ffH
	DB	0b0H
	DB	0acH
	DB	0b0H
	DB	0ffH
	DB	0a8H
	DB	0acH
	DB	0a8H
	DB	0ffH
	DB	0a8H
	DB	0acH
	DB	0a8H
	DB	0ffH
	DB	0b0H
	DB	0acH
	DB	0b0H
	DB	0ffH
	DB	0a8H
	DB	0acH
	DB	0a8H
	DB	0ffH
	DB	0a8H
	DB	0acH
	DB	0a8H
	DB	0ffH
	DB	0b0H
	DB	0acH
	DB	0b0H
	DB	0ffH
	DB	0a8H
	DB	0acH
	DB	0a8H
	DB	0ffH
	DB	0b0H
	DB	0acH
	DB	0b0H
	DB	0ffH
	DB	0b0H
	DB	0acH
	DB	0b0H
	DB	0ffH
	DB	0b0H
	DB	0acH
	DB	0b0H
	DB	0ffH
	DB	0a8H
	DB	0acH
	DB	0a8H
	DB	0ffH
	DB	0b0H
	DB	0acH
	DB	0b0H
	DB	0ffH
	DB	0b0H
	DB	0acH
	DB	0b0H
	DB	0ffH
	DB	0a8H
	DB	0acH
	DB	0a8H
	DB	0ffH
	DB	0b0H
	DB	0acH
	DB	0b0H
	DB	0ffH
	DB	0b0H
	DB	0acH
	DB	0b0H
	DB	0ffH
	DB	0a8H
	DB	0acH
	DB	0a8H
	DB	0ffH
	DB	0b0H
	DB	0acH
	DB	0b0H
	DB	0ffH
	DB	0b0H
	DB	0acH
	DB	0b0H
	DB	0ffH
	DB	0a8H
	DB	0acH
	DB	0a8H
	DB	0ffH
	DB	0a8H
	DB	0acH
	DB	0a8H
	DB	0ffH
	DB	0b0H
	DB	0acH
	DB	0b0H
	DB	0ffH
	DB	0a8H
	DB	0acH
	DB	0a8H
	DB	0ffH
	DB	0b0H
	DB	0acH
	DB	0b0H
	DB	0ffH
	DB	0b0H
	DB	0acH
	DB	0b0H
	DB	0ffH
	DB	0a8H
	DB	0acH
	DB	0a8H
	DB	0ffH
	DB	0a8H
	DB	0acH
	DB	0a8H
	DB	0ffH
	DB	0a8H
	DB	0acH
	DB	0a8H
	DB	0ffH
	DB	0b0H
	DB	0acH
	DB	0b0H
	DB	0ffH
	DB	0a8H
	DB	0acH
	DB	0a8H
	DB	0ffH
	DB	0a8H
	DB	0acH
	DB	0a8H
	DB	0ffH
	DB	0b0H
	DB	0acH
	DB	0b0H
	DB	0ffH
	DB	0a8H
	DB	0acH
	DB	0a8H
	DB	0ffH
	DB	0a8H
	DB	0acH
	DB	0a8H
	DB	0ffH
	DB	0b0H
	DB	0acH
	DB	0b0H
	DB	0ffH
	DB	0a8H
	DB	0acH
	DB	0a8H
	DB	0ffH
	DB	0a8H
	DB	0acH
	DB	0a8H
	DB	0ffH
	DB	0b0H
	DB	0acH
	DB	0b0H
	DB	0ffH
	DB	0b0H
	DB	0acH
	DB	0b0H
	DB	0ffH
	DB	0a8H
	DB	0acH
	DB	0a8H
	DB	0ffH
	DB	0b0H
	DB	0acH
	DB	0b0H
	DB	0ffH
	DB	0a8H
	DB	0acH
	DB	0a8H
	DB	0ffH
	DB	0b0H
	DB	0acH
	DB	0b0H
	DB	0ffH
	DB	0a8H
	DB	0acH
	DB	0a8H
	DB	0ffH
	DB	0b0H
	DB	0acH
	DB	0b0H
	DB	0ffH
	DB	0b0H
	DB	0acH
	DB	0b0H
	DB	0ffH
	DB	0a8H
	DB	0acH
	DB	0a8H
	DB	0ffH
	DB	0b0H
	DB	0acH
	DB	0b0H
	DB	0ffH
	DB	0a8H
	DB	0acH
	DB	0a8H
	DB	0ffH
	DB	0b0H
	DB	0acH
	DB	0b0H
	DB	0ffH
	DB	0b0H
	DB	0acH
	DB	0b0H
	DB	0ffH
	DB	0a8H
	DB	0acH
	DB	0a8H
	DB	0ffH
	DB	0b0H
	DB	0acH
	DB	0b0H
	DB	0ffH
	DB	0b0H
	DB	0acH
	DB	0b0H
	DB	0ffH
	DB	0a8H
	DB	0acH
	DB	0a8H
	DB	0ffH
	DB	0b0H
	DB	0acH
	DB	0b0H
	DB	0ffH
	DB	0a8H
	DB	0acH
	DB	0a8H
	DB	0ffH
	DB	0a8H
	DB	0acH
	DB	0a8H
	DB	0ffH
	DB	0b0H
	DB	0acH
	DB	0b0H
	DB	0ffH
	DB	0a8H
	DB	0acH
	DB	0a8H
	DB	0ffH
	DB	0b0H
	DB	0acH
	DB	0b0H
	DB	0ffH
	DB	0a8H
	DB	0acH
	DB	0a8H
	DB	0ffH
	DB	0b0H
	DB	0acH
	DB	0b0H
	DB	0ffH
	DB	0a8H
	DB	0acH
	DB	0a8H
	DB	0ffH
	DB	0a8H
	DB	0acH
	DB	0a8H
	DB	0ffH
	DB	0b0H
	DB	0acH
	DB	0b0H
	DB	0ffH
	DB	0b0H
	DB	0acH
	DB	0b0H
	DB	0ffH
	DB	0a8H
	DB	0acH
	DB	0a8H
	DB	0ffH
	DB	0b0H
	DB	0acH
	DB	0b0H
	DB	0ffH
	DB	0a8H
	DB	0acH
	DB	0a8H
	DB	0ffH
	DB	0a8H
	DB	0acH
	DB	0a8H
	DB	0ffH
	DB	0b0H
	DB	0acH
	DB	0b0H
	DB	0ffH
	DB	0a8H
	DB	0acH
	DB	0a8H
	DB	0ffH
	DB	0b0H
	DB	0acH
	DB	0b0H
	DB	0ffH
	DB	0a8H
	DB	0acH
	DB	0a8H
	DB	0ffH
	DB	0b0H
	DB	0acH
	DB	0b0H
	DB	0ffH
	DB	0b0H
	DB	0acH
	DB	0b0H
	DB	0ffH
	DB	0a8H
	DB	0acH
	DB	0a8H
	DB	0ffH
	DB	0a8H
	DB	0acH
	DB	0a8H
	DB	0ffH
	DB	0b0H
	DB	0acH
	DB	0b0H
	DB	0ffH
	DB	0a8H
	DB	0acH
	DB	0a8H
	DB	0ffH
	DB	0b0H
	DB	0acH
	DB	0b0H
	DB	0ffH
	DB	0a8H
	DB	0acH
	DB	0a8H
	DB	0ffH
	DB	0b0H
	DB	0acH
	DB	0b0H
	DB	0ffH
	DB	0a8H
	DB	0acH
	DB	0a8H
	DB	0ffH
	DB	0a8H
	DB	0acH
	DB	0a8H
	DB	0ffH
	DB	0b0H
	DB	0acH
	DB	0b0H
	DB	0ffH
	DB	0a8H
	DB	0acH
	DB	0a8H
	DB	0ffH
	DB	0b0H
	DB	0acH
	DB	0b0H
	DB	0ffH
	DB	0b0H
	DB	0acH
	DB	0b0H
	DB	0ffH
	DB	0a8H
	DB	0acH
	DB	0a8H
	DB	0ffH
	DB	0b0H
	DB	0acH
	DB	0b0H
	DB	0ffH
	DB	0a8H
	DB	0acH
	DB	0a8H
	DB	0ffH
	DB	0a8H
	DB	0acH
	DB	0a8H
	DB	0ffH
	DB	0b0H
	DB	0acH
	DB	0b0H
	DB	0ffH
	DB	0a8H
	DB	0acH
	DB	0a8H
	DB	0ffH
	DB	0b0H
	DB	0acH
	DB	0b0H
	DB	0ffH
	DB	0b0H
	DB	0acH
	DB	0b0H
	DB	0ffH
	DB	0a8H
	DB	0acH
	DB	0a8H
	DB	0ffH
	DB	0b0H
	DB	0acH
	DB	0b0H
	DB	0ffH
	DB	0a8H
	DB	0acH
	DB	0a8H
	DB	0ffH
	DB	0a8H
	DB	0acH
	DB	0a8H
	DB	0ffH
	DB	0b0H
	DB	0acH
	DB	0b0H
	DB	0ffH
	DB	0b0H
	DB	0acH
	DB	0b0H
	DB	0ffH
	DB	0a8H
	DB	0acH
	DB	0a8H
	DB	0ffH
	DB	0b0H
	DB	0acH
	DB	0b0H
	DB	0ffH
	DB	0a8H
	DB	0acH
	DB	0a8H
	DB	0ffH
	DB	0a8H
	DB	0acH
	DB	0a8H
	DB	0ffH
	DB	0b0H
	DB	0acH
	DB	0b0H
	DB	0ffH
	DB	0a8H
	DB	0acH
	DB	0a8H
	DB	0ffH
	DB	0b0H
	DB	0acH
	DB	0b0H
	DB	0ffH
	DB	0b0H
	DB	0acH
	DB	0b0H
	DB	0ffH
	DB	0a8H
	DB	0acH
	DB	0a8H
	DB	0ffH
	DB	0b0H
	DB	0acH
	DB	0b0H
	DB	0ffH
	DB	0b0H
	DB	0acH
	DB	0b0H
	DB	0ffH
	DB	0a8H
	DB	0acH
	DB	0a8H
	DB	0ffH
	DB	0a8H
	DB	0acH
	DB	0a8H
	DB	0ffH
	DB	0b0H
	DB	0acH
	DB	0b0H
	DB	0ffH
	DB	0b0H
	DB	0acH
	DB	0b0H
	DB	0ffH
	DB	0a8H
	DB	0acH
	DB	0a8H
	DB	0ffH
	DB	0b0H
	DB	0acH
	DB	0b0H
	DB	0ffH
	DB	0a8H
	DB	0acH
	DB	0a8H
	DB	0ffH
	DB	0b0H
	DB	0acH
	DB	0b0H
	DB	0ffH
	DB	0a8H
	DB	0acH
	DB	0a8H
	DB	0ffH
	DB	0b0H
	DB	0acH
	DB	0b0H
	DB	0ffH
	DB	0b0H
	DB	0acH
	DB	0b0H
	DB	0ffH
	DB	0a8H
	DB	0acH
	DB	0a8H
	DB	0ffH
	DB	0b0H
	DB	0acH
	DB	0b0H
	DB	0ffH
	DB	0a8H
	DB	0acH
	DB	0a8H
	DB	0ffH
	DB	0a8H
	DB	0acH
	DB	0a8H
	DB	0ffH
	DB	0b0H
	DB	0acH
	DB	0b0H
	DB	0ffH
	DB	0a8H
	DB	0acH
	DB	0a8H
	DB	0ffH
	DB	0a8H
	DB	0acH
	DB	0a8H
	DB	0ffH
	DB	0b0H
	DB	0acH
	DB	0b0H
	DB	0ffH
	DB	0a8H
	DB	0acH
	DB	0a8H
	DB	0ffH
	DB	0a8H
	DB	0acH
	DB	0a8H
	DB	0ffH
	DB	0b0H
	DB	0acH
	DB	0b0H
	DB	0ffH
	DB	0a8H
	DB	0acH
	DB	0a8H
	DB	0ffH
	DB	0a8H
	DB	0acH
	DB	0a8H
	DB	0ffH
	DB	0b0H
	DB	0acH
	DB	0b0H
	DB	0ffH
	DB	0a8H
	DB	0acH
	DB	0a8H
	DB	0ffH
	DB	0b0H
	DB	0acH
	DB	0b0H
	DB	0ffH
	DB	0a8H
	DB	0acH
	DB	0a8H
	DB	0ffH
	DB	0a8H
	DB	0acH
	DB	0a8H
	DB	0ffH
	DB	0b0H
	DB	0acH
	DB	0b0H
	DB	0ffH
	DB	0a8H
	DB	0acH
	DB	0a8H
	DB	0ffH
	DB	0b0H
	DB	0acH
	DB	0b0H
	DB	0ffH
	DB	0b0H
	DB	0acH
	DB	0b0H
	DB	0ffH
	DB	0a8H
	DB	0acH
	DB	0a8H
	DB	0ffH
	DB	0b0H
	DB	0acH
	DB	0b0H
	DB	0ffH
	DB	0b0H
	DB	0acH
	DB	0b0H
	DB	0ffH
	DB	0a8H
	DB	0acH
	DB	0a8H
	DB	0ffH
	DB	0b0H
	DB	0acH
	DB	0b0H
	DB	0ffH
	DB	0b0H
	DB	0acH
	DB	0b0H
	DB	0ffH
	DB	0a8H
	DB	0acH
	DB	0a8H
	DB	0ffH
	DB	0b0H
	DB	0acH
	DB	0b0H
	DB	0ffH
	DB	0b0H
	DB	0acH
	DB	0b0H
	DB	0ffH
	DB	0a8H
	DB	0acH
	DB	0a8H
	DB	0ffH
	DB	0b0H
	DB	0acH
	DB	0b0H
	DB	0ffH
	DB	0a8H
	DB	0acH
	DB	0a8H
	DB	0ffH
	DB	0b0H
	DB	0acH
	DB	0b0H
	DB	0ffH
	DB	0a8H
	DB	0acH
	DB	0a8H
	DB	0ffH
	DB	0b0H
	DB	0acH
	DB	0b0H
	DB	0ffH
	DB	0b0H
	DB	0acH
	DB	0b0H
	DB	0ffH
	DB	0a8H
	DB	0acH
	DB	0a8H
	DB	0ffH
	DB	0a8H
	DB	0acH
	DB	0a8H
	DB	0ffH
	DB	0b0H
	DB	0acH
	DB	0b0H
	DB	0ffH
	DB	0a8H
	DB	0acH
	DB	0a8H
	DB	0ffH
	DB	0a8H
	DB	0acH
	DB	0a8H
	DB	0ffH
	DB	0b0H
	DB	0acH
	DB	0b0H
	DB	0ffH
	DB	0a8H
	DB	0acH
	DB	0a8H
	DB	0ffH
	DB	0a8H
	DB	0acH
	DB	0a8H
	DB	0ffH
	DB	0b0H
	DB	0acH
	DB	0b0H
	DB	0ffH
	DB	0a8H
	DB	0acH
	DB	0a8H
	DB	0ffH
	DB	0a8H
	DB	0acH
	DB	0a8H
	DB	0ffH
	DB	0b0H
	DB	0acH
	DB	0b0H
	DB	0ffH
	DB	0a8H
	DB	0acH
	DB	0a8H
	DB	0ffH
	DB	0b0H
	DB	0acH
	DB	0b0H
	DB	0ffH
	DB	0a8H
	DB	0acH
	DB	0a8H
	DB	0ffH
	DB	0b0H
	DB	0acH
	DB	0b0H
	DB	0ffH
	DB	0a8H
	DB	0acH
	DB	0a8H
	DB	0ffH
	DB	0a8H
	DB	0acH
	DB	0a8H
	DB	0ffH
	DB	0b0H
	DB	0acH
	DB	0b0H
	DB	0ffH
	DB	0b0H
	DB	0acH
	DB	0b0H
	DB	0ffH
	DB	0a8H
	DB	0acH
	DB	0a8H
	DB	0ffH
	DB	0b0H
	DB	0acH
	DB	0b0H
	DB	0ffH
	DB	0b0H
	DB	0acH
	DB	0b0H
	DB	0ffH
	DB	0a8H
	DB	0acH
	DB	0a8H
	DB	0ffH
	DB	0b0H
	DB	0acH
	DB	0b0H
	DB	0ffH
	DB	0b0H
	DB	0acH
	DB	0b0H
	DB	0ffH
	DB	0a8H
	DB	0acH
	DB	0a8H
	DB	0ffH
	DB	0b0H
	DB	0acH
	DB	0b0H
	DB	0ffH
	DB	0b0H
	DB	0acH
	DB	0b0H
	DB	0ffH
	DB	0a8H
	DB	0acH
	DB	0a8H
	DB	0ffH
	DB	0b0H
	DB	0acH
	DB	0b0H
	DB	0ffH
	DB	0a8H
	DB	0acH
	DB	0a8H
	DB	0ffH
	DB	0b0H
	DB	0acH
	DB	0b0H
	DB	0ffH
	DB	0a8H
	DB	0acH
	DB	0a8H
	DB	0ffH
	DB	0b0H
	DB	0acH
	DB	0b0H
	DB	0ffH
	DB	0a8H
	DB	0acH
	DB	0a8H
	DB	0ffH
	DB	0b0H
	DB	0acH
	DB	0b0H
	DB	0ffH
	DB	0a8H
	DB	0acH
	DB	0a8H
	DB	0ffH
	DB	0a8H
	DB	0acH
	DB	0a8H
	DB	0ffH
	DB	0b0H
	DB	0acH
	DB	0b0H
	DB	0ffH
	DB	0a8H
	DB	0acH
	DB	0a8H
	DB	0ffH
	DB	0a8H
	DB	0acH
	DB	0a8H
	DB	0ffH
	DB	0b0H
	DB	0acH
	DB	0b0H
	DB	0ffH
	DB	0a8H
	DB	0acH
	DB	0a8H
	DB	0ffH
	DB	0a8H
	DB	0acH
	DB	0a8H
	DB	0ffH
	DB	0b0H
	DB	0acH
	DB	0b0H
	DB	0ffH
	DB	0a8H
	DB	0acH
	DB	0a8H
	DB	0ffH
	DB	0a8H
	DB	0acH
	DB	0a8H
	DB	0ffH
	DB	0b0H
	DB	0acH
	DB	0b0H
	DB	0ffH
	DB	0b0H
	DB	0acH
	DB	0b0H
	DB	0ffH
	DB	0a8H
	DB	0acH
	DB	0a8H
	DB	0ffH
	DB	0b0H
	DB	0acH
	DB	0b0H
	DB	0ffH
	DB	0a8H
	DB	0acH
	DB	0a8H
	DB	0ffH
	DB	0b0H
	DB	0acH
	DB	0b0H
	DB	0ffH
	DB	0a8H
	DB	0acH
	DB	0a8H
	DB	0ffH
	DB	0b0H
	DB	0acH
	DB	0b0H
	DB	0ffH
	DB	0a8H
	DB	0acH
	DB	0a8H
	DB	0ffH
	DB	0b0H
	DB	0acH
	DB	0b0H
	DB	0ffH
	DB	0a8H
	DB	0acH
	DB	0a8H
	DB	0ffH
	DB	0b0H
	DB	0acH
	DB	0b0H
	DB	0ffH
	DB	0b0H
	DB	0acH
	DB	0b0H
	DB	0ffH
	DB	0a8H
	DB	0acH
	DB	0a8H
	DB	0ffH
	DB	0b0H
	DB	0acH
	DB	0b0H
	DB	0ffH
	DB	0b0H
	DB	0acH
	DB	0b0H
	DB	0ffH
	DB	0a8H
	DB	0acH
	DB	0a8H
	DB	0ffH
	DB	0b0H
	DB	0acH
	DB	0b0H
	DB	0ffH
	DB	0b0H
	DB	0acH
	DB	0b0H
	DB	0ffH
	DB	0a8H
	DB	0acH
	DB	0a8H
	DB	0ffH
	DB	0a8H
	DB	0acH
	DB	0a8H
	DB	0ffH
	DB	0b0H
	DB	0acH
	DB	0b0H
	DB	0ffH
	DB	0a8H
	DB	0acH
	DB	0a8H
	DB	0ffH
	DB	0a8H
	DB	0acH
	DB	0a8H
	DB	0ffH
	DB	0b0H
	DB	0acH
	DB	0b0H
	DB	0ffH
	DB	0a8H
	DB	0acH
	DB	0a8H
	DB	0ffH
	DB	0b0H
	DB	0acH
	DB	0b0H
	DB	0ffH
	DB	0a8H
	DB	0acH
	DB	0a8H
	DB	0ffH
	DB	0b0H
	DB	0acH
	DB	0b0H
	DB	0ffH
	DB	0a8H
	DB	0acH
	DB	0a8H
	DB	0ffH
	DB	0b0H
	DB	0acH
	DB	0b0H
	DB	0ffH
	DB	0a8H
	DB	0acH
	DB	0a8H
	DB	0ffH
	DB	0a8H
	DB	0acH
	DB	0a8H
	DB	0ffH
	DB	0b0H
	DB	0acH
	DB	0b0H
	DB	0ffH
	DB	0a8H
	DB	0acH
	DB	0a8H
	DB	0ffH
	DB	0a8H
	DB	0acH
	DB	0a8H
	DB	0ffH
	DB	0b0H
	DB	0acH
	DB	0b0H
	DB	0ffH
	DB	0a8H
	DB	0acH
	DB	0a8H
	DB	0ffH
	DB	0b0H
	DB	0acH
	DB	0b0H
	DB	0ffH
	DB	0a8H
	DB	0acH
	DB	0a8H
	DB	0ffH
	DB	0b0H
	DB	0acH
	DB	0b0H
	DB	0ffH
	DB	0b0H
	DB	0acH
	DB	0b0H
	DB	0ffH
	DB	0a8H
	DB	0acH
	DB	0a8H
	DB	0ffH
	DB	0b0H
	DB	0acH
	DB	0b0H
	DB	0ffH
	DB	0b0H
	DB	0acH
	DB	0b0H
	DB	0ffH
	DB	0a8H
	DB	0acH
	DB	0a8H
	DB	0ffH
	DB	0a8H
	DB	0acH
	DB	0a8H
	DB	0ffH
	DB	0b0H
	DB	0acH
	DB	0b0H
	DB	0ffH
	DB	0a8H
	DB	0acH
	DB	0a8H
	DB	0ffH
	DB	0a8H
	DB	0acH
	DB	0a8H
	DB	0ffH
	DB	0b0H
	DB	0acH
	DB	0b0H
	DB	0ffH
	DB	0b0H
	DB	0acH
	DB	0b0H
	DB	0ffH
	DB	0a8H
	DB	0acH
	DB	0a8H
	DB	0ffH
	DB	0b0H
	DB	0acH
	DB	0b0H
	DB	0ffH
	DB	0a8H
	DB	0acH
	DB	0a8H
	DB	0ffH
	DB	0b0H
	DB	0acH
	DB	0b0H
	DB	0ffH
	DB	0a8H
	DB	0acH
	DB	0a8H
	DB	0ffH
	DB	0b0H
	DB	0acH
	DB	0b0H
	DB	0ffH
	DB	0a8H
	DB	0acH
	DB	0a8H
	DB	0ffH
	DB	0a8H
	DB	0acH
	DB	0a8H
	DB	0ffH
	DB	0b0H
	DB	0acH
	DB	0b0H
	DB	0ffH
	DB	0a8H
	DB	0acH
	DB	0a8H
	DB	0ffH
	DB	0a8H
	DB	0acH
	DB	0a8H
	DB	0ffH
	DB	0b0H
	DB	0acH
	DB	0b0H
	DB	0ffH
	DB	0b0H
	DB	0acH
	DB	0b0H
	DB	0ffH
	DB	0a8H
	DB	0acH
	DB	0a8H
	DB	0ffH
	DB	0b0H
	DB	0acH
	DB	0b0H
	DB	0ffH
	DB	0b0H
	DB	0acH
	DB	0b0H
	DB	0ffH
	DB	0a8H
	DB	0acH
	DB	0a8H
	DB	0ffH
	DB	0b0H
	DB	0acH
	DB	0b0H
	DB	0ffH
	DB	0a8H
	DB	0acH
	DB	0a8H
	DB	0ffH
	DB	0a8H
	DB	0acH
	DB	0a8H
	DB	0ffH
	DB	0b0H
	DB	0acH
	DB	0b0H
	DB	0ffH
	DB	0a8H
	DB	0acH
	DB	0a8H
	DB	0ffH
	DB	0b0H
	DB	0acH
	DB	0b0H
	DB	0ffH
	DB	0b0H
	DB	0acH
	DB	0b0H
	DB	0ffH
	DB	0a8H
	DB	0acH
	DB	0a8H
	DB	0ffH
	DB	0b0H
	DB	0acH
	DB	0b0H
	DB	0ffH
	DB	0b0H
	DB	0acH
	DB	0b0H
	DB	0ffH
	DB	0a8H
	DB	0acH
	DB	0a8H
	DB	0ffH
	DB	0b0H
	DB	0acH
	DB	0b0H
	DB	0ffH
	DB	0b0H
	DB	0acH
	DB	0b0H
	DB	0ffH
	DB	0a8H
	DB	0acH
	DB	0a8H
	DB	0ffH
	DB	0a8H
	DB	0acH
	DB	0a8H
	DB	0ffH
	DB	0b0H
	DB	0acH
	DB	0b0H
	DB	0ffH
	DB	0a8H
	DB	0acH
	DB	0a8H
	DB	0ffH
	DB	0a8H
	DB	0acH
	DB	0a8H
	DB	0ffH
	DB	0b0H
	DB	0acH
	DB	0b0H
	DB	0ffH
	DB	0a8H
	DB	0acH
	DB	0a8H
	DB	0ffH
	DB	0a8H
	DB	0acH
	DB	0a8H
	DB	0ffH
	DB	0b0H
	DB	0acH
	DB	0b0H
	DB	0ffH
	DB	0b0H
	DB	0acH
	DB	0b0H
	DB	0ffH
	DB	0a8H
	DB	0acH
	DB	0a8H
	DB	0ffH
	DB	0a8H
	DB	0acH
	DB	0a8H
	DB	0ffH
	DB	0b0H
	DB	0acH
	DB	0b0H
	DB	0ffH
	DB	0a8H
	DB	0acH
	DB	0a8H
	DB	0ffH
	DB	0a8H
	DB	0acH
	DB	0a8H
	DB	0ffH
	DB	0b0H
	DB	0acH
	DB	0b0H
	DB	0ffH
	DB	0a8H
	DB	0acH
	DB	0a8H
	DB	0ffH
	DB	0a8H
	DB	0acH
	DB	0a8H
	DB	0ffH
	DB	0b0H
	DB	0acH
	DB	0b0H
	DB	0ffH
	DB	0b0H
	DB	0acH
	DB	0b0H
	DB	0ffH
	DB	0a8H
	DB	0acH
	DB	0a8H
	DB	0ffH
	DB	0b0H
	DB	0acH
	DB	0b0H
	DB	0ffH
	DB	0a8H
	DB	0acH
	DB	0a8H
	DB	0ffH
	DB	0b0H
	DB	0acH
	DB	0b0H
	DB	0ffH
	DB	0b0H
	DB	0acH
	DB	0b0H
	DB	0ffH
	DB	0a8H
	DB	0acH
	DB	0a8H
	DB	0ffH
	DB	0b0H
	DB	0acH
	DB	0b0H
	DB	0ffH
	DB	0a8H
	DB	0acH
	DB	0a8H
	DB	0ffH
	DB	0b0H
	DB	0acH
	DB	0b0H
	DB	0ffH
	DB	0b0H
	DB	0acH
	DB	0b0H
	DB	0ffH
	DB	0a8H
	DB	0acH
	DB	0a8H
	DB	0ffH
	DB	0b0H
	DB	0acH
	DB	0b0H
	DB	0ffH
	DB	0b0H
	DB	0acH
	DB	0b0H
	DB	0ffH
	DB	0a8H
	DB	0acH
	DB	0a8H
	DB	0ffH
	DB	0b0H
	DB	0acH
	DB	0b0H
	DB	0ffH
	DB	0b0H
	DB	0acH
	DB	0b0H
	DB	0ffH
	DB	0a8H
	DB	0acH
	DB	0a8H
	DB	0ffH
	DB	0a8H
	DB	0acH
	DB	0a8H
	DB	0ffH
	DB	0b0H
	DB	0acH
	DB	0b0H
	DB	0ffH
	DB	0a8H
	DB	0acH
	DB	0a8H
	DB	0ffH
	DB	0a8H
	DB	0acH
	DB	0a8H
	DB	0ffH
	DB	0b0H
	DB	0acH
	DB	0b0H
	DB	0ffH
	DB	0a8H
	DB	0acH
	DB	0a8H
	DB	0ffH
	DB	0b0H
	DB	0acH
	DB	0b0H
	DB	0ffH
	DB	0a8H
	DB	0acH
	DB	0a8H
	DB	0ffH
	DB	0a8H
	DB	0acH
	DB	0a8H
	DB	0ffH
	DB	0b0H
	DB	0acH
	DB	0b0H
	DB	0ffH
	DB	0a8H
	DB	0acH
	DB	0a8H
	DB	0ffH
	DB	0a8H
	DB	0acH
	DB	0a8H
	DB	0ffH
	DB	0b0H
	DB	0acH
	DB	0b0H
	DB	0ffH
	DB	0a8H
	DB	0acH
	DB	0a8H
	DB	0ffH
	DB	0a8H
	DB	0acH
	DB	0a8H
	DB	0ffH
	DB	0b0H
	DB	0acH
	DB	0b0H
	DB	0ffH
	DB	0a8H
	DB	0acH
	DB	0a8H
	DB	0ffH
	DB	0a8H
	DB	0acH
	DB	0a8H
	DB	0ffH
	DB	0b0H
	DB	0acH
	DB	0b0H
	DB	0ffH
	DB	0b0H
	DB	0acH
	DB	0b0H
	DB	0ffH
	DB	0a8H
	DB	0acH
	DB	0a8H
	DB	0ffH
	DB	0b0H
	DB	0acH
	DB	0b0H
	DB	0ffH
	DB	0b0H
	DB	0acH
	DB	0b0H
	DB	0ffH
	DB	0a8H
	DB	0acH
	DB	0a8H
	DB	0ffH
	DB	0b0H
	DB	0acH
	DB	0b0H
	DB	0ffH
	DB	0b0H
	DB	0acH
	DB	0b0H
	DB	0ffH
	DB	0a8H
	DB	0acH
	DB	0a8H
	DB	0ffH
	DB	0b0H
	DB	0acH
	DB	0b0H
	DB	0ffH
	DB	0a8H
	DB	0acH
	DB	0a8H
	DB	0ffH
	DB	0a8H
	DB	0acH
	DB	0a8H
	DB	0ffH
	DB	0b0H
	DB	0acH
	DB	0b0H
	DB	0ffH
	DB	0a8H
	DB	0acH
	DB	0a8H
	DB	0ffH
	DB	0b0H
	DB	0acH
	DB	0b0H
	DB	0ffH
	DB	0b0H
	DB	0acH
	DB	0b0H
	DB	0ffH
	DB	0a8H
	DB	0acH
	DB	0a8H
	DB	0ffH
	DB	0b0H
	DB	0acH
	DB	0b0H
	DB	0ffH
	DB	0b0H
	DB	0acH
	DB	0b0H
	DB	0ffH
	DB	0a8H
	DB	0acH
	DB	0a8H
	DB	0ffH
	DB	0a8H
	DB	0acH
	DB	0a8H
	DB	0ffH
	DB	0b0H
	DB	0acH
	DB	0b0H
	DB	0ffH
	DB	0a8H
	DB	0acH
	DB	0a8H
	DB	0ffH
	DB	0a8H
	DB	0acH
	DB	0a8H
	DB	0ffH
	DB	0b0H
	DB	0acH
	DB	0b0H
	DB	0ffH
	DB	0a8H
	DB	0acH
	DB	0a8H
	DB	0ffH
	DB	0a8H
	DB	0acH
	DB	0a8H
	DB	0ffH
	DB	0b0H
	DB	0acH
	DB	0b0H
	DB	0ffH
	DB	0a8H
	DB	0acH
	DB	0a8H
	DB	0ffH
	DB	0b0H
	DB	0acH
	DB	0b0H
	DB	0ffH
	DB	0b0H
	DB	0acH
	DB	0b0H
	DB	0ffH
	DB	0a8H
	DB	0acH
	DB	0a8H
	DB	0ffH
	DB	0a8H
	DB	0acH
	DB	0a8H
	DB	0ffH
	DB	0b0H
	DB	0acH
	DB	0b0H
	DB	0ffH
	DB	0a8H
	DB	0acH
	DB	0a8H
	DB	0ffH
	DB	0a8H
	DB	0acH
	DB	0a8H
	DB	0ffH
	DB	0b0H
	DB	0acH
	DB	0b0H
	DB	0ffH
	DB	0a8H
	DB	0acH
	DB	0a8H
	DB	0ffH
	DB	0b0H
	DB	0acH
	DB	0b0H
	DB	0ffH
	DB	0b0H
	DB	0acH
	DB	0b0H
	DB	0ffH
	DB	0a8H
	DB	0acH
	DB	0a8H
	DB	0ffH
	DB	0b0H
	DB	0acH
	DB	0b0H
	DB	0ffH
	DB	0b0H
	DB	0acH
	DB	0b0H
	DB	0ffH
	DB	0a8H
	DB	0acH
	DB	0a8H
	DB	0ffH
	DB	0b0H
	DB	0acH
	DB	0b0H
	DB	0ffH
	DB	0b0H
	DB	0acH
	DB	0b0H
	DB	0ffH
	DB	0a8H
	DB	0acH
	DB	0a8H
	DB	0ffH
	DB	0a8H
	DB	0acH
	DB	0a8H
	DB	0ffH
	DB	0b0H
	DB	0acH
	DB	0b0H
	DB	0ffH
	DB	0a8H
	DB	0acH
	DB	0a8H
	DB	0ffH
	DB	0b0H
	DB	0acH
	DB	0b0H
	DB	0ffH
	DB	0b0H
	DB	0acH
	DB	0b0H
	DB	0ffH
	DB	0a8H
	DB	0acH
	DB	0a8H
	DB	0ffH
	DB	0b0H
	DB	0acH
	DB	0b0H
	DB	0ffH
	DB	0b0H
	DB	0acH
	DB	0b0H
	DB	0ffH
	DB	0a8H
	DB	0acH
	DB	0a8H
	DB	0ffH
	DB	0b0H
	DB	0acH
	DB	0b0H
	DB	0ffH
	DB	0a8H
	DB	0acH
	DB	0a8H
	DB	0ffH
	DB	0a8H
	DB	0acH
	DB	0a8H
	DB	0ffH
	DB	0b0H
	DB	0acH
	DB	0b0H
	DB	0ffH
	DB	0a8H
	DB	0acH
	DB	0a8H
	DB	0ffH
	DB	0a8H
	DB	0acH
	DB	0a8H
	DB	0ffH
	DB	0b0H
	DB	0acH
	DB	0b0H
	DB	0ffH
	DB	0a8H
	DB	0acH
	DB	0a8H
	DB	0ffH
	DB	0a8H
	DB	0acH
	DB	0a8H
	DB	0ffH
	DB	0b0H
	DB	0acH
	DB	0b0H
	DB	0ffH
	DB	0b0H
	DB	0acH
	DB	0b0H
	DB	0ffH
	DB	0a8H
	DB	0acH
	DB	0a8H
	DB	0ffH
	DB	0b0H
	DB	0acH
	DB	0b0H
	DB	0ffH
	DB	0a8H
	DB	0acH
	DB	0a8H
	DB	0ffH
	DB	0a8H
	DB	0acH
	DB	0a8H
	DB	0ffH
	DB	0b0H
	DB	0acH
	DB	0b0H
	DB	0ffH
	DB	0b0H
	DB	0acH
	DB	0b0H
	DB	0ffH
	DB	0a8H
	DB	0acH
	DB	0a8H
	DB	0ffH
	DB	0a8H
	DB	0acH
	DB	0a8H
	DB	0ffH
	DB	0b0H
	DB	0acH
	DB	0b0H
	DB	0ffH
	DB	0b0H
	DB	0acH
	DB	0b0H
	DB	0ffH
	DB	0a8H
	DB	0acH
	DB	0a8H
	DB	0ffH
	DB	0b0H
	DB	0acH
	DB	0b0H
	DB	0ffH
	DB	0a8H
	DB	0acH
	DB	0a8H
	DB	0ffH
	DB	0b0H
	DB	0acH
	DB	0b0H
	DB	0ffH
	DB	0b0H
	DB	0acH
	DB	0b0H
	DB	0ffH
	DB	0a8H
	DB	0acH
	DB	0a8H
	DB	0ffH
	DB	0b0H
	DB	0acH
	DB	0b0H
	DB	0ffH
	DB	0a8H
	DB	0acH
	DB	0a8H
	DB	0ffH
	DB	0a8H
	DB	0acH
	DB	0a8H
	DB	0ffH
	DB	0b0H
	DB	0acH
	DB	0b0H
	DB	0ffH
	DB	0b0H
	DB	0acH
	DB	0b0H
	DB	0ffH
	DB	0a8H
	DB	0acH
	DB	0a8H
	DB	0ffH
	DB	0b0H
	DB	0acH
	DB	0b0H
	DB	0ffH
	DB	0a8H
	DB	0acH
	DB	0a8H
	DB	0ffH
	DB	0a8H
	DB	0acH
	DB	0a8H
	DB	0ffH
	DB	0a8H
	DB	0acH
	DB	0a8H
	DB	0ffH
	DB	0b0H
	DB	0acH
	DB	0b0H
	DB	0ffH
	DB	0a8H
	DB	0acH
	DB	0a8H
	DB	0ffH
	DB	0b0H
	DB	0acH
	DB	0b0H
	DB	0ffH
	DB	0a8H
	DB	0acH
	DB	0a8H
	DB	0ffH
	DB	0b0H
	DB	0acH
	DB	0b0H
	DB	0ffH
	DB	0a8H
	DB	0acH
	DB	0a8H
	DB	0ffH
	DB	0b0H
	DB	0acH
	DB	0b0H
	DB	0ffH
	DB	0a8H
	DB	0acH
	DB	0a8H
	DB	0ffH
	DB	0a8H
	DB	0acH
	DB	0a8H
	DB	0ffH
	DB	0b0H
	DB	0acH
	DB	0b0H
	DB	0ffH
	DB	0b0H
	DB	0acH
	DB	0b0H
	DB	0ffH
	DB	0b0H
	DB	0acH
	DB	0b0H
	DB	0ffH
	DB	0a8H
	DB	0acH
	DB	0a8H
	DB	0ffH
	DB	0a8H
	DB	0acH
	DB	0a8H
	DB	0ffH
	DB	0b0H
	DB	0acH
	DB	0b0H
	DB	0ffH
	DB	0a8H
	DB	0acH
	DB	0a8H
	DB	0ffH
	DB	0b0H
	DB	0acH
	DB	0b0H
	DB	0ffH
	DB	0b0H
	DB	0acH
	DB	0b0H
	DB	0ffH
	DB	0a8H
	DB	0acH
	DB	0a8H
	DB	0ffH
	DB	0b0H
	DB	0acH
	DB	0b0H
	DB	0ffH
	DB	0a8H
	DB	0acH
	DB	0a8H
	DB	0ffH
	DB	0b0H
	DB	0acH
	DB	0b0H
	DB	0ffH
	DB	0a8H
	DB	0acH
	DB	0a8H
	DB	0ffH
	DB	0a8H
	DB	0acH
	DB	0a8H
	DB	0ffH
	DB	0b0H
	DB	0acH
	DB	0b0H
	DB	0ffH
	DB	0a8H
	DB	0acH
	DB	0a8H
	DB	0ffH
	DB	0b0H
	DB	0acH
	DB	0b0H
	DB	0ffH
	DB	0b0H
	DB	0acH
	DB	0b0H
	DB	0ffH
	DB	0a8H
	DB	0acH
	DB	0a8H
	DB	0ffH
	DB	0a8H
	DB	0acH
	DB	0a8H
	DB	0ffH
	DB	0b0H
	DB	0acH
	DB	0b0H
	DB	0ffH
	DB	0a8H
	DB	0acH
	DB	0a8H
	DB	0ffH
	DB	0b0H
	DB	0acH
	DB	0b0H
	DB	0ffH
	DB	0b0H
	DB	0acH
	DB	0b0H
	DB	0ffH
	DB	0a8H
	DB	0acH
	DB	0a8H
	DB	0ffH
	DB	0a8H
	DB	0acH
	DB	0a8H
	DB	0ffH
	DB	0b0H
	DB	0acH
	DB	0b0H
	DB	0ffH
	DB	0b0H
	DB	0acH
	DB	0b0H
	DB	0ffH
	DB	0a8H
	DB	0acH
	DB	0a8H
	DB	0ffH
	DB	0a8H
	DB	0acH
	DB	0a8H
	DB	0ffH
	DB	0b0H
	DB	0acH
	DB	0b0H
	DB	0ffH
	DB	0b0H
	DB	0acH
	DB	0b0H
	DB	0ffH
	DB	0a8H
	DB	0acH
	DB	0a8H
	DB	0ffH
	DB	0b0H
	DB	0acH
	DB	0b0H
	DB	0ffH
	DB	0b0H
	DB	0acH
	DB	0b0H
	DB	0ffH
	DB	0a8H
	DB	0acH
	DB	0a8H
	DB	0ffH
	DB	0a8H
	DB	0acH
	DB	0a8H
	DB	0ffH
	DB	0b0H
	DB	0acH
	DB	0b0H
	DB	0ffH
	DB	0b0H
	DB	0acH
	DB	0b0H
	DB	0ffH
	DB	0a8H
	DB	0acH
	DB	0a8H
	DB	0ffH
	DB	0a8H
	DB	0acH
	DB	0a8H
	DB	0ffH
	DB	0b0H
	DB	0acH
	DB	0b0H
	DB	0ffH
	DB	0a8H
	DB	0acH
	DB	0a8H
	DB	0ffH
	DB	0b0H
	DB	0acH
	DB	0b0H
	DB	0ffH
	DB	0a8H
	DB	0acH
	DB	0a8H
	DB	0ffH
	DB	0b0H
	DB	0acH
	DB	0b0H
	DB	0ffH
	DB	0a8H
	DB	0acH
	DB	0a8H
	DB	0ffH
	DB	0a8H
	DB	0acH
	DB	0a8H
	DB	0ffH
	DB	0b0H
	DB	0acH
	DB	0b0H
	DB	0ffH
	DB	0a8H
	DB	0acH
	DB	0a8H
	DB	0ffH
	DB	0b0H
	DB	0acH
	DB	0b0H
	DB	0ffH
	DB	0a8H
	DB	0acH
	DB	0a8H
	DB	0ffH
	DB	0a8H
	DB	0acH
	DB	0a8H
	DB	0ffH
	DB	0b0H
	DB	0acH
	DB	0b0H
	DB	0ffH
	DB	0a8H
	DB	0acH
	DB	0a8H
	DB	0ffH
	DB	0b0H
	DB	0acH
	DB	0b0H
	DB	0ffH
	DB	0a8H
	DB	0acH
	DB	0a8H
	DB	0ffH
	DB	0a8H
	DB	0acH
	DB	0a8H
	DB	0ffH
	DB	0b0H
	DB	0acH
	DB	0b0H
	DB	0ffH
	DB	0b0H
	DB	0acH
	DB	0b0H
	DB	0ffH
	DB	0a8H
	DB	0acH
	DB	0a8H
	DB	0ffH
	DB	0b0H
	DB	0acH
	DB	0b0H
	DB	0ffH
	DB	0a8H
	DB	0acH
	DB	0a8H
	DB	0ffH
	DB	0a8H
	DB	0acH
	DB	0a8H
	DB	0ffH
	DB	0b0H
	DB	0acH
	DB	0b0H
	DB	0ffH
	DB	0b0H
	DB	0acH
	DB	0b0H
	DB	0ffH
	DB	0a8H
	DB	0acH
	DB	0a8H
	DB	0ffH
	DB	0a8H
	DB	0acH
	DB	0a8H
	DB	0ffH
	DB	0b0H
	DB	0acH
	DB	0b0H
	DB	0ffH
	DB	0b0H
	DB	0acH
	DB	0b0H
	DB	0ffH
	DB	0a8H
	DB	0acH
	DB	0a8H
	DB	0ffH
	DB	0b0H
	DB	0acH
	DB	0b0H
	DB	0ffH
	DB	0b0H
	DB	0acH
	DB	0b0H
	DB	0ffH
	DB	0a8H
	DB	0acH
	DB	0a8H
	DB	0ffH
	DB	0a8H
	DB	0acH
	DB	0a8H
	DB	0ffH
	DB	0b0H
	DB	0acH
	DB	0b0H
	DB	0ffH
	DB	0b0H
	DB	0acH
	DB	0b0H
	DB	0ffH
	DB	0a8H
	DB	0acH
	DB	0a8H
	DB	0ffH
	DB	0a8H
	DB	0acH
	DB	0a8H
	DB	0ffH
	DB	0b0H
	DB	0acH
	DB	0b0H
	DB	0ffH
	DB	0a8H
	DB	0acH
	DB	0a8H
	DB	0ffH
	DB	0b0H
	DB	0acH
	DB	0b0H
	DB	0ffH
	DB	0b0H
	DB	0acH
	DB	0b0H
	DB	0ffH
	DB	0a8H
	DB	0acH
	DB	0a8H
	DB	0ffH
	DB	0b0H
	DB	0acH
	DB	0b0H
	DB	0ffH
	DB	0a8H
	DB	0acH
	DB	0a8H
	DB	0ffH
	DB	0b0H
	DB	0acH
	DB	0b0H
	DB	0ffH
	DB	0b0H
	DB	0acH
	DB	0b0H
	DB	0ffH
	DB	0a8H
	DB	0acH
	DB	0a8H
	DB	0ffH
	DB	0a8H
	DB	0acH
	DB	0a8H
	DB	0ffH
	DB	0a8H
	DB	0acH
	DB	0a8H
	DB	0ffH
	DB	0b0H
	DB	0acH
	DB	0b0H
	DB	0ffH
	DB	0b0H
	DB	0acH
	DB	0b0H
	DB	0ffH
	DB	0a8H
	DB	0acH
	DB	0a8H
	DB	0ffH
	DB	0b0H
	DB	0acH
	DB	0b0H
	DB	0ffH
	DB	0a8H
	DB	0acH
	DB	0a8H
	DB	0ffH
	DB	0b0H
	DB	0acH
	DB	0b0H
	DB	0ffH
	DB	0b0H
	DB	0acH
	DB	0b0H
	DB	0ffH
	DB	0a8H
	DB	0acH
	DB	0a8H
	DB	0ffH
	DB	0b0H
	DB	0acH
	DB	0b0H
	DB	0ffH
	DB	0a8H
	DB	0acH
	DB	0a8H
	DB	0ffH
	DB	0a8H
	DB	0acH
	DB	0a8H
	DB	0ffH
	DB	0b0H
	DB	0acH
	DB	0b0H
	DB	0ffH
	DB	0a8H
	DB	0acH
	DB	0a8H
	DB	0ffH
	DB	0a8H
	DB	0acH
	DB	0a8H
	DB	0ffH
	DB	0b0H
	DB	0acH
	DB	0b0H
	DB	0ffH
	DB	0a8H
	DB	0acH
	DB	0a8H
	DB	0ffH
	DB	0b0H
	DB	0acH
	DB	0b0H
	DB	0ffH
	DB	0a8H
	DB	0acH
	DB	0a8H
	DB	0ffH
	DB	0b0H
	DB	0acH
	DB	0b0H
	DB	0ffH
	DB	0a8H
	DB	0acH
	DB	0a8H
	DB	0ffH
	DB	0a8H
	DB	0acH
	DB	0a8H
	DB	0ffH
	DB	0b0H
	DB	0acH
	DB	0b0H
	DB	0ffH
	DB	0a8H
	DB	0acH
	DB	0a8H
	DB	0ffH
	DB	0b0H
	DB	0acH
	DB	0b0H
	DB	0ffH
	DB	0a8H
	DB	0acH
	DB	0a8H
	DB	0ffH
	DB	0a8H
	DB	0acH
	DB	0a8H
	DB	0ffH
	DB	0b0H
	DB	0acH
	DB	0b0H
	DB	0ffH
	DB	0a8H
	DB	0acH
	DB	0a8H
	DB	0ffH
	DB	0b0H
	DB	0acH
	DB	0b0H
	DB	0ffH
	DB	0b0H
	DB	0acH
	DB	0b0H
	DB	0ffH
	DB	0a8H
	DB	0acH
	DB	0a8H
	DB	0ffH
	DB	0b0H
	DB	0acH
	DB	0b0H
	DB	0ffH
	DB	0b0H
	DB	0acH
	DB	0b0H
	DB	0ffH
	DB	0a8H
	DB	0acH
	DB	0a8H
	DB	0ffH
	DB	0b0H
	DB	0acH
	DB	0b0H
	DB	0ffH
	DB	0a8H
	DB	0acH
	DB	0a8H
	DB	0ffH
	DB	0a8H
	DB	0acH
	DB	0a8H
	DB	0ffH
	DB	0b0H
	DB	0acH
	DB	0b0H
	DB	0ffH
	DB	0b0H
	DB	0acH
	DB	0b0H
	DB	0ffH
	DB	0a8H
	DB	0acH
	DB	0a8H
	DB	0ffH
	DB	0b0H
	DB	0acH
	DB	0b0H
	DB	0ffH
	DB	0a8H
	DB	0acH
	DB	0a8H
	DB	0ffH
	DB	0b0H
	DB	0acH
	DB	0b0H
	DB	0ffH
	DB	0a8H
	DB	0acH
	DB	0a8H
	DB	0ffH
	DB	0b0H
	DB	0acH
	DB	0b0H
	DB	0ffH
	DB	0b0H
	DB	0acH
	DB	0b0H
	DB	0ffH
	DB	0a8H
	DB	0acH
	DB	0a8H
	DB	0ffH
	DB	0a8H
	DB	0acH
	DB	0a8H
	DB	0ffH
	DB	0b0H
	DB	0acH
	DB	0b0H
	DB	0ffH
	DB	0a8H
	DB	0acH
	DB	0a8H
	DB	0ffH
	DB	0a8H
	DB	0acH
	DB	0a8H
	DB	0ffH
	DB	0b0H
	DB	0acH
	DB	0b0H
	DB	0ffH
	DB	0a8H
	DB	0acH
	DB	0a8H
	DB	0ffH
	DB	0b0H
	DB	0acH
	DB	0b0H
	DB	0ffH
	DB	0b0H
	DB	0acH
	DB	0b0H
	DB	0ffH
	DB	0a8H
	DB	0acH
	DB	0a8H
	DB	0ffH
	DB	0b0H
	DB	0acH
	DB	0b0H
	DB	0ffH
	DB	0b0H
	DB	0acH
	DB	0b0H
	DB	0ffH
	DB	0a8H
	DB	0acH
	DB	0a8H
	DB	0ffH
	DB	0b0H
	DB	0acH
	DB	0b0H
	DB	0ffH
	DB	0a8H
	DB	0acH
	DB	0a8H
	DB	0ffH
	DB	0b0H
	DB	0acH
	DB	0b0H
	DB	0ffH
	DB	0a8H
	DB	0acH
	DB	0a8H
	DB	0ffH
	DB	0b0H
	DB	0acH
	DB	0b0H
	DB	0ffH
	DB	0a8H
	DB	0acH
	DB	0a8H
	DB	0ffH
	DB	0b0H
	DB	0acH
	DB	0b0H
	DB	0ffH
	DB	0a8H
	DB	0acH
	DB	0a8H
	DB	0ffH
	DB	0b0H
	DB	0acH
	DB	0b0H
	DB	0ffH
	DB	0b0H
	DB	0acH
	DB	0b0H
	DB	0ffH
	DB	0a8H
	DB	0acH
	DB	0a8H
	DB	0ffH
	DB	0b0H
	DB	0acH
	DB	0b0H
	DB	0ffH
	DB	0a8H
	DB	0acH
	DB	0a8H
	DB	0ffH
	DB	0a8H
	DB	0acH
	DB	0a8H
	DB	0ffH
	DB	0b0H
	DB	0acH
	DB	0b0H
	DB	0ffH
	DB	0a8H
	DB	0acH
	DB	0a8H
	DB	0ffH
	DB	0a8H
	DB	0acH
	DB	0a8H
	DB	0ffH
	DB	0b0H
	DB	0acH
	DB	0b0H
	DB	0ffH
	DB	0a8H
	DB	0acH
	DB	0a8H
	DB	0ffH
	DB	0a8H
	DB	0acH
	DB	0a8H
	DB	0ffH
	DB	0b0H
	DB	0acH
	DB	0b0H
	DB	0ffH
	DB	0b0H
	DB	0acH
	DB	0b0H
	DB	0ffH
	DB	0a8H
	DB	0acH
	DB	0a8H
	DB	0ffH
	DB	0b0H
	DB	0acH
	DB	0b0H
	DB	0ffH
	DB	0a8H
	DB	0acH
	DB	0a8H
	DB	0ffH
	DB	0a8H
	DB	0acH
	DB	0a8H
	DB	0ffH
	DB	0b0H
	DB	0acH
	DB	0b0H
	DB	0ffH
	DB	0a8H
	DB	0acH
	DB	0a8H
	DB	0ffH
	DB	0b0H
	DB	0acH
	DB	0b0H
	DB	0ffH
	DB	0a8H
	DB	0acH
	DB	0a8H
	DB	0ffH
	DB	0b0H
	DB	0acH
	DB	0b0H
	DB	0ffH
	DB	0b0H
	DB	0acH
	DB	0b0H
	DB	0ffH
	DB	0a8H
	DB	0acH
	DB	0a8H
	DB	0ffH
	DB	0b0H
	DB	0acH
	DB	0b0H
	DB	0ffH
	DB	0b0H
	DB	0acH
	DB	0b0H
	DB	0ffH
	DB	0a8H
	DB	0acH
	DB	0a8H
	DB	0ffH
	DB	0b0H
	DB	0acH
	DB	0b0H
	DB	0ffH
	DB	0a8H
	DB	0acH
	DB	0a8H
	DB	0ffH
	DB	0a8H
	DB	0acH
	DB	0a8H
	DB	0ffH
	DB	0a8H
	DB	0acH
	DB	0a8H
	DB	0ffH
	DB	0b0H
	DB	0acH
	DB	0b0H
	DB	0ffH
	DB	0a8H
	DB	0acH
	DB	0a8H
	DB	0ffH
	DB	0a8H
	DB	0acH
	DB	0a8H
	DB	0ffH
	DB	0b0H
	DB	0acH
	DB	0b0H
	DB	0ffH
	DB	0b0H
	DB	0acH
	DB	0b0H
	DB	0ffH
	DB	0a8H
	DB	0acH
	DB	0a8H
	DB	0ffH
	DB	0b0H
	DB	0acH
	DB	0b0H
	DB	0ffH
	DB	0b0H
	DB	0acH
	DB	0b0H
	DB	0ffH
	DB	0a8H
	DB	0acH
	DB	0a8H
	DB	0ffH
	DB	0a8H
	DB	0acH
	DB	0a8H
	DB	0ffH
	DB	0b0H
	DB	0acH
	DB	0b0H
	DB	0ffH
	DB	0a8H
	DB	0acH
	DB	0a8H
	DB	0ffH
	DB	0a8H
	DB	0acH
	DB	0a8H
	DB	0ffH
	DB	0b0H
	DB	0acH
	DB	0b0H
	DB	0ffH
	DB	0a8H
	DB	0acH
	DB	0a8H
	DB	0ffH
	DB	0b0H
	DB	0acH
	DB	0b0H
	DB	0ffH
	DB	0b0H
	DB	0acH
	DB	0b0H
	DB	0ffH
	DB	0a8H
	DB	0acH
	DB	0a8H
	DB	0ffH
	DB	0b0H
	DB	0acH
	DB	0b0H
	DB	0ffH
	DB	0b0H
	DB	0acH
	DB	0b0H
	DB	0ffH
	DB	0a8H
	DB	0acH
	DB	0a8H
	DB	0ffH
	DB	0b0H
	DB	0acH
	DB	0b0H
	DB	0ffH
	DB	0a8H
	DB	0acH
	DB	0a8H
	DB	0ffH
	DB	0b0H
	DB	0acH
	DB	0b0H
	DB	0ffH
	DB	0a8H
	DB	0acH
	DB	0a8H
	DB	0ffH
	DB	0a8H
	DB	0acH
	DB	0a8H
	DB	0ffH
	DB	0b0H
	DB	0acH
	DB	0b0H
	DB	0ffH
	DB	0a8H
	DB	0acH
	DB	0a8H
	DB	0ffH
	DB	0a8H
	DB	0acH
	DB	0a8H
	DB	0ffH
	DB	0b0H
	DB	0acH
	DB	0b0H
	DB	0ffH
	DB	0b0H
	DB	0acH
	DB	0b0H
	DB	0ffH
	DB	0a8H
	DB	0acH
	DB	0a8H
	DB	0ffH
	DB	0b0H
	DB	0acH
	DB	0b0H
	DB	0ffH
	DB	0a8H
	DB	0acH
	DB	0a8H
	DB	0ffH
	DB	0a8H
	DB	0acH
	DB	0a8H
	DB	0ffH
	DB	0b0H
	DB	0acH
	DB	0b0H
	DB	0ffH
	DB	0a8H
	DB	0acH
	DB	0a8H
	DB	0ffH
	DB	0b0H
	DB	0acH
	DB	0b0H
	DB	0ffH
	DB	0a8H
	DB	0acH
	DB	0a8H
	DB	0ffH
	DB	0a8H
	DB	0acH
	DB	0a8H
	DB	0ffH
	DB	0b0H
	DB	0acH
	DB	0b0H
	DB	0ffH
	DB	0a8H
	DB	0acH
	DB	0a8H
	DB	0ffH
	DB	0b0H
	DB	0acH
	DB	0b0H
	DB	0ffH
	DB	0b0H
	DB	0acH
	DB	0b0H
	DB	0ffH
	DB	0a8H
	DB	0acH
	DB	0a8H
	DB	0ffH
	DB	0b0H
	DB	0acH
	DB	0b0H
	DB	0ffH
	DB	0b0H
	DB	0acH
	DB	0b0H
	DB	0ffH
	DB	0a8H
	DB	0acH
	DB	0a8H
	DB	0ffH
	DB	0b0H
	DB	0acH
	DB	0b0H
	DB	0ffH
	DB	0b0H
	DB	0acH
	DB	0b0H
	DB	0ffH
	DB	0a8H
	DB	0acH
	DB	0a8H
	DB	0ffH
	DB	0b0H
	DB	0acH
	DB	0b0H
	DB	0ffH
	DB	0b0H
	DB	0acH
	DB	0b0H
	DB	0ffH
	DB	0a8H
	DB	0acH
	DB	0a8H
	DB	0ffH
	DB	0b0H
	DB	0acH
	DB	0b0H
	DB	0ffH
	DB	0a8H
	DB	0acH
	DB	0a8H
	DB	0ffH
	DB	0b0H
	DB	0acH
	DB	0b0H
	DB	0ffH
	DB	0a8H
	DB	0acH
	DB	0a8H
	DB	0ffH
	DB	0b0H
	DB	0acH
	DB	0b0H
	DB	0ffH
	DB	0a8H
	DB	0acH
	DB	0a8H
	DB	0ffH
	DB	0b0H
	DB	0acH
	DB	0b0H
	DB	0ffH
	DB	0a8H
	DB	0acH
	DB	0a8H
	DB	0ffH
	DB	0a8H
	DB	0acH
	DB	0a8H
	DB	0ffH
	DB	0b0H
	DB	0acH
	DB	0b0H
	DB	0ffH
	DB	0a8H
	DB	0acH
	DB	0a8H
	DB	0ffH
	DB	0a8H
	DB	0acH
	DB	0a8H
	DB	0ffH
	DB	0b0H
	DB	0acH
	DB	0b0H
	DB	0ffH
	DB	0a8H
	DB	0acH
	DB	0a8H
	DB	0ffH
	DB	0a8H
	DB	0acH
	DB	0a8H
	DB	0ffH
	DB	0b0H
	DB	0acH
	DB	0b0H
	DB	0ffH
	DB	0a8H
	DB	0acH
	DB	0a8H
	DB	0ffH
	DB	0a8H
	DB	0acH
	DB	0a8H
	DB	0ffH
	DB	0b0H
	DB	0acH
	DB	0b0H
	DB	0ffH
	DB	0a8H
	DB	0acH
	DB	0a8H
	DB	0ffH
	DB	0b0H
	DB	0acH
	DB	0b0H
	DB	0ffH
	DB	0b0H
	DB	0acH
	DB	0b0H
	DB	0ffH
	DB	0a8H
	DB	0acH
	DB	0a8H
	DB	0ffH
	DB	0a8H
	DB	0acH
	DB	0a8H
	DB	0ffH
	DB	0b0H
	DB	0acH
	DB	0b0H
	DB	0ffH
	DB	0b0H
	DB	0acH
	DB	0b0H
	DB	0ffH
	DB	0a8H
	DB	0acH
	DB	0a8H
	DB	0ffH
	DB	0b0H
	DB	0acH
	DB	0b0H
	DB	0ffH
	DB	0b0H
	DB	0acH
	DB	0b0H
	DB	0ffH
	DB	0a8H
	DB	0acH
	DB	0a8H
	DB	0ffH
	DB	0b0H
	DB	0acH
	DB	0b0H
	DB	0ffH
	DB	0b0H
	DB	0acH
	DB	0b0H
	DB	0ffH
	DB	0a8H
	DB	0acH
	DB	0a8H
	DB	0ffH
	DB	0b0H
	DB	0acH
	DB	0b0H
	DB	0ffH
	DB	0a8H
	DB	0acH
	DB	0a8H
	DB	0ffH
	DB	0b0H
	DB	0acH
	DB	0b0H
	DB	0ffH
	DB	0a8H
	DB	0acH
	DB	0a8H
	DB	0ffH
	DB	0b0H
	DB	0acH
	DB	0b0H
	DB	0ffH
	DB	0a8H
	DB	0acH
	DB	0a8H
	DB	0ffH
	DB	0a8H
	DB	0acH
	DB	0a8H
	DB	0ffH
	DB	0b0H
	DB	0acH
	DB	0b0H
	DB	0ffH
	DB	0a8H
	DB	0acH
	DB	0a8H
	DB	0ffH
	DB	0b0H
	DB	0acH
	DB	0b0H
	DB	0ffH
	DB	0b0H
	DB	0acH
	DB	0b0H
	DB	0ffH
	DB	0a8H
	DB	0acH
	DB	0a8H
	DB	0ffH
	DB	0a8H
	DB	0acH
	DB	0a8H
	DB	0ffH
	DB	0b0H
	DB	0acH
	DB	0b0H
	DB	0ffH
	DB	0a8H
	DB	0acH
	DB	0a8H
	DB	0ffH
	DB	0b0H
	DB	0acH
	DB	0b0H
	DB	0ffH
	DB	0a8H
	DB	0acH
	DB	0a8H
	DB	0ffH
	DB	0a8H
	DB	0acH
	DB	0a8H
	DB	0ffH
	DB	0b0H
	DB	0acH
	DB	0b0H
	DB	0ffH
	DB	0a8H
	DB	0acH
	DB	0a8H
	DB	0ffH
	DB	0b0H
	DB	0acH
	DB	0b0H
	DB	0ffH
	DB	0b0H
	DB	0acH
	DB	0b0H
	DB	0ffH
	DB	0a8H
	DB	0acH
	DB	0a8H
	DB	0ffH
	DB	0b0H
	DB	0acH
	DB	0b0H
	DB	0ffH
	DB	0b0H
	DB	0acH
	DB	0b0H
	DB	0ffH
	DB	0a8H
	DB	0acH
	DB	0a8H
	DB	0ffH
	DB	0b0H
	DB	0acH
	DB	0b0H
	DB	0ffH
	DB	0a8H
	DB	0acH
	DB	0a8H
	DB	0ffH
	DB	0a8H
	DB	0acH
	DB	0a8H
	DB	0ffH
	DB	0b0H
	DB	0acH
	DB	0b0H
	DB	0ffH
	DB	0a8H
	DB	0acH
	DB	0a8H
	DB	0ffH
	DB	0a8H
	DB	0acH
	DB	0a8H
	DB	0ffH
	DB	0a8H
	DB	0acH
	DB	0a8H
	DB	0ffH
	DB	0b0H
	DB	0acH
	DB	0b0H
	DB	0ffH
	DB	0a8H
	DB	0acH
	DB	0a8H
	DB	0ffH
	DB	0a8H
	DB	0acH
	DB	0a8H
	DB	0ffH
	DB	0b0H
	DB	0acH
	DB	0b0H
	DB	0ffH
	DB	0b0H
	DB	0acH
	DB	0b0H
	DB	0ffH
	DB	0a8H
	DB	0acH
	DB	0a8H
	DB	0ffH
	DB	0a8H
	DB	0acH
	DB	0a8H
	DB	0ffH
	DB	0b0H
	DB	0acH
	DB	0b0H
	DB	0ffH
	DB	0a8H
	DB	0acH
	DB	0a8H
	DB	0ffH
	DB	0a8H
	DB	0acH
	DB	0a8H
	DB	0ffH
	DB	0b0H
	DB	0acH
	DB	0b0H
	DB	0ffH
	DB	0a8H
	DB	0acH
	DB	0a8H
	DB	0ffH
	DB	0b0H
	DB	0acH
	DB	0b0H
	DB	0ffH
	DB	0b0H
	DB	0acH
	DB	0b0H
	DB	0ffH
	DB	0a8H
	DB	0acH
	DB	0a8H
	DB	0ffH
	DB	0b0H
	DB	0acH
	DB	0b0H
	DB	0ffH
	DB	0b0H
	DB	0acH
	DB	0b0H
	DB	0ffH
	DB	0a8H
	DB	0acH
	DB	0a8H
	DB	0ffH
	DB	0b0H
	DB	0acH
	DB	0b0H
	DB	0ffH
	DB	0b0H
	DB	0acH
	DB	0b0H
	DB	0ffH
	DB	0a8H
	DB	0acH
	DB	0a8H
	DB	0ffH
	DB	0b0H
	DB	0acH
	DB	0b0H
	DB	0ffH
	DB	0b0H
	DB	0acH
	DB	0b0H
	DB	0ffH
	DB	0a8H
	DB	0acH
	DB	0a8H
	DB	0ffH
	DB	0b0H
	DB	0acH
	DB	0b0H
	DB	0ffH
	DB	0b0H
	DB	0acH
	DB	0b0H
	DB	0ffH
	DB	0a8H
	DB	0acH
	DB	0a8H
	DB	0ffH
	DB	0b0H
	DB	0acH
	DB	0b0H
	DB	0ffH
	DB	0a8H
	DB	0acH
	DB	0a8H
	DB	0ffH
	DB	0b0H
	DB	0acH
	DB	0b0H
	DB	0ffH
	DB	0a8H
	DB	0acH
	DB	0a8H
	DB	0ffH
	DB	0a8H
	DB	0acH
	DB	0a8H
	DB	0ffH
	DB	0b0H
	DB	0acH
	DB	0b0H
	DB	0ffH
	DB	0a8H
	DB	0acH
	DB	0a8H
	DB	0ffH
	DB	0a8H
	DB	0acH
	DB	0a8H
	DB	0ffH
	DB	0b0H
	DB	0acH
	DB	0b0H
	DB	0ffH
	DB	0a8H
	DB	0acH
	DB	0a8H
	DB	0ffH
	DB	0b0H
	DB	0acH
	DB	0b0H
	DB	0ffH
	DB	0a8H
	DB	0acH
	DB	0a8H
	DB	0ffH
	DB	0a8H
	DB	0acH
	DB	0a8H
	DB	0ffH
	DB	0b0H
	DB	0acH
	DB	0b0H
	DB	0ffH
	DB	0a8H
	DB	0acH
	DB	0a8H
	DB	0ffH
	DB	0b0H
	DB	0acH
	DB	0b0H
	DB	0ffH
	DB	0a8H
	DB	0acH
	DB	0a8H
	DB	0ffH
	DB	0a8H
	DB	0acH
	DB	0a8H
	DB	0ffH
	DB	0b0H
	DB	0acH
	DB	0b0H
	DB	0ffH
	DB	0a8H
	DB	0acH
	DB	0a8H
	DB	0ffH
	DB	0b0H
	DB	0acH
	DB	0b0H
	DB	0ffH
	DB	0b0H
	DB	0acH
	DB	0b0H
	DB	0ffH
	DB	0a8H
	DB	0acH
	DB	0a8H
	DB	0ffH
	DB	0b0H
	DB	0acH
	DB	0b0H
	DB	0ffH
	DB	0b0H
	DB	0acH
	DB	0b0H
	DB	0ffH
	DB	0a8H
	DB	0acH
	DB	0a8H
	DB	0ffH
	DB	0b0H
	DB	0acH
	DB	0b0H
	DB	0ffH
	DB	0b0H
	DB	0acH
	DB	0b0H
	DB	0ffH
	DB	0a8H
	DB	0acH
	DB	0a8H
	DB	0ffH
	DB	0a8H
	DB	0acH
	DB	0a8H
	DB	0ffH
	DB	0b0H
	DB	0acH
	DB	0b0H
	DB	0ffH
	DB	0a8H
	DB	0acH
	DB	0a8H
	DB	0ffH
	DB	0a8H
	DB	0acH
	DB	0a8H
	DB	0ffH
	DB	0b0H
	DB	0acH
	DB	0b0H
	DB	0ffH
	DB	0a8H
	DB	0acH
	DB	0a8H
	DB	0ffH
	DB	0a8H
	DB	0acH
	DB	0a8H
	DB	0ffH
	DB	0b0H
	DB	0acH
	DB	0b0H
	DB	0ffH
	DB	0a8H
	DB	0acH
	DB	0a8H
	DB	0ffH
	DB	0b0H
	DB	0acH
	DB	0b0H
	DB	0ffH
	DB	0a8H
	DB	0acH
	DB	0a8H
	DB	0ffH
	DB	0a8H
	DB	0acH
	DB	0a8H
	DB	0ffH
	DB	0b0H
	DB	0acH
	DB	0b0H
	DB	0ffH
	DB	0a8H
	DB	0acH
	DB	0a8H
	DB	0ffH
	DB	0a8H
	DB	0acH
	DB	0a8H
	DB	0ffH
	DB	0b0H
	DB	0acH
	DB	0b0H
	DB	0ffH
	DB	0a8H
	DB	0acH
	DB	0a8H
	DB	0ffH
	DB	0a8H
	DB	0acH
	DB	0a8H
	DB	0ffH
	DB	0b0H
	DB	0acH
	DB	0b0H
	DB	0ffH
	DB	0b0H
	DB	0acH
	DB	0b0H
	DB	0ffH
	DB	0a8H
	DB	0acH
	DB	0a8H
	DB	0ffH
	DB	0b0H
	DB	0acH
	DB	0b0H
	DB	0ffH
	DB	0b0H
	DB	0acH
	DB	0b0H
	DB	0ffH
	DB	0b0H
	DB	0acH
	DB	0b0H
	DB	0ffH
	DB	0a8H
	DB	0acH
	DB	0a8H
	DB	0ffH
	DB	0b0H
	DB	0acH
	DB	0b0H
	DB	0ffH
	DB	0b0H
	DB	0acH
	DB	0b0H
	DB	0ffH
	DB	0a8H
	DB	0acH
	DB	0a8H
	DB	0ffH
	DB	0b0H
	DB	0acH
	DB	0b0H
	DB	0ffH
	DB	0b0H
	DB	0acH
	DB	0b0H
	DB	0ffH
	DB	0a8H
	DB	0acH
	DB	0a8H
	DB	0ffH
	DB	0b0H
	DB	0acH
	DB	0b0H
	DB	0ffH
	DB	0b0H
	DB	0acH
	DB	0b0H
	DB	0ffH
	DB	0a8H
	DB	0acH
	DB	0a8H
	DB	0ffH
	DB	0b0H
	DB	0acH
	DB	0b0H
	DB	0ffH
	DB	0b0H
	DB	0acH
	DB	0b0H
	DB	0ffH
	DB	0a8H
	DB	0acH
	DB	0a8H
	DB	0ffH
	DB	0a8H
	DB	0acH
	DB	0a8H
	DB	0ffH
	DB	0b0H
	DB	0acH
	DB	0b0H
	DB	0ffH
	DB	0a8H
	DB	0acH
	DB	0a8H
	DB	0ffH
	DB	0a8H
	DB	0acH
	DB	0a8H
	DB	0ffH
	DB	0b0H
	DB	0acH
	DB	0b0H
	DB	0ffH
	DB	0a8H
	DB	0acH
	DB	0a8H
	DB	0ffH
	DB	0a8H
	DB	0acH
	DB	0a8H
	DB	0ffH
	DB	0b0H
	DB	0acH
	DB	0b0H
	DB	0ffH
	DB	0a8H
	DB	0acH
	DB	0a8H
	DB	0ffH
	DB	0b0H
	DB	0acH
	DB	0b0H
	DB	0ffH
	DB	0a8H
	DB	0acH
	DB	0a8H
	DB	0ffH
	DB	0a8H
	DB	0acH
	DB	0a8H
	DB	0ffH
	DB	0b0H
	DB	0acH
	DB	0b0H
	DB	0ffH
	DB	0a8H
	DB	0acH
	DB	0a8H
	DB	0ffH
	DB	0a8H
	DB	0acH
	DB	0a8H
	DB	0ffH
	DB	0b0H
	DB	0acH
	DB	0b0H
	DB	0ffH
	DB	0a8H
	DB	0acH
	DB	0a8H
	DB	0ffH
	DB	0a8H
	DB	0acH
	DB	0a8H
	DB	0ffH
	DB	0b0H
	DB	0acH
	DB	0b0H
	DB	0ffH
	DB	0b0H
	DB	0acH
	DB	0b0H
	DB	0ffH
	DB	0b0H
	DB	0acH
	DB	0b0H
	DB	0ffH
	DB	0a8H
	DB	0acH
	DB	0a8H
	DB	0ffH
	DB	0b0H
	DB	0acH
	DB	0b0H
	DB	0ffH
	DB	0b0H
	DB	0acH
	DB	0b0H
	DB	0ffH
	DB	0a8H
	DB	0acH
	DB	0a8H
	DB	0ffH
	DB	0a8H
	DB	0acH
	DB	0a8H
	DB	0ffH
	DB	0a8H
	DB	0acH
	DB	0a8H
	DB	0ffH
	DB	0b0H
	DB	0acH
	DB	0b0H
	DB	0ffH
	DB	0a8H
	DB	0acH
	DB	0a8H
	DB	0ffH
	DB	0b0H
	DB	0acH
	DB	0b0H
	DB	0ffH
	DB	0b0H
	DB	0acH
	DB	0b0H
	DB	0ffH
	DB	0a8H
	DB	0acH
	DB	0a8H
	DB	0ffH
	DB	0b0H
	DB	0acH
	DB	0b0H
	DB	0ffH
	DB	0b0H
	DB	0acH
	DB	0b0H
	DB	0ffH
	DB	0a8H
	DB	0acH
	DB	0a8H
	DB	0ffH
	DB	0b0H
	DB	0acH
	DB	0b0H
	DB	0ffH
	DB	0b0H
	DB	0acH
	DB	0b0H
	DB	0ffH
	DB	0a8H
	DB	0acH
	DB	0a8H
	DB	0ffH
	DB	0a8H
	DB	0acH
	DB	0a8H
	DB	0ffH
	DB	0b0H
	DB	0acH
	DB	0b0H
	DB	0ffH
	DB	0a8H
	DB	0acH
	DB	0a8H
	DB	0ffH
	DB	0a8H
	DB	0acH
	DB	0a8H
	DB	0ffH
	DB	0b0H
	DB	0acH
	DB	0b0H
	DB	0ffH
	DB	0b0H
	DB	0acH
	DB	0b0H
	DB	0ffH
	DB	0a8H
	DB	0acH
	DB	0a8H
	DB	0ffH
	DB	0b0H
	DB	0acH
	DB	0b0H
	DB	0ffH
	DB	0b0H
	DB	0acH
	DB	0b0H
	DB	0ffH
	DB	0a8H
	DB	0acH
	DB	0a8H
	DB	0ffH
	DB	0b0H
	DB	0acH
	DB	0b0H
	DB	0ffH
	DB	0a8H
	DB	0acH
	DB	0a8H
	DB	0ffH
	DB	0a8H
	DB	0acH
	DB	0a8H
	DB	0ffH
	DB	0b0H
	DB	0acH
	DB	0b0H
	DB	0ffH
	DB	0a8H
	DB	0acH
	DB	0a8H
	DB	0ffH
	DB	0a8H
	DB	0acH
	DB	0a8H
	DB	0ffH
	DB	0b0H
	DB	0acH
	DB	0b0H
	DB	0ffH
	DB	0a8H
	DB	0acH
	DB	0a8H
	DB	0ffH
	DB	0b0H
	DB	0acH
	DB	0b0H
	DB	0ffH
	DB	0b0H
	DB	0acH
	DB	0b0H
	DB	0ffH
	DB	0a8H
	DB	0acH
	DB	0a8H
	DB	0ffH
	DB	0a8H
	DB	0acH
	DB	0a8H
	DB	0ffH
	DB	0b0H
	DB	0acH
	DB	0b0H
	DB	0ffH
	DB	0a8H
	DB	0acH
	DB	0a8H
	DB	0ffH
	DB	0a8H
	DB	0acH
	DB	0a8H
	DB	0ffH
	DB	0b0H
	DB	0acH
	DB	0b0H
	DB	0ffH
	DB	0a8H
	DB	0acH
	DB	0a8H
	DB	0ffH
	DB	0b0H
	DB	0acH
	DB	0b0H
	DB	0ffH
	DB	0a8H
	DB	0acH
	DB	0a8H
	DB	0ffH
	DB	0b0H
	DB	0acH
	DB	0b0H
	DB	0ffH
	DB	0a8H
	DB	0acH
	DB	0a8H
	DB	0ffH
	DB	0b0H
	DB	0acH
	DB	0b0H
	DB	0ffH
	DB	0a8H
	DB	0acH
	DB	0a8H
	DB	0ffH
	DB	0b0H
	DB	0acH
	DB	0b0H
	DB	0ffH
	DB	0b0H
	DB	0acH
	DB	0b0H
	DB	0ffH
	DB	0a8H
	DB	0acH
	DB	0a8H
	DB	0ffH
	DB	0b0H
	DB	0acH
	DB	0b0H
	DB	0ffH
	DB	0a8H
	DB	0acH
	DB	0a8H
	DB	0ffH
	DB	0a8H
	DB	0acH
	DB	0a8H
	DB	0ffH
	DB	0b0H
	DB	0acH
	DB	0b0H
	DB	0ffH
	DB	0b0H
	DB	0acH
	DB	0b0H
	DB	0ffH
	DB	0a8H
	DB	0acH
	DB	0a8H
	DB	0ffH
	DB	0b0H
	DB	0acH
	DB	0b0H
	DB	0ffH
	DB	0b0H
	DB	0acH
	DB	0b0H
	DB	0ffH
	DB	0a8H
	DB	0acH
	DB	0a8H
	DB	0ffH
	DB	0b0H
	DB	0acH
	DB	0b0H
	DB	0ffH
	DB	0a8H
	DB	0acH
	DB	0a8H
	DB	0ffH
	DB	0a8H
	DB	0acH
	DB	0a8H
	DB	0ffH
	DB	0a8H
	DB	0acH
	DB	0a8H
	DB	0ffH
	DB	0b0H
	DB	0acH
	DB	0b0H
	DB	0ffH
	DB	0b0H
	DB	0acH
	DB	0b0H
	DB	0ffH
	DB	0a8H
	DB	0acH
	DB	0a8H
	DB	0ffH
	DB	0b0H
	DB	0acH
	DB	0b0H
	DB	0ffH
	DB	0a8H
	DB	0acH
	DB	0a8H
	DB	0ffH
	DB	0a8H
	DB	0acH
	DB	0a8H
	DB	0ffH
	DB	0b0H
	DB	0acH
	DB	0b0H
	DB	0ffH
	DB	0b0H
	DB	0acH
	DB	0b0H
	DB	0ffH
	DB	0a8H
	DB	0acH
	DB	0a8H
	DB	0ffH
	DB	0a8H
	DB	0acH
	DB	0a8H
	DB	0ffH
	DB	0b0H
	DB	0acH
	DB	0b0H
	DB	0ffH
	DB	0a8H
	DB	0acH
	DB	0a8H
	DB	0ffH
	DB	0a8H
	DB	0acH
	DB	0a8H
	DB	0ffH
	DB	0b0H
	DB	0acH
	DB	0b0H
	DB	0ffH
	DB	0a8H
	DB	0acH
	DB	0a8H
	DB	0ffH
	DB	0b0H
	DB	0acH
	DB	0b0H
	DB	0ffH
	DB	0b0H
	DB	0acH
	DB	0b0H
	DB	0ffH
	DB	0a8H
	DB	0acH
	DB	0a8H
	DB	0ffH
	DB	0b0H
	DB	0acH
	DB	0b0H
	DB	0ffH
	DB	0a8H
	DB	0acH
	DB	0a8H
	DB	0ffH
	DB	0b0H
	DB	0acH
	DB	0b0H
	DB	0ffH
	DB	0a8H
	DB	0acH
	DB	0a8H
	DB	0ffH
	DB	0a8H
	DB	0acH
	DB	0a8H
	DB	0ffH
	DB	0b0H
	DB	0acH
	DB	0b0H
	DB	0ffH
	DB	0b0H
	DB	0acH
	DB	0b0H
	DB	0ffH
	DB	0a8H
	DB	0acH
	DB	0a8H
	DB	0ffH
	DB	0a8H
	DB	0acH
	DB	0a8H
	DB	0ffH
	DB	0b0H
	DB	0acH
	DB	0b0H
	DB	0ffH
	DB	0b0H
	DB	0acH
	DB	0b0H
	DB	0ffH
	DB	0a8H
	DB	0acH
	DB	0a8H
	DB	0ffH
	DB	0b0H
	DB	0acH
	DB	0b0H
	DB	0ffH
	DB	0b0H
	DB	0acH
	DB	0b0H
	DB	0ffH
	DB	0a8H
	DB	0acH
	DB	0a8H
	DB	0ffH
	DB	0b0H
	DB	0acH
	DB	0b0H
	DB	0ffH
	DB	0a8H
	DB	0acH
	DB	0a8H
	DB	0ffH
	DB	0a8H
	DB	0acH
	DB	0a8H
	DB	0ffH
	DB	0b0H
	DB	0acH
	DB	0b0H
	DB	0ffH
	DB	0a8H
	DB	0acH
	DB	0a8H
	DB	0ffH
	DB	0b0H
	DB	0acH
	DB	0b0H
	DB	0ffH
	DB	0b0H
	DB	0acH
	DB	0b0H
	DB	0ffH
	DB	0a8H
	DB	0acH
	DB	0a8H
	DB	0ffH
	DB	0b0H
	DB	0acH
	DB	0b0H
	DB	0ffH
	DB	0a8H
	DB	0acH
	DB	0a8H
	DB	0ffH
	DB	0b0H
	DB	0acH
	DB	0b0H
	DB	0ffH
	DB	0b0H
	DB	0acH
	DB	0b0H
	DB	0ffH
	DB	0a8H
	DB	0acH
	DB	0a8H
	DB	0ffH
	DB	0a8H
	DB	0acH
	DB	0a8H
	DB	0ffH
	DB	0b0H
	DB	0acH
	DB	0b0H
	DB	0ffH
	DB	0a8H
	DB	0acH
	DB	0a8H
	DB	0ffH
	DB	0a8H
	DB	0acH
	DB	0a8H
	DB	0ffH
	DB	0b0H
	DB	0acH
	DB	0b0H
	DB	0ffH
	DB	0a8H
	DB	0acH
	DB	0a8H
	DB	0ffH
	DB	0b0H
	DB	0acH
	DB	0b0H
	DB	0ffH
	DB	0b0H
	DB	0acH
	DB	0b0H
	DB	0ffH
	DB	0a8H
	DB	0acH
	DB	0a8H
	DB	0ffH
	DB	0b0H
	DB	0acH
	DB	0b0H
	DB	0ffH
	DB	0a8H
	DB	0acH
	DB	0a8H
	DB	0ffH
	DB	0a8H
	DB	0acH
	DB	0a8H
	DB	0ffH
	DB	0b0H
	DB	0acH
	DB	0b0H
	DB	0ffH
	DB	0a8H
	DB	0acH
	DB	0a8H
	DB	0ffH
	DB	0b0H
	DB	0acH
	DB	0b0H
	DB	0ffH
	DB	0a8H
	DB	0acH
	DB	0a8H
	DB	0ffH
	DB	0b0H
	DB	0acH
	DB	0b0H
	DB	0ffH
	DB	0a8H
	DB	0acH
	DB	0a8H
	DB	0ffH
	DB	0a8H
	DB	0acH
	DB	0a8H
	DB	0ffH
	DB	0b0H
	DB	0acH
	DB	0b0H
	DB	0ffH
	DB	0b0H
	DB	0acH
	DB	0b0H
	DB	0ffH
	DB	0a8H
	DB	0acH
	DB	0a8H
	DB	0ffH
	DB	0b0H
	DB	0acH
	DB	0b0H
	DB	0ffH
	DB	0b0H
	DB	0acH
	DB	0b0H
	DB	0ffH
	DB	0a8H
	DB	0acH
	DB	0a8H
	DB	0ffH
	DB	0a8H
	DB	0acH
	DB	0a8H
	DB	0ffH
	DB	0b0H
	DB	0acH
	DB	0b0H
	DB	0ffH
	DB	0a8H
	DB	0acH
	DB	0a8H
	DB	0ffH
	DB	0b0H
	DB	0acH
	DB	0b0H
	DB	0ffH
	DB	0b0H
	DB	0acH
	DB	0b0H
	DB	0ffH
	DB	0a8H
	DB	0acH
	DB	0a8H
	DB	0ffH
	DB	0b0H
	DB	0acH
	DB	0b0H
	DB	0ffH
	DB	0a8H
	DB	0acH
	DB	0a8H
	DB	0ffH
	DB	0a8H
	DB	0acH
	DB	0a8H
	DB	0ffH
	DB	0b0H
	DB	0acH
	DB	0b0H
	DB	0ffH
	DB	0b0H
	DB	0acH
	DB	0b0H
	DB	0ffH
	DB	0a8H
	DB	0acH
	DB	0a8H
	DB	0ffH
	DB	0b0H
	DB	0acH
	DB	0b0H
	DB	0ffH
	DB	0a8H
	DB	0acH
	DB	0a8H
	DB	0ffH
	DB	0b0H
	DB	0acH
	DB	0b0H
	DB	0ffH
	DB	0a8H
	DB	0acH
	DB	0a8H
	DB	0ffH
	DB	0a8H
	DB	0acH
	DB	0a8H
	DB	0ffH
	DB	0b0H
	DB	0acH
	DB	0b0H
	DB	0ffH
	DB	0b0H
	DB	0acH
	DB	0b0H
	DB	0ffH
	DB	0a8H
	DB	0acH
	DB	0a8H
	DB	0ffH
	DB	0b0H
	DB	0acH
	DB	0b0H
	DB	0ffH
	DB	0a8H
	DB	0acH
	DB	0a8H
	DB	0ffH
	DB	0a8H
	DB	0acH
	DB	0a8H
	DB	0ffH
	DB	0b0H
	DB	0acH
	DB	0b0H
	DB	0ffH
	DB	0a8H
	DB	0acH
	DB	0a8H
	DB	0ffH
	DB	0b0H
	DB	0acH
	DB	0b0H
	DB	0ffH
	DB	0b0H
	DB	0acH
	DB	0b0H
	DB	0ffH
	DB	0a8H
	DB	0acH
	DB	0a8H
	DB	0ffH
	DB	0a8H
	DB	0acH
	DB	0a8H
	DB	0ffH
	DB	0b0H
	DB	0acH
	DB	0b0H
	DB	0ffH
	DB	0a8H
	DB	0acH
	DB	0a8H
	DB	0ffH
	DB	0a8H
	DB	0acH
	DB	0a8H
	DB	0ffH
	DB	0b0H
	DB	0acH
	DB	0b0H
	DB	0ffH
	DB	0b0H
	DB	0acH
	DB	0b0H
	DB	0ffH
	DB	0a8H
	DB	0acH
	DB	0a8H
	DB	0ffH
	DB	0b0H
	DB	0acH
	DB	0b0H
	DB	0ffH
	DB	0a8H
	DB	0acH
	DB	0a8H
	DB	0ffH
	DB	0a8H
	DB	0acH
	DB	0a8H
	DB	0ffH
	DB	0b0H
	DB	0acH
	DB	0b0H
	DB	0ffH
	DB	0a8H
	DB	0acH
	DB	0a8H
	DB	0ffH
	DB	0b0H
	DB	0acH
	DB	0b0H
	DB	0ffH
	DB	0b0H
	DB	0acH
	DB	0b0H
	DB	0ffH
	DB	0a8H
	DB	0acH
	DB	0a8H
	DB	0ffH
	DB	0a8H
	DB	0acH
	DB	0a8H
	DB	0ffH
	DB	0b0H
	DB	0acH
	DB	0b0H
	DB	0ffH
	DB	0a8H
	DB	0acH
	DB	0a8H
	DB	0ffH
	DB	0a8H
	DB	0acH
	DB	0a8H
	DB	0ffH
	DB	0b0H
	DB	0acH
	DB	0b0H
	DB	0ffH
	DB	0b0H
	DB	0acH
	DB	0b0H
	DB	0ffH
	DB	0a8H
	DB	0acH
	DB	0a8H
	DB	0ffH
	DB	0b0H
	DB	0acH
	DB	0b0H
	DB	0ffH
	DB	0a8H
	DB	0acH
	DB	0a8H
	DB	0ffH
	DB	0a8H
	DB	0acH
	DB	0a8H
	DB	0ffH
	DB	0b0H
	DB	0acH
	DB	0b0H
	DB	0ffH
	DB	0a8H
	DB	0acH
	DB	0a8H
	DB	0ffH
	DB	0b0H
	DB	0acH
	DB	0b0H
	DB	0ffH
	DB	0b0H
	DB	0acH
	DB	0b0H
	DB	0ffH
	DB	0a8H
	DB	0acH
	DB	0a8H
	DB	0ffH
	DB	0b0H
	DB	0acH
	DB	0b0H
	DB	0ffH
	DB	0a8H
	DB	0acH
	DB	0a8H
	DB	0ffH
	DB	0a8H
	DB	0acH
	DB	0a8H
	DB	0ffH
	DB	0b0H
	DB	0acH
	DB	0b0H
	DB	0ffH
	DB	0b0H
	DB	0acH
	DB	0b0H
	DB	0ffH
	DB	0a8H
	DB	0acH
	DB	0a8H
	DB	0ffH
	DB	0b0H
	DB	0acH
	DB	0b0H
	DB	0ffH
	DB	0a8H
	DB	0acH
	DB	0a8H
	DB	0ffH
	DB	0b0H
	DB	0acH
	DB	0b0H
	DB	0ffH
	DB	0a8H
	DB	0acH
	DB	0a8H
	DB	0ffH
	DB	0a8H
	DB	0acH
	DB	0a8H
	DB	0ffH
	DB	0b0H
	DB	0acH
	DB	0b0H
	DB	0ffH
	DB	0b0H
	DB	0acH
	DB	0b0H
	DB	0ffH
	DB	0a8H
	DB	0acH
	DB	0a8H
	DB	0ffH
	DB	0b0H
	DB	0acH
	DB	0b0H
	DB	0ffH
	DB	0a8H
	DB	0acH
	DB	0a8H
	DB	0ffH
	DB	0b0H
	DB	0acH
	DB	0b0H
	DB	0ffH
	DB	0a8H
	DB	0acH
	DB	0a8H
	DB	0ffH
	DB	0b0H
	DB	0acH
	DB	0b0H
	DB	0ffH
	DB	0a8H
	DB	0acH
	DB	0a8H
	DB	0ffH
	DB	0b0H
	DB	0acH
	DB	0b0H
	DB	0ffH
	DB	0b0H
	DB	0acH
	DB	0b0H
	DB	0ffH
	DB	0a8H
	DB	0acH
	DB	0a8H
	DB	0ffH
	DB	0a8H
	DB	0acH
	DB	0a8H
	DB	0ffH
	DB	0b0H
	DB	0acH
	DB	0b0H
	DB	0ffH
	DB	0b0H
	DB	0acH
	DB	0b0H
	DB	0ffH
	DB	0a8H
	DB	0acH
	DB	0a8H
	DB	0ffH
	DB	0b0H
	DB	0acH
	DB	0b0H
	DB	0ffH
	DB	0b0H
	DB	0acH
	DB	0b0H
	DB	0ffH
	DB	0a8H
	DB	0acH
	DB	0a8H
	DB	0ffH
	DB	0a8H
	DB	0acH
	DB	0a8H
	DB	0ffH
	DB	0b0H
	DB	0acH
	DB	0b0H
	DB	0ffH
	DB	0a8H
	DB	0acH
	DB	0a8H
	DB	0ffH
	DB	0b0H
	DB	0acH
	DB	0b0H
	DB	0ffH
	DB	0b0H
	DB	0acH
	DB	0b0H
	DB	0ffH
	DB	0a8H
	DB	0acH
	DB	0a8H
	DB	0ffH
	DB	0a8H
	DB	0acH
	DB	0a8H
	DB	0ffH
	DB	0b0H
	DB	0acH
	DB	0b0H
	DB	0ffH
	DB	0a8H
	DB	0acH
	DB	0a8H
	DB	0ffH
	DB	0a8H
	DB	0acH
	DB	0a8H
	DB	0ffH
	DB	0b0H
	DB	0acH
	DB	0b0H
	DB	0ffH
	DB	0b0H
	DB	0acH
	DB	0b0H
	DB	0ffH
	DB	0a8H
	DB	0acH
	DB	0a8H
	DB	0ffH
	DB	0a8H
	DB	0acH
	DB	0a8H
	DB	0ffH
	DB	0b0H
	DB	0acH
	DB	0b0H
	DB	0ffH
	DB	0a8H
	DB	0acH
	DB	0a8H
	DB	0ffH
	DB	0a8H
	DB	0acH
	DB	0a8H
	DB	0ffH
	DB	0b0H
	DB	0acH
	DB	0b0H
	DB	0ffH
	DB	0a8H
	DB	0acH
	DB	0a8H
	DB	0ffH
	DB	0b0H
	DB	0acH
	DB	0b0H
	DB	0ffH
	DB	0b0H
	DB	0acH
	DB	0b0H
	DB	0ffH
	DB	0a8H
	DB	0acH
	DB	0a8H
	DB	0ffH
	DB	0a8H
	DB	0acH
	DB	0a8H
	DB	0ffH
	DB	0b0H
	DB	0acH
	DB	0b0H
	DB	0ffH
	DB	0a8H
	DB	0acH
	DB	0a8H
	DB	0ffH
	DB	0b0H
	DB	0acH
	DB	0b0H
	DB	0ffH
	DB	0b0H
	DB	0acH
	DB	0b0H
	DB	0ffH
	DB	0a8H
	DB	0acH
	DB	0a8H
	DB	0ffH
	DB	0b0H
	DB	0acH
	DB	0b0H
	DB	0ffH
	DB	0a8H
	DB	0acH
	DB	0a8H
	DB	0ffH
	DB	0a8H
	DB	0acH
	DB	0a8H
	DB	0ffH
	DB	0b0H
	DB	0acH
	DB	0b0H
	DB	0ffH
	DB	0b0H
	DB	0acH
	DB	0b0H
	DB	0ffH
	DB	0a8H
	DB	0acH
	DB	0a8H
	DB	0ffH
	DB	0b0H
	DB	0acH
	DB	0b0H
	DB	0ffH
	DB	0a8H
	DB	0acH
	DB	0a8H
	DB	0ffH
	DB	0b0H
	DB	0acH
	DB	0b0H
	DB	0ffH
	DB	0a8H
	DB	0acH
	DB	0a8H
	DB	0ffH
	DB	0a8H
	DB	0acH
	DB	0a8H
	DB	0ffH
	DB	0b0H
	DB	0acH
	DB	0b0H
	DB	0ffH
	DB	0a8H
	DB	0acH
	DB	0a8H
	DB	0ffH
	DB	0b0H
	DB	0acH
	DB	0b0H
	DB	0ffH
	DB	0b0H
	DB	0acH
	DB	0b0H
	DB	0ffH
	DB	0a8H
	DB	0acH
	DB	0a8H
	DB	0ffH
	DB	0a8H
	DB	0acH
	DB	0a8H
	DB	0ffH
	DB	0b0H
	DB	0acH
	DB	0b0H
	DB	0ffH
	DB	0a8H
	DB	0acH
	DB	0a8H
	DB	0ffH
	DB	0b0H
	DB	0acH
	DB	0b0H
	DB	0ffH
	DB	0b0H
	DB	0acH
	DB	0b0H
	DB	0ffH
	DB	0b0H
	DB	0acH
	DB	0b0H
	DB	0ffH
	DB	0a8H
	DB	0acH
	DB	0a8H
	DB	0ffH
	DB	0a8H
	DB	0acH
	DB	0a8H
	DB	0ffH
	DB	0b0H
	DB	0acH
	DB	0b0H
	DB	0ffH
	DB	0b0H
	DB	0acH
	DB	0b0H
	DB	0ffH
	DB	0a8H
	DB	0acH
	DB	0a8H
	DB	0ffH
	DB	0b0H
	DB	0acH
	DB	0b0H
	DB	0ffH
	DB	0b0H
	DB	0acH
	DB	0b0H
	DB	0ffH
	DB	0a8H
	DB	0acH
	DB	0a8H
	DB	0ffH
	DB	0b0H
	DB	0acH
	DB	0b0H
	DB	0ffH
	DB	0a8H
	DB	0acH
	DB	0a8H
	DB	0ffH
	DB	0a8H
	DB	0acH
	DB	0a8H
	DB	0ffH
	DB	0b0H
	DB	0acH
	DB	0b0H
	DB	0ffH
	DB	0a8H
	DB	0acH
	DB	0a8H
	DB	0ffH
	DB	0b0H
	DB	0acH
	DB	0b0H
	DB	0ffH
	DB	0b0H
	DB	0acH
	DB	0b0H
	DB	0ffH
	DB	0a8H
	DB	0acH
	DB	0a8H
	DB	0ffH
	DB	0a8H
	DB	0acH
	DB	0a8H
	DB	0ffH
	DB	0a8H
	DB	0acH
	DB	0a8H
	DB	0ffH
	DB	0b0H
	DB	0acH
	DB	0b0H
	DB	0ffH
	DB	0a8H
	DB	0acH
	DB	0a8H
	DB	0ffH
	DB	0b0H
	DB	0acH
	DB	0b0H
	DB	0ffH
	DB	0a8H
	DB	0acH
	DB	0a8H
	DB	0ffH
	DB	0a8H
	DB	0acH
	DB	0a8H
	DB	0ffH
	DB	0b0H
	DB	0acH
	DB	0b0H
	DB	0ffH
	DB	0a8H
	DB	0acH
	DB	0a8H
	DB	0ffH
	DB	0a8H
	DB	0acH
	DB	0a8H
	DB	0ffH
	DB	0b0H
	DB	0acH
	DB	0b0H
	DB	0ffH
	DB	0b0H
	DB	0acH
	DB	0b0H
	DB	0ffH
	DB	0a8H
	DB	0acH
	DB	0a8H
	DB	0ffH
	DB	0b0H
	DB	0acH
	DB	0b0H
	DB	0ffH
	DB	0b0H
	DB	0acH
	DB	0b0H
	DB	0ffH
	DB	0a8H
	DB	0acH
	DB	0a8H
	DB	0ffH
	DB	0a8H
	DB	0acH
	DB	0a8H
	DB	0ffH
	DB	0b0H
	DB	0acH
	DB	0b0H
	DB	0ffH
	DB	0a8H
	DB	0acH
	DB	0a8H
	DB	0ffH
	DB	0b0H
	DB	0acH
	DB	0b0H
	DB	0ffH
	DB	0b0H
	DB	0acH
	DB	0b0H
	DB	0ffH
	DB	0a8H
	DB	0acH
	DB	0a8H
	DB	0ffH
	DB	0a8H
	DB	0acH
	DB	0a8H
	DB	0ffH
	DB	0b0H
	DB	0acH
	DB	0b0H
	DB	0ffH
	DB	0b0H
	DB	0acH
	DB	0b0H
	DB	0ffH
	DB	0a8H
	DB	0acH
	DB	0a8H
	DB	0ffH
	DB	0b0H
	DB	0acH
	DB	0b0H
	DB	0ffH
	DB	0b0H
	DB	0acH
	DB	0b0H
	DB	0ffH
	DB	0a8H
	DB	0acH
	DB	0a8H
	DB	0ffH
	DB	0a8H
	DB	0acH
	DB	0a8H
	DB	0ffH
	DB	0b0H
	DB	0acH
	DB	0b0H
	DB	0ffH
	DB	0a8H
	DB	0acH
	DB	0a8H
	DB	0ffH
	DB	0a8H
	DB	0acH
	DB	0a8H
	DB	0ffH
	DB	0b0H
	DB	0acH
	DB	0b0H
	DB	0ffH
	DB	0a8H
	DB	0acH
	DB	0a8H
	DB	0ffH
	DB	0b0H
	DB	0acH
	DB	0b0H
	DB	0ffH
	DB	0b0H
	DB	0acH
	DB	0b0H
	DB	0ffH
	DB	0a8H
	DB	0acH
	DB	0a8H
	DB	0ffH
	DB	0a8H
	DB	0acH
	DB	0a8H
	DB	0ffH
	DB	0b0H
	DB	0acH
	DB	0b0H
	DB	0ffH
	DB	0b0H
	DB	0acH
	DB	0b0H
	DB	0ffH
	DB	0a8H
	DB	0acH
	DB	0a8H
	DB	0ffH
	DB	0b0H
	DB	0acH
	DB	0b0H
	DB	0ffH
	DB	0a8H
	DB	0acH
	DB	0a8H
	DB	0ffH
	DB	0a8H
	DB	0acH
	DB	0a8H
	DB	0ffH
	DB	0b0H
	DB	0acH
	DB	0b0H
	DB	0ffH
	DB	0a8H
	DB	0acH
	DB	0a8H
	DB	0ffH
	DB	0b0H
	DB	0acH
	DB	0b0H
	DB	0ffH
	DB	0b0H
	DB	0acH
	DB	0b0H
	DB	0ffH
	DB	0a8H
	DB	0acH
	DB	0a8H
	DB	0ffH
	DB	0b0H
	DB	0acH
	DB	0b0H
	DB	0ffH
	DB	0a8H
	DB	0acH
	DB	0a8H
	DB	0ffH
	DB	0b0H
	DB	0acH
	DB	0b0H
	DB	0ffH
	DB	0a8H
	DB	0acH
	DB	0a8H
	DB	0ffH
	DB	0a8H
	DB	0acH
	DB	0a8H
	DB	0ffH
	DB	0b0H
	DB	0acH
	DB	0b0H
	DB	0ffH
	DB	0b0H
	DB	0acH
	DB	0b0H
	DB	0ffH
	DB	0a8H
	DB	0acH
	DB	0a8H
	DB	0ffH
	DB	0b0H
	DB	0acH
	DB	0b0H
	DB	0ffH
	DB	0a8H
	DB	0acH
	DB	0a8H
	DB	0ffH
	DB	0a8H
	DB	0acH
	DB	0a8H
	DB	0ffH
	DB	0b0H
	DB	0acH
	DB	0b0H
	DB	0ffH
	DB	0b0H
	DB	0acH
	DB	0b0H
	DB	0ffH
	DB	0a8H
	DB	0acH
	DB	0a8H
	DB	0ffH
	DB	0b0H
	DB	0acH
	DB	0b0H
	DB	0ffH
	DB	0a8H
	DB	0acH
	DB	0a8H
	DB	0ffH
	DB	0a8H
	DB	0acH
	DB	0a8H
	DB	0ffH
	DB	0b0H
	DB	0acH
	DB	0b0H
	DB	0ffH
	DB	0a8H
	DB	0acH
	DB	0a8H
	DB	0ffH
	DB	0b0H
	DB	0acH
	DB	0b0H
	DB	0ffH
	DB	0a8H
	DB	0acH
	DB	0a8H
	DB	0ffH
	DB	0b0H
	DB	0acH
	DB	0b0H
	DB	0ffH
	DB	0b0H
	DB	0acH
	DB	0b0H
	DB	0ffH
	DB	0a8H
	DB	0acH
	DB	0a8H
	DB	0ffH
	DB	0a8H
	DB	0acH
	DB	0a8H
	DB	0ffH
	DB	0a8H
	DB	0acH
	DB	0a8H
	DB	0ffH
	DB	0b0H
	DB	0acH
	DB	0b0H
	DB	0ffH
	DB	0a8H
	DB	0acH
	DB	0a8H
	DB	0ffH
	DB	0b0H
	DB	0acH
	DB	0b0H
	DB	0ffH
	DB	0b0H
	DB	0acH
	DB	0b0H
	DB	0ffH
	DB	0a8H
	DB	0acH
	DB	0a8H
	DB	0ffH
	DB	0a8H
	DB	0acH
	DB	0a8H
	DB	0ffH
	DB	0b0H
	DB	0acH
	DB	0b0H
	DB	0ffH
	DB	0b0H
	DB	0acH
	DB	0b0H
	DB	0ffH
	DB	0a8H
	DB	0acH
	DB	0a8H
	DB	0ffH
	DB	0b0H
	DB	0acH
	DB	0b0H
	DB	0ffH
	DB	0b0H
	DB	0acH
	DB	0b0H
	DB	0ffH
	DB	0a8H
	DB	0acH
	DB	0a8H
	DB	0ffH
	DB	0a8H
	DB	0acH
	DB	0a8H
	DB	0ffH
	DB	0b0H
	DB	0acH
	DB	0b0H
	DB	0ffH
	DB	0a8H
	DB	0acH
	DB	0a8H
	DB	0ffH
	DB	0a8H
	DB	0acH
	DB	0a8H
	DB	0ffH
	DB	0b0H
	DB	0acH
	DB	0b0H
	DB	0ffH
	DB	0a8H
	DB	0acH
	DB	0a8H
	DB	0ffH
	DB	0b0H
	DB	0acH
	DB	0b0H
	DB	0ffH
	DB	0a8H
	DB	0acH
	DB	0a8H
	DB	0ffH
	DB	0a8H
	DB	0acH
	DB	0a8H
	DB	0ffH
	DB	0b0H
	DB	0acH
	DB	0b0H
	DB	0ffH
	DB	0a8H
	DB	0acH
	DB	0a8H
	DB	0ffH
	DB	0b0H
	DB	0acH
	DB	0b0H
	DB	0ffH
	DB	0a8H
	DB	0acH
	DB	0a8H
	DB	0ffH
	DB	0b0H
	DB	0acH
	DB	0b0H
	DB	0ffH
	DB	0a8H
	DB	0acH
	DB	0a8H
	DB	0ffH
	DB	0a8H
	DB	0acH
	DB	0a8H
	DB	0ffH
	DB	0b0H
	DB	0acH
	DB	0b0H
	DB	0ffH
	DB	0a8H
	DB	0acH
	DB	0a8H
	DB	0ffH
	DB	0b0H
	DB	0acH
	DB	0b0H
	DB	0ffH
	DB	0a8H
	DB	0acH
	DB	0a8H
	DB	0ffH
	DB	0b0H
	DB	0acH
	DB	0b0H
	DB	0ffH
	DB	0b0H
	DB	0acH
	DB	0b0H
	DB	0ffH
	DB	0a8H
	DB	0acH
	DB	0a8H
	DB	0ffH
	DB	0b0H
	DB	0acH
	DB	0b0H
	DB	0ffH
	DB	0b0H
	DB	0acH
	DB	0b0H
	DB	0ffH
	DB	0a8H
	DB	0acH
	DB	0a8H
	DB	0ffH
	DB	0b0H
	DB	0acH
	DB	0b0H
	DB	0ffH
	DB	0b0H
	DB	0acH
	DB	0b0H
	DB	0ffH
	DB	0a8H
	DB	0acH
	DB	0a8H
	DB	0ffH
	DB	0b0H
	DB	0acH
	DB	0b0H
	DB	0ffH
	DB	0a8H
	DB	0acH
	DB	0a8H
	DB	0ffH
	DB	0a8H
	DB	0acH
	DB	0a8H
	DB	0ffH
	DB	0b0H
	DB	0acH
	DB	0b0H
	DB	0ffH
	DB	0b0H
	DB	0acH
	DB	0b0H
	DB	0ffH
	DB	0a8H
	DB	0acH
	DB	0a8H
	DB	0ffH
	DB	0b0H
	DB	0acH
	DB	0b0H
	DB	0ffH
	DB	0a8H
	DB	0acH
	DB	0a8H
	DB	0ffH
	DB	0b0H
	DB	0acH
	DB	0b0H
	DB	0ffH
	DB	0a8H
	DB	0acH
	DB	0a8H
	DB	0ffH
	DB	0b0H
	DB	0acH
	DB	0b0H
	DB	0ffH
	DB	0a8H
	DB	0acH
	DB	0a8H
	DB	0ffH
	DB	0a8H
	DB	0acH
	DB	0a8H
	DB	0ffH
	DB	0b0H
	DB	0acH
	DB	0b0H
	DB	0ffH
	DB	0a8H
	DB	0acH
	DB	0a8H
	DB	0ffH
	DB	0b0H
	DB	0acH
	DB	0b0H
	DB	0ffH
	DB	0a8H
	DB	0acH
	DB	0a8H
	DB	0ffH
	DB	0a8H
	DB	0acH
	DB	0a8H
	DB	0ffH
	DB	0a8H
	DB	0acH
	DB	0a8H
	DB	0ffH
	DB	0b0H
	DB	0acH
	DB	0b0H
	DB	0ffH
	DB	0b0H
	DB	0acH
	DB	0b0H
	DB	0ffH
	DB	0a8H
	DB	0acH
	DB	0a8H
	DB	0ffH
	DB	0b0H
	DB	0acH
	DB	0b0H
	DB	0ffH
	DB	0a8H
	DB	0acH
	DB	0a8H
	DB	0ffH
	DB	0a8H
	DB	0acH
	DB	0a8H
	DB	0ffH
	DB	0b0H
	DB	0acH
	DB	0b0H
	DB	0ffH
	DB	0b0H
	DB	0acH
	DB	0b0H
	DB	0ffH
	DB	0a8H
	DB	0acH
	DB	0a8H
	DB	0ffH
	DB	0a8H
	DB	0acH
	DB	0a8H
	DB	0ffH
	DB	0b0H
	DB	0acH
	DB	0b0H
	DB	0ffH
	DB	0b0H
	DB	0acH
	DB	0b0H
	DB	0ffH
	DB	0a8H
	DB	0acH
	DB	0a8H
	DB	0ffH
	DB	0b0H
	DB	0acH
	DB	0b0H
	DB	0ffH
	DB	0a8H
	DB	0acH
	DB	0a8H
	DB	0ffH
	DB	0b0H
	DB	0acH
	DB	0b0H
	DB	0ffH
	DB	0a8H
	DB	0acH
	DB	0a8H
	DB	0ffH
	DB	0b0H
	DB	0acH
	DB	0b0H
	DB	0ffH
	DB	0a8H
	DB	0acH
	DB	0a8H
	DB	0ffH
	DB	0b0H
	DB	0acH
	DB	0b0H
	DB	0ffH
	DB	0a8H
	DB	0acH
	DB	0a8H
	DB	0ffH
	DB	0a8H
	DB	0acH
	DB	0a8H
	DB	0ffH
	DB	0b0H
	DB	0acH
	DB	0b0H
	DB	0ffH
	DB	0b0H
	DB	0acH
	DB	0b0H
	DB	0ffH
	DB	0a8H
	DB	0acH
	DB	0a8H
	DB	0ffH
	DB	0b0H
	DB	0acH
	DB	0b0H
	DB	0ffH
	DB	0a8H
	DB	0acH
	DB	0a8H
	DB	0ffH
	DB	0a8H
	DB	0acH
	DB	0a8H
	DB	0ffH
	DB	0b0H
	DB	0acH
	DB	0b0H
	DB	0ffH
	DB	0b0H
	DB	0acH
	DB	0b0H
	DB	0ffH
	DB	0a8H
	DB	0acH
	DB	0a8H
	DB	0ffH
	DB	0a8H
	DB	0acH
	DB	0a8H
	DB	0ffH
	DB	0b0H
	DB	0acH
	DB	0b0H
	DB	0ffH
	DB	0b0H
	DB	0acH
	DB	0b0H
	DB	0ffH
	DB	0a8H
	DB	0acH
	DB	0a8H
	DB	0ffH
	DB	0a8H
	DB	0acH
	DB	0a8H
	DB	0ffH
	DB	0b0H
	DB	0acH
	DB	0b0H
	DB	0ffH
	DB	0a8H
	DB	0acH
	DB	0a8H
	DB	0ffH
	DB	0b0H
	DB	0acH
	DB	0b0H
	DB	0ffH
	DB	0b0H
	DB	0acH
	DB	0b0H
	DB	0ffH
	DB	0a8H
	DB	0acH
	DB	0a8H
	DB	0ffH
	DB	0b0H
	DB	0acH
	DB	0b0H
	DB	0ffH
	DB	0a8H
	DB	0acH
	DB	0a8H
	DB	0ffH
	DB	0a8H
	DB	0acH
	DB	0a8H
	DB	0ffH
	DB	0b0H
	DB	0acH
	DB	0b0H
	DB	0ffH
	DB	0b0H
	DB	0acH
	DB	0b0H
	DB	0ffH
	DB	0a8H
	DB	0acH
	DB	0a8H
	DB	0ffH
	DB	0b0H
	DB	0acH
	DB	0b0H
	DB	0ffH
	DB	0b0H
	DB	0acH
	DB	0b0H
	DB	0ffH
	DB	0a8H
	DB	0acH
	DB	0a8H
	DB	0ffH
	DB	0a8H
	DB	0acH
	DB	0a8H
	DB	0ffH
	DB	0b0H
	DB	0acH
	DB	0b0H
	DB	0ffH
	DB	0a8H
	DB	0acH
	DB	0a8H
	DB	0ffH
	DB	0b0H
	DB	0acH
	DB	0b0H
	DB	0ffH
	DB	0b0H
	DB	0acH
	DB	0b0H
	DB	0ffH
	DB	0a8H
	DB	0acH
	DB	0a8H
	DB	0ffH
	DB	0b0H
	DB	0acH
	DB	0b0H
	DB	0ffH
	DB	0a8H
	DB	0acH
	DB	0a8H
	DB	0ffH
	DB	0a8H
	DB	0acH
	DB	0a8H
	DB	0ffH
	DB	0a8H
	DB	0acH
	DB	0a8H
	DB	0ffH
	DB	0b0H
	DB	0acH
	DB	0b0H
	DB	0ffH
	DB	0b0H
	DB	0acH
	DB	0b0H
	DB	0ffH
	DB	0a8H
	DB	0acH
	DB	0a8H
	DB	0ffH
	DB	0b0H
	DB	0acH
	DB	0b0H
	DB	0ffH
	DB	0a8H
	DB	0acH
	DB	0a8H
	DB	0ffH
	DB	0a8H
	DB	0acH
	DB	0a8H
	DB	0ffH
	DB	0b0H
	DB	0acH
	DB	0b0H
	DB	0ffH
	DB	0a8H
	DB	0acH
	DB	0a8H
	DB	0ffH
	DB	0a8H
	DB	0acH
	DB	0a8H
	DB	0ffH
	DB	0b0H
	DB	0acH
	DB	0b0H
	DB	0ffH
	DB	0b0H
	DB	0acH
	DB	0b0H
	DB	0ffH
	DB	0a8H
	DB	0acH
	DB	0a8H
	DB	0ffH
	DB	0a8H
	DB	0acH
	DB	0a8H
	DB	0ffH
	DB	0b0H
	DB	0acH
	DB	0b0H
	DB	0ffH
	DB	0a8H
	DB	0acH
	DB	0a8H
	DB	0ffH
	DB	0b0H
	DB	0acH
	DB	0b0H
	DB	0ffH
	DB	0b0H
	DB	0acH
	DB	0b0H
	DB	0ffH
	DB	0a8H
	DB	0acH
	DB	0a8H
	DB	0ffH
	DB	0a8H
	DB	0acH
	DB	0a8H
	DB	0ffH
	DB	0b0H
	DB	0acH
	DB	0b0H
	DB	0ffH
	DB	0a8H
	DB	0acH
	DB	0a8H
	DB	0ffH
	DB	0a8H
	DB	0acH
	DB	0a8H
	DB	0ffH
	DB	0b0H
	DB	0acH
	DB	0b0H
	DB	0ffH
	DB	0b0H
	DB	0acH
	DB	0b0H
	DB	0ffH
	DB	0a8H
	DB	0acH
	DB	0a8H
	DB	0ffH
	DB	0b0H
	DB	0acH
	DB	0b0H
	DB	0ffH
	DB	0b0H
	DB	0acH
	DB	0b0H
	DB	0ffH
	DB	0a8H
	DB	0acH
	DB	0a8H
	DB	0ffH
	DB	0a8H
	DB	0acH
	DB	0a8H
	DB	0ffH
	DB	0b0H
	DB	0acH
	DB	0b0H
	DB	0ffH
	DB	0b0H
	DB	0acH
	DB	0b0H
	DB	0ffH
	DB	0a8H
	DB	0acH
	DB	0a8H
	DB	0ffH
	DB	0b0H
	DB	0acH
	DB	0b0H
	DB	0ffH
	DB	0a8H
	DB	0acH
	DB	0a8H
	DB	0ffH
	DB	0a8H
	DB	0acH
	DB	0a8H
	DB	0ffH
	DB	0b0H
	DB	0acH
	DB	0b0H
	DB	0ffH
	DB	0a8H
	DB	0acH
	DB	0a8H
	DB	0ffH
	DB	0b0H
	DB	0acH
	DB	0b0H
	DB	0ffH
	DB	0b0H
	DB	0acH
	DB	0b0H
	DB	0ffH
	DB	0b0H
	DB	0acH
	DB	0b0H
	DB	0ffH
	DB	0a8H
	DB	0acH
	DB	0a8H
	DB	0ffH
	DB	0b0H
	DB	0acH
	DB	0b0H
	DB	0ffH
	DB	0a8H
	DB	0acH
	DB	0a8H
	DB	0ffH
	DB	0a8H
	DB	0acH
	DB	0a8H
	DB	0ffH
	DB	0b0H
	DB	0acH
	DB	0b0H
	DB	0ffH
	DB	0a8H
	DB	0acH
	DB	0a8H
	DB	0ffH
	DB	0b0H
	DB	0acH
	DB	0b0H
	DB	0ffH
	DB	0b0H
	DB	0acH
	DB	0b0H
	DB	0ffH
	DB	0a8H
	DB	0acH
	DB	0a8H
	DB	0ffH
	DB	0b0H
	DB	0acH
	DB	0b0H
	DB	0ffH
	DB	0a8H
	DB	0acH
	DB	0a8H
	DB	0ffH
	DB	0b0H
	DB	0acH
	DB	0b0H
	DB	0ffH
	DB	0b0H
	DB	0acH
	DB	0b0H
	DB	0ffH
	DB	0a8H
	DB	0acH
	DB	0a8H
	DB	0ffH
	DB	0b0H
	DB	0acH
	DB	0b0H
	DB	0ffH
	DB	0a8H
	DB	0acH
	DB	0a8H
	DB	0ffH
	DB	0a8H
	DB	0acH
	DB	0a8H
	DB	0ffH
	DB	0b0H
	DB	0acH
	DB	0b0H
	DB	0ffH
	DB	0a8H
	DB	0acH
	DB	0a8H
	DB	0ffH
	DB	0a8H
	DB	0acH
	DB	0a8H
	DB	0ffH
	DB	0b0H
	DB	0acH
	DB	0b0H
	DB	0ffH
	DB	0b0H
	DB	0acH
	DB	0b0H
	DB	0ffH
	DB	0a8H
	DB	0acH
	DB	0a8H
	DB	0ffH
	DB	0b0H
	DB	0acH
	DB	0b0H
	DB	0ffH
	DB	0b0H
	DB	0acH
	DB	0b0H
	DB	0ffH
	DB	0a8H
	DB	0acH
	DB	0a8H
	DB	0ffH
	DB	0a8H
	DB	0acH
	DB	0a8H
	DB	0ffH
	DB	0b0H
	DB	0acH
	DB	0b0H
	DB	0ffH
	DB	0a8H
	DB	0acH
	DB	0a8H
	DB	0ffH
	DB	0a8H
	DB	0acH
	DB	0a8H
	DB	0ffH
	DB	0b0H
	DB	0acH
	DB	0b0H
	DB	0ffH
	DB	0a8H
	DB	0acH
	DB	0a8H
	DB	0ffH
	DB	0a8H
	DB	0acH
	DB	0a8H
	DB	0ffH
	DB	0b0H
	DB	0acH
	DB	0b0H
	DB	0ffH
	DB	0b0H
	DB	0acH
	DB	0b0H
	DB	0ffH
	DB	0a8H
	DB	0acH
	DB	0a8H
	DB	0ffH
	DB	0b0H
	DB	0acH
	DB	0b0H
	DB	0ffH
	DB	0a8H
	DB	0acH
	DB	0a8H
	DB	0ffH
	DB	0a8H
	DB	0acH
	DB	0a8H
	DB	0ffH
	DB	0b0H
	DB	0acH
	DB	0b0H
	DB	0ffH
	DB	0a8H
	DB	0acH
	DB	0a8H
	DB	0ffH
	DB	0a8H
	DB	0acH
	DB	0a8H
	DB	0ffH
	DB	0b0H
	DB	0acH
	DB	0b0H
	DB	0ffH
	DB	0a8H
	DB	0acH
	DB	0a8H
	DB	0ffH
	DB	0b0H
	DB	0acH
	DB	0b0H
	DB	0ffH
	DB	0a8H
	DB	0acH
	DB	0a8H
	DB	0ffH
	DB	0b0H
	DB	0acH
	DB	0b0H
	DB	0ffH
	DB	0b0H
	DB	0acH
	DB	0b0H
	DB	0ffH
	DB	0a8H
	DB	0acH
	DB	0a8H
	DB	0ffH
	DB	0b0H
	DB	0acH
	DB	0b0H
	DB	0ffH
	DB	0b0H
	DB	0acH
	DB	0b0H
	DB	0ffH
	DB	0a8H
	DB	0acH
	DB	0a8H
	DB	0ffH
	DB	0a8H
	DB	0acH
	DB	0a8H
	DB	0ffH
	DB	0b0H
	DB	0acH
	DB	0b0H
	DB	0ffH
	DB	0a8H
	DB	0acH
	DB	0a8H
	DB	0ffH
	DB	0b0H
	DB	0acH
	DB	0b0H
	DB	0ffH
	DB	0b0H
	DB	0acH
	DB	0b0H
	DB	0ffH
	DB	0a8H
	DB	0acH
	DB	0a8H
	DB	0ffH
	DB	0b0H
	DB	0acH
	DB	0b0H
	DB	0ffH
	DB	0b0H
	DB	0acH
	DB	0b0H
	DB	0ffH
	DB	0a8H
	DB	0acH
	DB	0a8H
	DB	0ffH
	DB	0b0H
	DB	0acH
	DB	0b0H
	DB	0ffH
	DB	0a8H
	DB	0acH
	DB	0a8H
	DB	0ffH
	DB	0b0H
	DB	0acH
	DB	0b0H
	DB	0ffH
	DB	0a8H
	DB	0acH
	DB	0a8H
	DB	0ffH
	DB	0a8H
	DB	0acH
	DB	0a8H
	DB	0ffH
	DB	0b0H
	DB	0acH
	DB	0b0H
	DB	0ffH
	DB	0a8H
	DB	0acH
	DB	0a8H
	DB	0ffH
	DB	0a8H
	DB	0acH
	DB	0a8H
	DB	0ffH
	DB	0b0H
	DB	0acH
	DB	0b0H
	DB	0ffH
	DB	0a8H
	DB	0acH
	DB	0a8H
	DB	0ffH
	DB	0b0H
	DB	0acH
	DB	0b0H
	DB	0ffH
	DB	0b0H
	DB	0acH
	DB	0b0H
	DB	0ffH
	DB	0a8H
	DB	0acH
	DB	0a8H
	DB	0ffH
	DB	0a8H
	DB	0acH
	DB	0a8H
	DB	0ffH
	DB	0b0H
	DB	0acH
	DB	0b0H
	DB	0ffH
	DB	0a8H
	DB	0acH
	DB	0a8H
	DB	0ffH
	DB	0b0H
	DB	0acH
	DB	0b0H
	DB	0ffH
	DB	0a8H
	DB	0acH
	DB	0a8H
	DB	0ffH
	DB	0a8H
	DB	0acH
	DB	0a8H
	DB	0ffH
	DB	0b0H
	DB	0acH
	DB	0b0H
	DB	0ffH
	DB	0b0H
	DB	0acH
	DB	0b0H
	DB	0ffH
	DB	0a8H
	DB	0acH
	DB	0a8H
	DB	0ffH
	DB	0b0H
	DB	0acH
	DB	0b0H
	DB	0ffH
	DB	0b0H
	DB	0acH
	DB	0b0H
	DB	0ffH
	DB	0a8H
	DB	0acH
	DB	0a8H
	DB	0ffH
	DB	0b0H
	DB	0acH
	DB	0b0H
	DB	0ffH
	DB	0a8H
	DB	0acH
	DB	0a8H
	DB	0ffH
	DB	0b0H
	DB	0acH
	DB	0b0H
	DB	0ffH
	DB	0a8H
	DB	0acH
	DB	0a8H
	DB	0ffH
	DB	0a8H
	DB	0acH
	DB	0a8H
	DB	0ffH
	DB	0b0H
	DB	0acH
	DB	0b0H
	DB	0ffH
	DB	0b0H
	DB	0acH
	DB	0b0H
	DB	0ffH
	DB	0a8H
	DB	0acH
	DB	0a8H
	DB	0ffH
	DB	0b0H
	DB	0acH
	DB	0b0H
	DB	0ffH
	DB	0a8H
	DB	0acH
	DB	0a8H
	DB	0ffH
	DB	0a8H
	DB	0acH
	DB	0a8H
	DB	0ffH
	DB	0b0H
	DB	0acH
	DB	0b0H
	DB	0ffH
	DB	0a8H
	DB	0acH
	DB	0a8H
	DB	0ffH
	DB	0b0H
	DB	0acH
	DB	0b0H
	DB	0ffH
	DB	0a8H
	DB	0acH
	DB	0a8H
	DB	0ffH
	DB	0a8H
	DB	0acH
	DB	0a8H
	DB	0ffH
	DB	0b0H
	DB	0acH
	DB	0b0H
	DB	0ffH
	DB	0a8H
	DB	0acH
	DB	0a8H
	DB	0ffH
	DB	0a8H
	DB	0acH
	DB	0a8H
	DB	0ffH
	DB	0b0H
	DB	0acH
	DB	0b0H
	DB	0ffH
	DB	0b0H
	DB	0acH
	DB	0b0H
	DB	0ffH
	DB	0a8H
	DB	0acH
	DB	0a8H
	DB	0ffH
	DB	0b0H
	DB	0acH
	DB	0b0H
	DB	0ffH
	DB	0b0H
	DB	0acH
	DB	0b0H
	DB	0ffH
	DB	0a8H
	DB	0acH
	DB	0a8H
	DB	0ffH
	DB	0a8H
	DB	0acH
	DB	0a8H
	DB	0ffH
	DB	0b0H
	DB	0acH
	DB	0b0H
	DB	0ffH
	DB	0a8H
	DB	0acH
	DB	0a8H
	DB	0ffH
	DB	0b0H
	DB	0acH
	DB	0b0H
	DB	0ffH
	DB	0b0H
	DB	0acH
	DB	0b0H
	DB	0ffH
	DB	0a8H
	DB	0acH
	DB	0a8H
	DB	0ffH
	DB	0a8H
	DB	0acH
	DB	0a8H
	DB	0ffH
	DB	0b0H
	DB	0acH
	DB	0b0H
	DB	0ffH
	DB	0b0H
	DB	0acH
	DB	0b0H
	DB	0ffH
	DB	0a8H
	DB	0acH
	DB	0a8H
	DB	0ffH
	DB	0b0H
	DB	0acH
	DB	0b0H
	DB	0ffH
	DB	0b0H
	DB	0acH
	DB	0b0H
	DB	0ffH
	DB	0a8H
	DB	0acH
	DB	0a8H
	DB	0ffH
	DB	0a8H
	DB	0acH
	DB	0a8H
	DB	0ffH
	DB	0b0H
	DB	0acH
	DB	0b0H
	DB	0ffH
	DB	0a8H
	DB	0acH
	DB	0a8H
	DB	0ffH
	DB	0a8H
	DB	0acH
	DB	0a8H
	DB	0ffH
	DB	0b0H
	DB	0acH
	DB	0b0H
	DB	0ffH
	DB	0b0H
	DB	0acH
	DB	0b0H
	DB	0ffH
	DB	0a8H
	DB	0acH
	DB	0a8H
	DB	0ffH
	DB	0b0H
	DB	0acH
	DB	0b0H
	DB	0ffH
	DB	0a8H
	DB	0acH
	DB	0a8H
	DB	0ffH
	DB	0a8H
	DB	0acH
	DB	0a8H
	DB	0ffH
	DB	0b0H
	DB	0acH
	DB	0b0H
	DB	0ffH
	DB	0b0H
	DB	0acH
	DB	0b0H
	DB	0ffH
	DB	0a8H
	DB	0acH
	DB	0a8H
	DB	0ffH
	DB	0b0H
	DB	0acH
	DB	0b0H
	DB	0ffH
	DB	0a8H
	DB	0acH
	DB	0a8H
	DB	0ffH
	DB	0a8H
	DB	0acH
	DB	0a8H
	DB	0ffH
	DB	0b0H
	DB	0acH
	DB	0b0H
	DB	0ffH
	DB	0a8H
	DB	0acH
	DB	0a8H
	DB	0ffH
	DB	0b0H
	DB	0acH
	DB	0b0H
	DB	0ffH
	DB	0b0H
	DB	0acH
	DB	0b0H
	DB	0ffH
	DB	0a8H
	DB	0acH
	DB	0a8H
	DB	0ffH
	DB	0b0H
	DB	0acH
	DB	0b0H
	DB	0ffH
	DB	0b0H
	DB	0acH
	DB	0b0H
	DB	0ffH
	DB	0a8H
	DB	0acH
	DB	0a8H
	DB	0ffH
	DB	0a8H
	DB	0acH
	DB	0a8H
	DB	0ffH
	DB	0b0H
	DB	0acH
	DB	0b0H
	DB	0ffH
	DB	0a8H
	DB	0acH
	DB	0a8H
	DB	0ffH
	DB	0b0H
	DB	0acH
	DB	0b0H
	DB	0ffH
	DB	0b0H
	DB	0acH
	DB	0b0H
	DB	0ffH
	DB	0a8H
	DB	0acH
	DB	0a8H
	DB	0ffH
	DB	0a8H
	DB	0acH
	DB	0a8H
	DB	0ffH
	DB	0b0H
	DB	0acH
	DB	0b0H
	DB	0ffH
	DB	0a8H
	DB	0acH
	DB	0a8H
	DB	0ffH
	DB	0b0H
	DB	0acH
	DB	0b0H
	DB	0ffH
	DB	0a8H
	DB	0acH
	DB	0a8H
	DB	0ffH
	DB	0b0H
	DB	0acH
	DB	0b0H
	DB	0ffH
	DB	0b0H
	DB	0acH
	DB	0b0H
	DB	0ffH
	DB	0a8H
	DB	0acH
	DB	0a8H
	DB	0ffH
	DB	0a8H
	DB	0acH
	DB	0a8H
	DB	0ffH
	DB	0b0H
	DB	0acH
	DB	0b0H
	DB	0ffH
	DB	0a8H
	DB	0acH
	DB	0a8H
	DB	0ffH
	DB	0a8H
	DB	0acH
	DB	0a8H
	DB	0ffH
	DB	0b0H
	DB	0acH
	DB	0b0H
	DB	0ffH
	DB	0b0H
	DB	0acH
	DB	0b0H
	DB	0ffH
	DB	0a8H
	DB	0acH
	DB	0a8H
	DB	0ffH
	DB	0a8H
	DB	0acH
	DB	0a8H
	DB	0ffH
	DB	0b0H
	DB	0acH
	DB	0b0H
	DB	0ffH
	DB	0a8H
	DB	0acH
	DB	0a8H
	DB	0ffH
	DB	0b0H
	DB	0acH
	DB	0b0H
	DB	0ffH
	DB	0b0H
	DB	0acH
	DB	0b0H
	DB	0ffH
	DB	0a8H
	DB	0acH
	DB	0a8H
	DB	0ffH
	DB	0a8H
	DB	0acH
	DB	0a8H
	DB	0ffH
	DB	0b0H
	DB	0acH
	DB	0b0H
	DB	0ffH
	DB	0a8H
	DB	0acH
	DB	0a8H
	DB	0ffH
	DB	0b0H
	DB	0acH
	DB	0b0H
	DB	0ffH
	DB	0a8H
	DB	0acH
	DB	0a8H
	DB	0ffH
	DB	0b0H
	DB	0acH
	DB	0b0H
	DB	0ffH
	DB	0a8H
	DB	0acH
	DB	0a8H
	DB	0ffH
	DB	0b0H
	DB	0acH
	DB	0b0H
	DB	0ffH
	DB	0b0H
	DB	0acH
	DB	0b0H
	DB	0ffH
	DB	0a8H
	DB	0acH
	DB	0a8H
	DB	0ffH
	DB	0a8H
	DB	0acH
	DB	0a8H
	DB	0ffH
	DB	0b0H
	DB	0acH
	DB	0b0H
	DB	0ffH
	DB	0b0H
	DB	0acH
	DB	0b0H
	DB	0ffH
	DB	0a8H
	DB	0acH
	DB	0a8H
	DB	0ffH
	DB	0b0H
	DB	0acH
	DB	0b0H
	DB	0ffH
	DB	0b0H
	DB	0acH
	DB	0b0H
	DB	0ffH
	DB	0a8H
	DB	0acH
	DB	0a8H
	DB	0ffH
	DB	0a8H
	DB	0acH
	DB	0a8H
	DB	0ffH
	DB	0b0H
	DB	0acH
	DB	0b0H
	DB	0ffH
	DB	0b0H
	DB	0acH
	DB	0b0H
	DB	0ffH
	DB	0a8H
	DB	0acH
	DB	0a8H
	DB	0ffH
	DB	0b0H
	DB	0acH
	DB	0b0H
	DB	0ffH
	DB	0a8H
	DB	0acH
	DB	0a8H
	DB	0ffH
	DB	0a8H
	DB	0acH
	DB	0a8H
	DB	0ffH
	DB	0b0H
	DB	0acH
	DB	0b0H
	DB	0ffH
	DB	0a8H
	DB	0acH
	DB	0a8H
	DB	0ffH
	DB	0a8H
	DB	0acH
	DB	0a8H
	DB	0ffH
	DB	0b0H
	DB	0acH
	DB	0b0H
	DB	0ffH
	DB	0a8H
	DB	0acH
	DB	0a8H
	DB	0ffH
	DB	0b0H
	DB	0acH
	DB	0b0H
	DB	0ffH
	DB	0b0H
	DB	0acH
	DB	0b0H
	DB	0ffH
	DB	0a8H
	DB	0acH
	DB	0a8H
	DB	0ffH
	DB	0a8H
	DB	0acH
	DB	0a8H
	DB	0ffH
	DB	0b0H
	DB	0acH
	DB	0b0H
	DB	0ffH
	DB	0a8H
	DB	0acH
	DB	0a8H
	DB	0ffH
	DB	0b0H
	DB	0acH
	DB	0b0H
	DB	0ffH
	DB	0a8H
	DB	0acH
	DB	0a8H
	DB	0ffH
	DB	0a8H
	DB	0acH
	DB	0a8H
	DB	0ffH
	DB	0b0H
	DB	0acH
	DB	0b0H
	DB	0ffH
	DB	0a8H
	DB	0acH
	DB	0a8H
	DB	0ffH
	DB	0b0H
	DB	0acH
	DB	0b0H
	DB	0ffH
	DB	0b0H
	DB	0acH
	DB	0b0H
	DB	0ffH
	DB	0a8H
	DB	0acH
	DB	0a8H
	DB	0ffH
	DB	0a8H
	DB	0acH
	DB	0a8H
	DB	0ffH
	DB	0b0H
	DB	0acH
	DB	0b0H
	DB	0ffH
	DB	0b0H
	DB	0acH
	DB	0b0H
	DB	0ffH
	DB	0a8H
	DB	0acH
	DB	0a8H
	DB	0ffH
	DB	0a8H
	DB	0acH
	DB	0a8H
	DB	0ffH
	DB	0b0H
	DB	0acH
	DB	0b0H
	DB	0ffH
	DB	0a8H
	DB	0acH
	DB	0a8H
	DB	0ffH
	DB	0b0H
	DB	0acH
	DB	0b0H
	DB	0ffH
	DB	0a8H
	DB	0acH
	DB	0a8H
	DB	0ffH
	DB	0b0H
	DB	0acH
	DB	0b0H
	DB	0ffH
	DB	0a8H
	DB	0acH
	DB	0a8H
	DB	0ffH
	DB	0a8H
	DB	0acH
	DB	0a8H
	DB	0ffH
	DB	0b0H
	DB	0acH
	DB	0b0H
	DB	0ffH
	DB	0b0H
	DB	0acH
	DB	0b0H
	DB	0ffH
	DB	0a8H
	DB	0acH
	DB	0a8H
	DB	0ffH
	DB	0b0H
	DB	0acH
	DB	0b0H
	DB	0ffH
	DB	0a8H
	DB	0acH
	DB	0a8H
	DB	0ffH
	DB	0a8H
	DB	0acH
	DB	0a8H
	DB	0ffH
	DB	0b0H
	DB	0acH
	DB	0b0H
	DB	0ffH
	DB	0a8H
	DB	0acH
	DB	0a8H
	DB	0ffH
	DB	0a8H
	DB	0acH
	DB	0a8H
	DB	0ffH
	DB	0b0H
	DB	0acH
	DB	0b0H
	DB	0ffH
	DB	0b0H
	DB	0acH
	DB	0b0H
	DB	0ffH
	DB	0a8H
	DB	0acH
	DB	0a8H
	DB	0ffH
	DB	0b0H
	DB	0acH
	DB	0b0H
	DB	0ffH
	DB	0b0H
	DB	0acH
	DB	0b0H
	DB	0ffH
	DB	0a8H
	DB	0acH
	DB	0a8H
	DB	0ffH
	DB	0a8H
	DB	0acH
	DB	0a8H
	DB	0ffH
	DB	0b0H
	DB	0acH
	DB	0b0H
	DB	0ffH
	DB	0b0H
	DB	0acH
	DB	0b0H
	DB	0ffH
	DB	0a8H
	DB	0acH
	DB	0a8H
	DB	0ffH
	DB	0b0H
	DB	0acH
	DB	0b0H
	DB	0ffH
	DB	0b0H
	DB	0acH
	DB	0b0H
	DB	0ffH
	DB	0a8H
	DB	0acH
	DB	0a8H
	DB	0ffH
	DB	0b0H
	DB	0acH
	DB	0b0H
	DB	0ffH
	DB	0b0H
	DB	0acH
	DB	0b0H
	DB	0ffH
	DB	0a8H
	DB	0acH
	DB	0a8H
	DB	0ffH
	DB	0b0H
	DB	0acH
	DB	0b0H
	DB	0ffH
	DB	0a8H
	DB	0acH
	DB	0a8H
	DB	0ffH
	DB	0b0H
	DB	0acH
	DB	0b0H
	DB	0ffH
	DB	0a8H
	DB	0acH
	DB	0a8H
	DB	0ffH
	DB	0a8H
	DB	0acH
	DB	0a8H
	DB	0ffH
	DB	0b0H
	DB	0acH
	DB	0b0H
	DB	0ffH
	DB	0a8H
	DB	0acH
	DB	0a8H
	DB	0ffH
	DB	0a8H
	DB	0acH
	DB	0a8H
	DB	0ffH
	DB	0b0H
	DB	0acH
	DB	0b0H
	DB	0ffH
	DB	0b0H
	DB	0acH
	DB	0b0H
	DB	0ffH
	DB	0a8H
	DB	0acH
	DB	0a8H
	DB	0ffH
	DB	0b0H
	DB	0acH
	DB	0b0H
	DB	0ffH
	DB	0a8H
	DB	0acH
	DB	0a8H
	DB	0ffH
	DB	0a8H
	DB	0acH
	DB	0a8H
	DB	0ffH
	DB	0b0H
	DB	0acH
	DB	0b0H
	DB	0ffH
	DB	0a8H
	DB	0acH
	DB	0a8H
	DB	0ffH
	DB	0a8H
	DB	0acH
	DB	0a8H
	DB	0ffH
	DB	0b0H
	DB	0acH
	DB	0b0H
	DB	0ffH
	DB	0a8H
	DB	0acH
	DB	0a8H
	DB	0ffH
	DB	0b0H
	DB	0acH
	DB	0b0H
	DB	0ffH
	DB	0a8H
	DB	0acH
	DB	0a8H
	DB	0ffH
	DB	0b0H
	DB	0acH
	DB	0b0H
	DB	0ffH
	DB	0a8H
	DB	0acH
	DB	0a8H
	DB	0ffH
	DB	0b0H
	DB	0acH
	DB	0b0H
	DB	0ffH
	DB	0a8H
	DB	0acH
	DB	0a8H
	DB	0ffH
	DB	0b0H
	DB	0acH
	DB	0b0H
	DB	0ffH
	DB	0b0H
	DB	0acH
	DB	0b0H
	DB	0ffH
	DB	0a8H
	DB	0acH
	DB	0a8H
	DB	0ffH
	DB	0a8H
	DB	0acH
	DB	0a8H
	DB	0ffH
	DB	0b0H
	DB	0acH
	DB	0b0H
	DB	0ffH
	DB	0a8H
	DB	0acH
	DB	0a8H
	DB	0ffH
	DB	0b0H
	DB	0acH
	DB	0b0H
	DB	0ffH
	DB	0b0H
	DB	0acH
	DB	0b0H
	DB	0ffH
	DB	0a8H
	DB	0acH
	DB	0a8H
	DB	0ffH
	DB	0b0H
	DB	0acH
	DB	0b0H
	DB	0ffH
	DB	0a8H
	DB	0acH
	DB	0a8H
	DB	0ffH
	DB	0b0H
	DB	0acH
	DB	0b0H
	DB	0ffH
	DB	0a8H
	DB	0acH
	DB	0a8H
	DB	0ffH
	DB	0a8H
	DB	0acH
	DB	0a8H
	DB	0ffH
	DB	0b0H
	DB	0acH
	DB	0b0H
	DB	0ffH
	DB	0b0H
	DB	0acH
	DB	0b0H
	DB	0ffH
	DB	0a8H
	DB	0acH
	DB	0a8H
	DB	0ffH
	DB	0b0H
	DB	0acH
	DB	0b0H
	DB	0ffH
	DB	0a8H
	DB	0acH
	DB	0a8H
	DB	0ffH
	DB	0b0H
	DB	0acH
	DB	0b0H
	DB	0ffH
	DB	0a8H
	DB	0acH
	DB	0a8H
	DB	0ffH
	DB	0b0H
	DB	0acH
	DB	0b0H
	DB	0ffH
	DB	0b0H
	DB	0acH
	DB	0b0H
	DB	0ffH
	DB	0a8H
	DB	0acH
	DB	0a8H
	DB	0ffH
	DB	0a8H
	DB	0acH
	DB	0a8H
	DB	0ffH
	DB	0b0H
	DB	0acH
	DB	0b0H
	DB	0ffH
	DB	0a8H
	DB	0acH
	DB	0a8H
	DB	0ffH
	DB	0a8H
	DB	0acH
	DB	0a8H
	DB	0ffH
	DB	0b0H
	DB	0acH
	DB	0b0H
	DB	0ffH
	DB	0a8H
	DB	0acH
	DB	0a8H
	DB	0ffH
	DB	0b0H
	DB	0acH
	DB	0b0H
	DB	0ffH
	DB	0b0H
	DB	0acH
	DB	0b0H
	DB	0ffH
	DB	0a8H
	DB	0acH
	DB	0a8H
	DB	0ffH
	DB	0b0H
	DB	0acH
	DB	0b0H
	DB	0ffH
	DB	0a8H
	DB	0acH
	DB	0a8H
	DB	0ffH
	DB	0a8H
	DB	0acH
	DB	0a8H
	DB	0ffH
	DB	0b0H
	DB	0acH
	DB	0b0H
	DB	0ffH
	DB	0a8H
	DB	0acH
	DB	0a8H
	DB	0ffH
	DB	0b0H
	DB	0acH
	DB	0b0H
	DB	0ffH
	DB	0a8H
	DB	0acH
	DB	0a8H
	DB	0ffH
	DB	0a8H
	DB	0acH
	DB	0a8H
	DB	0ffH
	DB	0b0H
	DB	0acH
	DB	0b0H
	DB	0ffH
	DB	0a8H
	DB	0acH
	DB	0a8H
	DB	0ffH
	DB	0b0H
	DB	0acH
	DB	0b0H
	DB	0ffH
	DB	0b0H
	DB	0acH
	DB	0b0H
	DB	0ffH
	DB	0a8H
	DB	0acH
	DB	0a8H
	DB	0ffH
	DB	0b0H
	DB	0acH
	DB	0b0H
	DB	0ffH
	DB	0b0H
	DB	0acH
	DB	0b0H
	DB	0ffH
	DB	0a8H
	DB	0acH
	DB	0a8H
	DB	0ffH
	DB	0a8H
	DB	0acH
	DB	0a8H
	DB	0ffH
	DB	0b0H
	DB	0acH
	DB	0b0H
	DB	0ffH
	DB	0a8H
	DB	0acH
	DB	0a8H
	DB	0ffH
	DB	0b0H
	DB	0acH
	DB	0b0H
	DB	0ffH
	DB	0b0H
	DB	0acH
	DB	0b0H
	DB	0ffH
	DB	0a8H
	DB	0acH
	DB	0a8H
	DB	0ffH
	DB	0b0H
	DB	0acH
	DB	0b0H
	DB	0ffH
	DB	0a8H
	DB	0acH
	DB	0a8H
	DB	0ffH
	DB	0b0H
	DB	0acH
	DB	0b0H
	DB	0ffH
	DB	0b0H
	DB	0acH
	DB	0b0H
	DB	0ffH
	DB	0a8H
	DB	0acH
	DB	0a8H
	DB	0ffH
	DB	0b0H
	DB	0acH
	DB	0b0H
	DB	0ffH
	DB	0a8H
	DB	0acH
	DB	0a8H
	DB	0ffH
	DB	0a8H
	DB	0acH
	DB	0a8H
	DB	0ffH
	DB	0b0H
	DB	0acH
	DB	0b0H
	DB	0ffH
	DB	0a8H
	DB	0acH
	DB	0a8H
	DB	0ffH
	DB	0a8H
	DB	0acH
	DB	0a8H
	DB	0ffH
	DB	0b0H
	DB	0acH
	DB	0b0H
	DB	0ffH
	DB	0b0H
	DB	0acH
	DB	0b0H
	DB	0ffH
	DB	0a8H
	DB	0acH
	DB	0a8H
	DB	0ffH
	DB	0b0H
	DB	0acH
	DB	0b0H
	DB	0ffH
	DB	0a8H
	DB	0acH
	DB	0a8H
	DB	0ffH
	DB	0a8H
	DB	0acH
	DB	0a8H
	DB	0ffH
	DB	0b0H
	DB	0acH
	DB	0b0H
	DB	0ffH
	DB	0a8H
	DB	0acH
	DB	0a8H
	DB	0ffH
	DB	0b0H
	DB	0acH
	DB	0b0H
	DB	0ffH
	DB	0a8H
	DB	0acH
	DB	0a8H
	DB	0ffH
	DB	0b0H
	DB	0acH
	DB	0b0H
	DB	0ffH
	DB	0a8H
	DB	0acH
	DB	0a8H
	DB	0ffH
	DB	0a8H
	DB	0acH
	DB	0a8H
	DB	0ffH
	DB	0b0H
	DB	0acH
	DB	0b0H
	DB	0ffH
	DB	0b0H
	DB	0acH
	DB	0b0H
	DB	0ffH
	DB	0a8H
	DB	0acH
	DB	0a8H
	DB	0ffH
	DB	0b0H
	DB	0acH
	DB	0b0H
	DB	0ffH
	DB	0b0H
	DB	0acH
	DB	0b0H
	DB	0ffH
	DB	0a8H
	DB	0acH
	DB	0a8H
	DB	0ffH
	DB	0b0H
	DB	0acH
	DB	0b0H
	DB	0ffH
	DB	0a8H
	DB	0acH
	DB	0a8H
	DB	0ffH
	DB	0a8H
	DB	0acH
	DB	0a8H
	DB	0ffH
	DB	0b0H
	DB	0acH
	DB	0b0H
	DB	0ffH
	DB	0b0H
	DB	0acH
	DB	0b0H
	DB	0ffH
	DB	0a8H
	DB	0acH
	DB	0a8H
	DB	0ffH
	DB	0b0H
	DB	0acH
	DB	0b0H
	DB	0ffH
	DB	0a8H
	DB	0acH
	DB	0a8H
	DB	0ffH
	DB	0a8H
	DB	0acH
	DB	0a8H
	DB	0ffH
	DB	0b0H
	DB	0acH
	DB	0b0H
	DB	0ffH
	DB	0a8H
	DB	0acH
	DB	0a8H
	DB	0ffH
	DB	0b0H
	DB	0acH
	DB	0b0H
	DB	0ffH
	DB	0a8H
	DB	0acH
	DB	0a8H
	DB	0ffH
	DB	0a8H
	DB	0acH
	DB	0a8H
	DB	0ffH
	DB	0b0H
	DB	0acH
	DB	0b0H
	DB	0ffH
	DB	0a8H
	DB	0acH
	DB	0a8H
	DB	0ffH
	DB	0a8H
	DB	0acH
	DB	0a8H
	DB	0ffH
	DB	0b0H
	DB	0acH
	DB	0b0H
	DB	0ffH
	DB	0a8H
	DB	0acH
	DB	0a8H
	DB	0ffH
	DB	0b0H
	DB	0acH
	DB	0b0H
	DB	0ffH
	DB	0b0H
	DB	0acH
	DB	0b0H
	DB	0ffH
	DB	0a8H
	DB	0acH
	DB	0a8H
	DB	0ffH
	DB	0a8H
	DB	0acH
	DB	0a8H
	DB	0ffH
	DB	0b0H
	DB	0acH
	DB	0b0H
	DB	0ffH
	DB	0a8H
	DB	0acH
	DB	0a8H
	DB	0ffH
	DB	0b0H
	DB	0acH
	DB	0b0H
	DB	0ffH
	DB	0b0H
	DB	0acH
	DB	0b0H
	DB	0ffH
	DB	0a8H
	DB	0acH
	DB	0a8H
	DB	0ffH
	DB	0b0H
	DB	0acH
	DB	0b0H
	DB	0ffH
	DB	0b0H
	DB	0acH
	DB	0b0H
	DB	0ffH
	DB	0a8H
	DB	0acH
	DB	0a8H
	DB	0ffH
	DB	0b0H
	DB	0acH
	DB	0b0H
	DB	0ffH
	DB	0b0H
	DB	0acH
	DB	0b0H
	DB	0ffH
	DB	0b0H
	DB	0acH
	DB	0b0H
	DB	0ffH
	DB	0a8H
	DB	0acH
	DB	0a8H
	DB	0ffH
	DB	0b0H
	DB	0acH
	DB	0b0H
	DB	0ffH
	DB	0b0H
	DB	0acH
	DB	0b0H
	DB	0ffH
	DB	0a8H
	DB	0acH
	DB	0a8H
	DB	0ffH
	DB	0a8H
	DB	0acH
	DB	0a8H
	DB	0ffH
	DB	0b0H
	DB	0acH
	DB	0b0H
	DB	0ffH
	DB	0a8H
	DB	0acH
	DB	0a8H
	DB	0ffH
	DB	0b0H
	DB	0acH
	DB	0b0H
	DB	0ffH
	DB	0b0H
	DB	0acH
	DB	0b0H
	DB	0ffH
	DB	0a8H
	DB	0acH
	DB	0a8H
	DB	0ffH
	DB	0a8H
	DB	0acH
	DB	0a8H
	DB	0ffH
	DB	0b0H
	DB	0acH
	DB	0b0H
	DB	0ffH
	DB	0a8H
	DB	0acH
	DB	0a8H
	DB	0ffH
	DB	0a8H
	DB	0acH
	DB	0a8H
	DB	0ffH
	DB	0b0H
	DB	0acH
	DB	0b0H
	DB	0ffH
	DB	0a8H
	DB	0acH
	DB	0a8H
	DB	0ffH
	DB	0a8H
	DB	0acH
	DB	0a8H
	DB	0ffH
	DB	0b0H
	DB	0acH
	DB	0b0H
	DB	0ffH
	DB	0a8H
	DB	0acH
	DB	0a8H
	DB	0ffH
	DB	0a8H
	DB	0acH
	DB	0a8H
	DB	0ffH
	DB	0a8H
	DB	0acH
	DB	0a8H
	DB	0ffH
	DB	0b0H
	DB	0acH
	DB	0b0H
	DB	0ffH
	DB	0b0H
	DB	0acH
	DB	0b0H
	DB	0ffH
	DB	0a8H
	DB	0acH
	DB	0a8H
	DB	0ffH
	DB	0b0H
	DB	0acH
	DB	0b0H
	DB	0ffH
	DB	0a8H
	DB	0acH
	DB	0a8H
	DB	0ffH
	DB	0a8H
	DB	0acH
	DB	0a8H
	DB	0ffH
	DB	0b0H
	DB	0acH
	DB	0b0H
	DB	0ffH
	DB	0b0H
	DB	0acH
	DB	0b0H
	DB	0ffH
	DB	0a8H
	DB	0acH
	DB	0a8H
	DB	0ffH
	DB	0b0H
	DB	0acH
	DB	0b0H
	DB	0ffH
	DB	0b0H
	DB	0acH
	DB	0b0H
	DB	0ffH
	DB	0a8H
	DB	0acH
	DB	0a8H
	DB	0ffH
	DB	0b0H
	DB	0acH
	DB	0b0H
	DB	0ffH
	DB	0b0H
	DB	0acH
	DB	0b0H
	DB	0ffH
	DB	0a8H
	DB	0acH
	DB	0a8H
	DB	0ffH
	DB	0b0H
	DB	0acH
	DB	0b0H
	DB	0ffH
	DB	0a8H
	DB	0acH
	DB	0a8H
	DB	0ffH
	DB	0a8H
	DB	0acH
	DB	0a8H
	DB	0ffH
	DB	0b0H
	DB	0acH
	DB	0b0H
	DB	0ffH
	DB	0a8H
	DB	0acH
	DB	0a8H
	DB	0ffH
	DB	0a8H
	DB	0acH
	DB	0a8H
	DB	0ffH
	DB	0b0H
	DB	0acH
	DB	0b0H
	DB	0ffH
	DB	0a8H
	DB	0acH
	DB	0a8H
	DB	0ffH
	DB	0b0H
	DB	0acH
	DB	0b0H
	DB	0ffH
	DB	0b0H
	DB	0acH
	DB	0b0H
	DB	0ffH
	DB	0a8H
	DB	0acH
	DB	0a8H
	DB	0ffH
	DB	0a8H
	DB	0acH
	DB	0a8H
	DB	0ffH
	DB	0b0H
	DB	0acH
	DB	0b0H
	DB	0ffH
	DB	0a8H
	DB	0acH
	DB	0a8H
	DB	0ffH
	DB	0a8H
	DB	0acH
	DB	0a8H
	DB	0ffH
	DB	0b0H
	DB	0acH
	DB	0b0H
	DB	0ffH
	DB	0a8H
	DB	0acH
	DB	0a8H
	DB	0ffH
	DB	0b0H
	DB	0acH
	DB	0b0H
	DB	0ffH
	DB	0a8H
	DB	0acH
	DB	0a8H
	DB	0ffH
	DB	0b0H
	DB	0acH
	DB	0b0H
	DB	0ffH
	DB	0b0H
	DB	0acH
	DB	0b0H
	DB	0ffH
	DB	0a8H
	DB	0acH
	DB	0a8H
	DB	0ffH
	DB	0b0H
	DB	0acH
	DB	0b0H
	DB	0ffH
	DB	0b0H
	DB	0acH
	DB	0b0H
	DB	0ffH
	DB	0a8H
	DB	0acH
	DB	0a8H
	DB	0ffH
	DB	0b0H
	DB	0acH
	DB	0b0H
	DB	0ffH
	DB	0a8H
	DB	0acH
	DB	0a8H
	DB	0ffH
	DB	0a8H
	DB	0acH
	DB	0a8H
	DB	0ffH
	DB	0b0H
	DB	0acH
	DB	0b0H
	DB	0ffH
	DB	0b0H
	DB	0acH
	DB	0b0H
	DB	0ffH
	DB	0a8H
	DB	0acH
	DB	0a8H
	DB	0ffH
	DB	0b0H
	DB	0acH
	DB	0b0H
	DB	0ffH
	DB	0a8H
	DB	0acH
	DB	0a8H
	DB	0ffH
	DB	0b0H
	DB	0acH
	DB	0b0H
	DB	0ffH
	DB	0a8H
	DB	0acH
	DB	0a8H
	DB	0ffH
	DB	0b0H
	DB	0acH
	DB	0b0H
	DB	0ffH
	DB	0a8H
	DB	0acH
	DB	0a8H
	DB	0ffH
	DB	0a8H
	DB	0acH
	DB	0a8H
	DB	0ffH
	DB	0b0H
	DB	0acH
	DB	0b0H
	DB	0ffH
	DB	0a8H
	DB	0acH
	DB	0a8H
	DB	0ffH
	DB	0a8H
	DB	0acH
	DB	0a8H
	DB	0ffH
	DB	0b0H
	DB	0acH
	DB	0b0H
	DB	0ffH
	DB	0b0H
	DB	0acH
	DB	0b0H
	DB	0ffH
	DB	0a8H
	DB	0acH
	DB	0a8H
	DB	0ffH
	DB	0b0H
	DB	0acH
	DB	0b0H
	DB	0ffH
	DB	0b0H
	DB	0acH
	DB	0b0H
	DB	0ffH
	DB	0a8H
	DB	0acH
	DB	0a8H
	DB	0ffH
	DB	0b0H
	DB	0acH
	DB	0b0H
	DB	0ffH
	DB	0a8H
	DB	0acH
	DB	0a8H
	DB	0ffH
	DB	0a8H
	DB	0acH
	DB	0a8H
	DB	0ffH
	DB	0b0H
	DB	0acH
	DB	0b0H
	DB	0ffH
	DB	0a8H
	DB	0acH
	DB	0a8H
	DB	0ffH
	DB	0b0H
	DB	0acH
	DB	0b0H
	DB	0ffH
	DB	0b0H
	DB	0acH
	DB	0b0H
	DB	0ffH
	DB	0a8H
	DB	0acH
	DB	0a8H
	DB	0ffH
	DB	0b0H
	DB	0acH
	DB	0b0H
	DB	0ffH
	DB	0b0H
	DB	0acH
	DB	0b0H
	DB	0ffH
	DB	0a8H
	DB	0acH
	DB	0a8H
	DB	0ffH
	DB	0b0H
	DB	0acH
	DB	0b0H
	DB	0ffH
	DB	0a8H
	DB	0acH
	DB	0a8H
	DB	0ffH
	DB	0a8H
	DB	0acH
	DB	0a8H
	DB	0ffH
	DB	0b0H
	DB	0acH
	DB	0b0H
	DB	0ffH
	DB	0a8H
	DB	0acH
	DB	0a8H
	DB	0ffH
	DB	0a8H
	DB	0acH
	DB	0a8H
	DB	0ffH
	DB	0b0H
	DB	0acH
	DB	0b0H
	DB	0ffH
	DB	0a8H
	DB	0acH
	DB	0a8H
	DB	0ffH
	DB	0b0H
	DB	0acH
	DB	0b0H
	DB	0ffH
	DB	0b0H
	DB	0acH
	DB	0b0H
	DB	0ffH
	DB	0a8H
	DB	0acH
	DB	0a8H
	DB	0ffH
	DB	0b0H
	DB	0acH
	DB	0b0H
	DB	0ffH
	DB	0a8H
	DB	0acH
	DB	0a8H
	DB	0ffH
	DB	0a8H
	DB	0acH
	DB	0a8H
	DB	0ffH
	DB	0b0H
	DB	0acH
	DB	0b0H
	DB	0ffH
	DB	0a8H
	DB	0acH
	DB	0a8H
	DB	0ffH
	DB	0a8H
	DB	0acH
	DB	0a8H
	DB	0ffH
	DB	0b0H
	DB	0acH
	DB	0b0H
	DB	0ffH
	DB	0a8H
	DB	0acH
	DB	0a8H
	DB	0ffH
	DB	0b0H
	DB	0acH
	DB	0b0H
	DB	0ffH
	DB	0b0H
	DB	0acH
	DB	0b0H
	DB	0ffH
	DB	0a8H
	DB	0acH
	DB	0a8H
	DB	0ffH
	DB	0b0H
	DB	0acH
	DB	0b0H
	DB	0ffH
	DB	0b0H
	DB	0acH
	DB	0b0H
	DB	0ffH
	DB	0a8H
	DB	0acH
	DB	0a8H
	DB	0ffH
	DB	0b0H
	DB	0acH
	DB	0b0H
	DB	0ffH
	DB	0a8H
	DB	0acH
	DB	0a8H
	DB	0ffH
	DB	0a8H
	DB	0acH
	DB	0a8H
	DB	0ffH
	DB	0b0H
	DB	0acH
	DB	0b0H
	DB	0ffH
	DB	0a8H
	DB	0acH
	DB	0a8H
	DB	0ffH
	DB	0b0H
	DB	0acH
	DB	0b0H
	DB	0ffH
	DB	0b0H
	DB	0acH
	DB	0b0H
	DB	0ffH
	DB	0a8H
	DB	0acH
	DB	0a8H
	DB	0ffH
	DB	0b0H
	DB	0acH
	DB	0b0H
	DB	0ffH
	DB	0b0H
	DB	0acH
	DB	0b0H
	DB	0ffH
	DB	0a8H
	DB	0acH
	DB	0a8H
	DB	0ffH
	DB	0b0H
	DB	0acH
	DB	0b0H
	DB	0ffH
	DB	0a8H
	DB	0acH
	DB	0a8H
	DB	0ffH
	DB	0a8H
	DB	0acH
	DB	0a8H
	DB	0ffH
	DB	0b0H
	DB	0acH
	DB	0b0H
	DB	0ffH
	DB	0a8H
	DB	0acH
	DB	0a8H
	DB	0ffH
	DB	0a8H
	DB	0acH
	DB	0a8H
	DB	0ffH
	DB	0b0H
	DB	0acH
	DB	0b0H
	DB	0ffH
	DB	0a8H
	DB	0acH
	DB	0a8H
	DB	0ffH
	DB	0b0H
	DB	0acH
	DB	0b0H
	DB	0ffH
	DB	0a8H
	DB	0acH
	DB	0a8H
	DB	0efH
	DB	0b0H
	DB	0acH
	DB	0b0H
	DB	0ffH
	DB	0b0H
	DB	0acH
	DB	0b0H
	DB	0ffH
	DB	0a8H
	DB	0acH
	DB	0a8H
	DB	0ffH
	DB	0a8H
	DB	0acH
	DB	0a8H
	DB	0ffH
	DB	0a8H
	DB	0acH
	DB	0a8H
	DB	0ffH
	DB	0b0H
	DB	0acH
	DB	0b0H
	DB	0ffH
	DB	0a8H
	DB	0acH
	DB	0a8H
	DB	0ffH
	DB	0b0H
	DB	0acH
	DB	0b0H
	DB	0ffH
	DB	0a8H
	DB	0acH
	DB	0a8H
	DB	0ffH
	DB	0b0H
	DB	0acH
	DB	0b0H
	DB	0ffH
	DB	0b0H
	DB	0acH
	DB	0b0H
	DB	0ffH
	DB	0a8H
	DB	0acH
	DB	0a8H
	DB	0ffH
	DB	0b0H
	DB	0acH
	DB	0b0H
	DB	0ffH
	DB	0b0H
	DB	0acH
	DB	0b0H
	DB	0ffH
	DB	0a8H
	DB	0acH
	DB	0a8H
	DB	0ffH
	DB	0b0H
	DB	0acH
	DB	0b0H
	DB	0ffH
	DB	0a8H
	DB	0acH
	DB	0a8H
	DB	0ffH
	DB	0a8H
	DB	0acH
	DB	0a8H
	DB	0ffH
	DB	0b0H
	DB	0acH
	DB	0b0H
	DB	0f3H
	DB	0a8H
	DB	0acH
	DB	0a8H
	DB	0aeH
	DB	0b0H
	DB	0acH
	DB	0b0H
	DB	0ffH
	DB	0a8H
	DB	0acH
	DB	0a8H
	DB	0ffH
	DB	0b0H
	DB	0acH
	DB	0b0H
	DB	0ffH
	DB	0b0H
	DB	0acH
	DB	0b0H
	DB	0ffH
	DB	0a8H
	DB	0acH
	DB	0a8H
	DB	0ffH
	DB	0a8H
	DB	0acH
	DB	0a8H
	DB	0ffH
	DB	0b0H
	DB	0acH
	DB	0b0H
	DB	0ffH
	DB	0a8H
	DB	0acH
	DB	0a8H
	DB	0ffH
	DB	0a8H
	DB	0acH
	DB	0a8H
	DB	0ffH
	DB	0b0H
	DB	0acH
	DB	0b0H
	DB	0ffH
	DB	0a8H
	DB	0acH
	DB	0a8H
	DB	0ffH
	DB	0a8H
	DB	0acH
	DB	0a8H
	DB	0ffH
	DB	0b0H
	DB	0acH
	DB	0b0H
	DB	0ffH
	DB	0a8H
	DB	0acH
	DB	0a8H
	DB	0ffH
	DB	0b0H
	DB	0acH
	DB	0b0H
	DB	0ffH
	DB	0b0H
	DB	0acH
	DB	0b0H
	DB	0ffH
	DB	0a8H
	DB	0acH
	DB	0a8H
	DB	0ffH
	DB	0b0H
	DB	0acH
	DB	0b0H
	DB	0ffH
	DB	0a8H
	DB	0acH
	DB	0a8H
	DB	0aeH
	DB	0b0H
	DB	0acH
	DB	0b0H
	DB	028H
	DB	0a8H
	DB	0acH
	DB	0a8H
	DB	0efH
	DB	0a8H
	DB	0acH
	DB	0a8H
	DB	0ffH
	DB	0b0H
	DB	0acH
	DB	0b0H
	DB	0ffH
	DB	0b0H
	DB	0acH
	DB	0b0H
	DB	0ffH
	DB	0a8H
	DB	0acH
	DB	0a8H
	DB	0ffH
	DB	0b0H
	DB	0acH
	DB	0b0H
	DB	0ffH
	DB	0b0H
	DB	0acH
	DB	0b0H
	DB	0ffH
	DB	0a8H
	DB	0acH
	DB	0a8H
	DB	0ffH
	DB	0b0H
	DB	0acH
	DB	0b0H
	DB	0ffH
	DB	0b0H
	DB	0acH
	DB	0b0H
	DB	0ffH
	DB	0a8H
	DB	0acH
	DB	0a8H
	DB	0ffH
	DB	0b0H
	DB	0acH
	DB	0b0H
	DB	0ffH
	DB	0a8H
	DB	0acH
	DB	0a8H
	DB	0ffH
	DB	0a8H
	DB	0acH
	DB	0a8H
	DB	0ffH
	DB	0b0H
	DB	0acH
	DB	0b0H
	DB	0ffH
	DB	0a8H
	DB	0acH
	DB	0a8H
	DB	0ffH
	DB	0b0H
	DB	0acH
	DB	0b0H
	DB	0ffH
	DB	0b0H
	DB	0acH
	DB	0b0H
	DB	0efH
	DB	0a8H
	DB	0acH
	DB	0a8H
	DB	028H
	DB	00H
	DB	00H
	DB	00H
	DB	00H
	DB	0b0H
	DB	0acH
	DB	0b0H
	DB	028H
	DB	0a8H
	DB	0acH
	DB	0a8H
	DB	0aeH
	DB	0a8H
	DB	0acH
	DB	0a8H
	DB	0f3H
	DB	0b0H
	DB	0acH
	DB	0b0H
	DB	0ffH
	DB	0a8H
	DB	0acH
	DB	0a8H
	DB	0ffH
	DB	0b0H
	DB	0acH
	DB	0b0H
	DB	0ffH
	DB	0a8H
	DB	0acH
	DB	0a8H
	DB	0ffH
	DB	0a8H
	DB	0acH
	DB	0a8H
	DB	0ffH
	DB	0b0H
	DB	0acH
	DB	0b0H
	DB	0ffH
	DB	0a8H
	DB	0acH
	DB	0a8H
	DB	0ffH
	DB	0b0H
	DB	0acH
	DB	0b0H
	DB	0ffH
	DB	0b0H
	DB	0acH
	DB	0b0H
	DB	0ffH
	DB	0a8H
	DB	0acH
	DB	0a8H
	DB	0ffH
	DB	0b0H
	DB	0acH
	DB	0b0H
	DB	0ffH
	DB	0a8H
	DB	0acH
	DB	0a8H
	DB	0ffH
	DB	0a8H
	DB	0acH
	DB	0a8H
	DB	0f3H
	DB	0b0H
	DB	0acH
	DB	0b0H
	DB	0aeH
	DB	0a8H
	DB	0acH
	DB	0a8H
	DB	028H
	DB	00H
	DB	00H
	DB	00H
	DB	00H
CONST	ENDS
END
